SF:/home/admin/Desktop/opensource/soroban-debugger/crates/soroban-debug-mock/src/assertions.rs
FN:12,_RNvMNtCsiH8sQUbnuci_18soroban_debug_mock10assertionsNtB2_17StorageAssertions14assert_has_key
FN:19,_RNvMNtCsiH8sQUbnuci_18soroban_debug_mock10assertionsNtB2_17StorageAssertions15assert_value_eq
FN:8,_RNvMNtCsiH8sQUbnuci_18soroban_debug_mock10assertionsNtB2_17StorageAssertions3new
FNDA:0,_RNvMNtCsiH8sQUbnuci_18soroban_debug_mock10assertionsNtB2_17StorageAssertions14assert_has_key
FNDA:0,_RNvMNtCsiH8sQUbnuci_18soroban_debug_mock10assertionsNtB2_17StorageAssertions15assert_value_eq
FNDA:0,_RNvMNtCsiH8sQUbnuci_18soroban_debug_mock10assertionsNtB2_17StorageAssertions3new
FNF:3
FNH:0
DA:8,0
DA:9,0
DA:10,0
DA:12,0
DA:16,0
DA:17,0
DA:19,0
DA:20,0
DA:22,0
DA:23,0
BRF:0
BRH:0
LF:10
LH:0
end_of_record
SF:/home/admin/Desktop/opensource/soroban-debugger/crates/soroban-debug-mock/src/builder.rs
FN:44,_RNvMs_NtCshcMAdTEzDaM_18soroban_debug_mock7builderNtB4_14MockEnvBuilder14with_mock_call
FN:36,_RNvMs_NtCshcMAdTEzDaM_18soroban_debug_mock7builderNtB4_14MockEnvBuilder17with_storage_json
FN:29,_RNvMs_NtCshcMAdTEzDaM_18soroban_debug_mock7builderNtB4_14MockEnvBuilder21with_contract_storage
FN:18,_RNvMs_NtCshcMAdTEzDaM_18soroban_debug_mock7builderNtB4_14MockEnvBuilder3new
FN:50,_RNvMs_NtCshcMAdTEzDaM_18soroban_debug_mock7builderNtB4_14MockEnvBuilder5build
FN:22,_RNvMs_NtCshcMAdTEzDaM_18soroban_debug_mock7builderNtB4_14MockEnvBuilder8from_env
FN:12,_RNvXNtCshcMAdTEzDaM_18soroban_debug_mock7builderNtB2_14MockEnvBuilderNtNtCslH02haMvknO_4core7default7Default7default
FN:30,_RNCNvMs_NtCshcMAdTEzDaM_18soroban_debug_mock7builderNtB6_14MockEnvBuilder21with_contract_storage0B8_
FN:30,_RNCNvMs_NtCsiH8sQUbnuci_18soroban_debug_mock7builderNtB6_14MockEnvBuilder21with_contract_storage0B8_
FN:44,_RNvMs_NtCsiH8sQUbnuci_18soroban_debug_mock7builderNtB4_14MockEnvBuilder14with_mock_call
FN:36,_RNvMs_NtCsiH8sQUbnuci_18soroban_debug_mock7builderNtB4_14MockEnvBuilder17with_storage_json
FN:29,_RNvMs_NtCsiH8sQUbnuci_18soroban_debug_mock7builderNtB4_14MockEnvBuilder21with_contract_storage
FN:18,_RNvMs_NtCsiH8sQUbnuci_18soroban_debug_mock7builderNtB4_14MockEnvBuilder3new
FN:50,_RNvMs_NtCsiH8sQUbnuci_18soroban_debug_mock7builderNtB4_14MockEnvBuilder5build
FN:22,_RNvMs_NtCsiH8sQUbnuci_18soroban_debug_mock7builderNtB4_14MockEnvBuilder8from_env
FN:12,_RNvXNtCsiH8sQUbnuci_18soroban_debug_mock7builderNtB2_14MockEnvBuilderNtNtCslH02haMvknO_4core7default7Default7default
FNDA:0,_RNvMs_NtCshcMAdTEzDaM_18soroban_debug_mock7builderNtB4_14MockEnvBuilder14with_mock_call
FNDA:0,_RNvMs_NtCshcMAdTEzDaM_18soroban_debug_mock7builderNtB4_14MockEnvBuilder17with_storage_json
FNDA:1,_RNvMs_NtCshcMAdTEzDaM_18soroban_debug_mock7builderNtB4_14MockEnvBuilder21with_contract_storage
FNDA:0,_RNvMs_NtCshcMAdTEzDaM_18soroban_debug_mock7builderNtB4_14MockEnvBuilder3new
FNDA:0,_RNvMs_NtCshcMAdTEzDaM_18soroban_debug_mock7builderNtB4_14MockEnvBuilder5build
FNDA:1,_RNvMs_NtCshcMAdTEzDaM_18soroban_debug_mock7builderNtB4_14MockEnvBuilder8from_env
FNDA:0,_RNvXNtCshcMAdTEzDaM_18soroban_debug_mock7builderNtB2_14MockEnvBuilderNtNtCslH02haMvknO_4core7default7Default7default
FNDA:1,_RNCNvMs_NtCshcMAdTEzDaM_18soroban_debug_mock7builderNtB6_14MockEnvBuilder21with_contract_storage0B8_
FNDA:0,_RNCNvMs_NtCsiH8sQUbnuci_18soroban_debug_mock7builderNtB6_14MockEnvBuilder21with_contract_storage0B8_
FNDA:0,_RNvMs_NtCsiH8sQUbnuci_18soroban_debug_mock7builderNtB4_14MockEnvBuilder14with_mock_call
FNDA:0,_RNvMs_NtCsiH8sQUbnuci_18soroban_debug_mock7builderNtB4_14MockEnvBuilder17with_storage_json
FNDA:0,_RNvMs_NtCsiH8sQUbnuci_18soroban_debug_mock7builderNtB4_14MockEnvBuilder21with_contract_storage
FNDA:0,_RNvMs_NtCsiH8sQUbnuci_18soroban_debug_mock7builderNtB4_14MockEnvBuilder3new
FNDA:0,_RNvMs_NtCsiH8sQUbnuci_18soroban_debug_mock7builderNtB4_14MockEnvBuilder5build
FNDA:0,_RNvMs_NtCsiH8sQUbnuci_18soroban_debug_mock7builderNtB4_14MockEnvBuilder8from_env
FNDA:0,_RNvXNtCsiH8sQUbnuci_18soroban_debug_mock7builderNtB2_14MockEnvBuilderNtNtCslH02haMvknO_4core7default7Default7default
FNF:8
FNH:3
DA:12,0
DA:13,0
DA:14,0
DA:18,0
DA:19,0
DA:20,0
DA:22,1
DA:23,1
DA:24,1
DA:25,1
DA:26,1
DA:27,1
DA:29,1
DA:30,1
DA:31,1
DA:32,1
DA:33,1
DA:34,1
DA:36,0
DA:40,0
DA:41,0
DA:42,0
DA:44,0
DA:45,0
DA:46,0
DA:47,0
DA:48,0
DA:50,0
DA:51,0
DA:52,0
DA:53,0
BRF:0
BRH:0
LF:32
LH:13
end_of_record
SF:/home/admin/Desktop/opensource/soroban-debugger/crates/soroban-debug-mock/src/mock.rs
FN:17,_RNvMNtCshcMAdTEzDaM_18soroban_debug_mock4mockNtB2_12MockRegistry7install
FN:10,_RNvMNtCshcMAdTEzDaM_18soroban_debug_mock4mockNtB2_12MockRegistry8register
FN:17,_RNvMNtCsiH8sQUbnuci_18soroban_debug_mock4mockNtB2_12MockRegistry7install
FN:10,_RNvMNtCsiH8sQUbnuci_18soroban_debug_mock4mockNtB2_12MockRegistry8register
FNDA:0,_RNvMNtCshcMAdTEzDaM_18soroban_debug_mock4mockNtB2_12MockRegistry7install
FNDA:0,_RNvMNtCshcMAdTEzDaM_18soroban_debug_mock4mockNtB2_12MockRegistry8register
FNDA:0,_RNvMNtCsiH8sQUbnuci_18soroban_debug_mock4mockNtB2_12MockRegistry7install
FNDA:0,_RNvMNtCsiH8sQUbnuci_18soroban_debug_mock4mockNtB2_12MockRegistry8register
FNF:2
FNH:0
DA:10,0
DA:11,0
DA:12,0
DA:13,0
DA:15,0
DA:17,0
DA:22,0
BRF:0
BRH:0
LF:7
LH:0
end_of_record
SF:/home/admin/Desktop/opensource/soroban-debugger/crates/soroban-debug-mock/src/storage.rs
FN:7,_RNvMNtCshcMAdTEzDaM_18soroban_debug_mock7storageNtB2_13StorageHelper18populate_from_json
FN:7,_RNvMNtCsiH8sQUbnuci_18soroban_debug_mock7storageNtB2_13StorageHelper18populate_from_json
FNDA:1,_RNvMNtCshcMAdTEzDaM_18soroban_debug_mock7storageNtB2_13StorageHelper18populate_from_json
FNDA:0,_RNvMNtCsiH8sQUbnuci_18soroban_debug_mock7storageNtB2_13StorageHelper18populate_from_json
FNF:1
FNH:1
DA:7,1
DA:8,1
DA:9,1
DA:13,1
DA:16,1
DA:17,0
DA:18,1
DA:19,0
DA:20,1
DA:21,1
DA:22,1
DA:24,0
DA:25,1
BRF:0
BRH:0
LF:13
LH:10
end_of_record
SF:/home/admin/Desktop/opensource/soroban-debugger/src/analyzer/graph.rs
FN:24,_RINvMNtNtCsjDzxbYtLkYp_16soroban_debugger8analyzer5graphNtB3_15DependencyGraph8add_edgeppEB7_
FN:20,_RINvMNtNtCsjDzxbYtLkYp_16soroban_debugger8analyzer5graphNtB3_15DependencyGraph8add_nodepEB7_
FN:76,_RNvMNtNtCsjDzxbYtLkYp_16soroban_debugger8analyzer5graphNtB2_15DependencyGraph10to_mermaid
FN:40,_RNvMNtNtCsjDzxbYtLkYp_16soroban_debugger8analyzer5graphNtB2_15DependencyGraph16escape_dot_label
FN:44,_RNvMNtNtCsjDzxbYtLkYp_16soroban_debugger8analyzer5graphNtB2_15DependencyGraph20escape_mermaid_label
FN:16,_RNvMNtNtCsjDzxbYtLkYp_16soroban_debugger8analyzer5graphNtB2_15DependencyGraph3new
FN:32,_RNvMNtNtCsjDzxbYtLkYp_16soroban_debugger8analyzer5graphNtB2_15DependencyGraph5edges
FN:53,_RNvMNtNtCsjDzxbYtLkYp_16soroban_debugger8analyzer5graphNtB2_15DependencyGraph6to_dot
FN:36,_RNvMNtNtCsjDzxbYtLkYp_16soroban_debugger8analyzer5graphNtB2_15DependencyGraph8is_empty
FN:20,_RINvMNtNtCs2jO2QXn3WZ6_16soroban_debugger8analyzer5graphNtB3_15DependencyGraph8add_nodepEB7_
FN:32,_RNvMNtNtCs2jO2QXn3WZ6_16soroban_debugger8analyzer5graphNtB2_15DependencyGraph5edges
FN:36,_RNvMNtNtCs2jO2QXn3WZ6_16soroban_debugger8analyzer5graphNtB2_15DependencyGraph8is_empty
FN:106,_RNvNtNtNtCs2jO2QXn3WZ6_16soroban_debugger8analyzer5graph5testss_29mermaid_export_contains_edges
FN:96,_RNvNtNtNtCs2jO2QXn3WZ6_16soroban_debugger8analyzer5graph5testss_35dot_export_contains_nodes_and_edges
FN:24,_RINvMNtNtCs2jO2QXn3WZ6_16soroban_debugger8analyzer5graphNtB3_15DependencyGraph8add_edgeReB1n_EB7_
FN:76,_RNvMNtNtCs2jO2QXn3WZ6_16soroban_debugger8analyzer5graphNtB2_15DependencyGraph10to_mermaid
FN:40,_RNvMNtNtCs2jO2QXn3WZ6_16soroban_debugger8analyzer5graphNtB2_15DependencyGraph16escape_dot_label
FN:44,_RNvMNtNtCs2jO2QXn3WZ6_16soroban_debugger8analyzer5graphNtB2_15DependencyGraph20escape_mermaid_label
FN:16,_RNvMNtNtCs2jO2QXn3WZ6_16soroban_debugger8analyzer5graphNtB2_15DependencyGraph3new
FN:53,_RNvMNtNtCs2jO2QXn3WZ6_16soroban_debugger8analyzer5graphNtB2_15DependencyGraph6to_dot
FNDA:0,_RINvMNtNtCsjDzxbYtLkYp_16soroban_debugger8analyzer5graphNtB3_15DependencyGraph8add_edgeppEB7_
FNDA:0,_RINvMNtNtCsjDzxbYtLkYp_16soroban_debugger8analyzer5graphNtB3_15DependencyGraph8add_nodepEB7_
FNDA:0,_RNvMNtNtCsjDzxbYtLkYp_16soroban_debugger8analyzer5graphNtB2_15DependencyGraph10to_mermaid
FNDA:0,_RNvMNtNtCsjDzxbYtLkYp_16soroban_debugger8analyzer5graphNtB2_15DependencyGraph16escape_dot_label
FNDA:0,_RNvMNtNtCsjDzxbYtLkYp_16soroban_debugger8analyzer5graphNtB2_15DependencyGraph20escape_mermaid_label
FNDA:0,_RNvMNtNtCsjDzxbYtLkYp_16soroban_debugger8analyzer5graphNtB2_15DependencyGraph3new
FNDA:0,_RNvMNtNtCsjDzxbYtLkYp_16soroban_debugger8analyzer5graphNtB2_15DependencyGraph5edges
FNDA:0,_RNvMNtNtCsjDzxbYtLkYp_16soroban_debugger8analyzer5graphNtB2_15DependencyGraph6to_dot
FNDA:0,_RNvMNtNtCsjDzxbYtLkYp_16soroban_debugger8analyzer5graphNtB2_15DependencyGraph8is_empty
FNDA:0,_RINvMNtNtCs2jO2QXn3WZ6_16soroban_debugger8analyzer5graphNtB3_15DependencyGraph8add_nodepEB7_
FNDA:0,_RNvMNtNtCs2jO2QXn3WZ6_16soroban_debugger8analyzer5graphNtB2_15DependencyGraph5edges
FNDA:0,_RNvMNtNtCs2jO2QXn3WZ6_16soroban_debugger8analyzer5graphNtB2_15DependencyGraph8is_empty
FNDA:1,_RNvNtNtNtCs2jO2QXn3WZ6_16soroban_debugger8analyzer5graph5testss_29mermaid_export_contains_edges
FNDA:1,_RNvNtNtNtCs2jO2QXn3WZ6_16soroban_debugger8analyzer5graph5testss_35dot_export_contains_nodes_and_edges
FNDA:2,_RINvMNtNtCs2jO2QXn3WZ6_16soroban_debugger8analyzer5graphNtB3_15DependencyGraph8add_edgeReB1n_EB7_
FNDA:1,_RNvMNtNtCs2jO2QXn3WZ6_16soroban_debugger8analyzer5graphNtB2_15DependencyGraph10to_mermaid
FNDA:4,_RNvMNtNtCs2jO2QXn3WZ6_16soroban_debugger8analyzer5graphNtB2_15DependencyGraph16escape_dot_label
FNDA:2,_RNvMNtNtCs2jO2QXn3WZ6_16soroban_debugger8analyzer5graphNtB2_15DependencyGraph20escape_mermaid_label
FNDA:2,_RNvMNtNtCs2jO2QXn3WZ6_16soroban_debugger8analyzer5graphNtB2_15DependencyGraph3new
FNDA:1,_RNvMNtNtCs2jO2QXn3WZ6_16soroban_debugger8analyzer5graphNtB2_15DependencyGraph6to_dot
FNF:11
FNH:8
DA:16,2
DA:17,2
DA:18,2
DA:20,0
DA:21,0
DA:22,0
DA:24,2
DA:25,2
DA:26,2
DA:27,2
DA:28,2
DA:29,2
DA:30,2
DA:32,0
DA:33,0
DA:34,0
DA:36,0
DA:37,0
DA:38,0
DA:40,4
DA:41,4
DA:42,4
DA:44,2
DA:45,2
DA:46,2
DA:47,2
DA:48,2
DA:49,2
DA:50,2
DA:51,2
DA:53,1
DA:54,1
DA:55,1
DA:57,2
DA:58,2
DA:59,2
DA:60,2
DA:61,2
DA:62,2
DA:64,1
DA:65,1
DA:66,1
DA:67,1
DA:68,1
DA:69,1
DA:70,1
DA:72,1
DA:73,1
DA:74,1
DA:76,1
DA:77,1
DA:79,1
DA:80,1
DA:81,1
DA:82,1
DA:83,1
DA:84,1
DA:85,1
DA:87,1
DA:88,1
DA:96,1
DA:97,1
DA:98,1
DA:100,1
DA:101,1
DA:102,1
DA:103,1
DA:106,1
DA:107,1
DA:108,1
DA:110,1
DA:111,1
DA:112,1
DA:113,1
BRF:0
BRH:0
LF:74
LH:65
end_of_record
SF:/home/admin/Desktop/opensource/soroban-debugger/src/analyzer/security.rs
FN:111,_RNCNvXs0_NtNtCsjDzxbYtLkYp_16soroban_debugger8analyzer8securityNtB7_20HardcodedAddressRuleNtB7_12SecurityRule14analyze_static0Bb_
FN:33,_RNvYNtNtNtCsjDzxbYtLkYp_16soroban_debugger8analyzer8security19ArithmeticCheckRuleNtB4_12SecurityRule15analyze_dynamicB8_
FN:33,_RNvYNtNtNtCsjDzxbYtLkYp_16soroban_debugger8analyzer8security20HardcodedAddressRuleNtB4_12SecurityRule15analyze_dynamicB8_
FN:30,_RNvYNtNtNtCsjDzxbYtLkYp_16soroban_debugger8analyzer8security21ReentrancyPatternRuleNtB4_12SecurityRule14analyze_staticB8_
FN:30,_RNvYNtNtNtCsjDzxbYtLkYp_16soroban_debugger8analyzer8security22AuthorizationCheckRuleNtB4_12SecurityRule14analyze_staticB8_
FN:111,_RNCNvXs0_NtNtCs2jO2QXn3WZ6_16soroban_debugger8analyzer8securityNtB7_20HardcodedAddressRuleNtB7_12SecurityRule14analyze_static0Bb_
FN:47,_RNvMNtNtCs2jO2QXn3WZ6_16soroban_debugger8analyzer8securityNtB2_16SecurityAnalyzer3new
FN:59,_RNvMNtNtCs2jO2QXn3WZ6_16soroban_debugger8analyzer8securityNtB2_16SecurityAnalyzer7analyze
FN:96,_RNvXs0_NtNtCs2jO2QXn3WZ6_16soroban_debugger8analyzer8securityNtB5_20HardcodedAddressRuleNtB5_12SecurityRule11description
FN:100,_RNvXs0_NtNtCs2jO2QXn3WZ6_16soroban_debugger8analyzer8securityNtB5_20HardcodedAddressRuleNtB5_12SecurityRule14analyze_static
FN:93,_RNvXs0_NtNtCs2jO2QXn3WZ6_16soroban_debugger8analyzer8securityNtB5_20HardcodedAddressRuleNtB5_12SecurityRule4name
FN:134,_RNvXs1_NtNtCs2jO2QXn3WZ6_16soroban_debugger8analyzer8securityNtB5_19ArithmeticCheckRuleNtB5_12SecurityRule11description
FN:138,_RNvXs1_NtNtCs2jO2QXn3WZ6_16soroban_debugger8analyzer8securityNtB5_19ArithmeticCheckRuleNtB5_12SecurityRule14analyze_static
FN:131,_RNvXs1_NtNtCs2jO2QXn3WZ6_16soroban_debugger8analyzer8securityNtB5_19ArithmeticCheckRuleNtB5_12SecurityRule4name
FN:153,_RNvXs2_NtNtCs2jO2QXn3WZ6_16soroban_debugger8analyzer8securityNtB5_22AuthorizationCheckRuleNtB5_12SecurityRule11description
FN:157,_RNvXs2_NtNtCs2jO2QXn3WZ6_16soroban_debugger8analyzer8securityNtB5_22AuthorizationCheckRuleNtB5_12SecurityRule15analyze_dynamic
FN:150,_RNvXs2_NtNtCs2jO2QXn3WZ6_16soroban_debugger8analyzer8securityNtB5_22AuthorizationCheckRuleNtB5_12SecurityRule4name
FN:199,_RNvXs3_NtNtCs2jO2QXn3WZ6_16soroban_debugger8analyzer8securityNtB5_21ReentrancyPatternRuleNtB5_12SecurityRule11description
FN:203,_RNvXs3_NtNtCs2jO2QXn3WZ6_16soroban_debugger8analyzer8securityNtB5_21ReentrancyPatternRuleNtB5_12SecurityRule15analyze_dynamic
FN:196,_RNvXs3_NtNtCs2jO2QXn3WZ6_16soroban_debugger8analyzer8securityNtB5_21ReentrancyPatternRuleNtB5_12SecurityRule4name
FN:238,_RNvXs4_NtNtCs2jO2QXn3WZ6_16soroban_debugger8analyzer8securityNtB5_22UnboundedIterationRuleNtB5_12SecurityRule11description
FN:242,_RNvXs4_NtNtCs2jO2QXn3WZ6_16soroban_debugger8analyzer8securityNtB5_22UnboundedIterationRuleNtB5_12SecurityRule14analyze_static
FN:248,_RNvXs4_NtNtCs2jO2QXn3WZ6_16soroban_debugger8analyzer8securityNtB5_22UnboundedIterationRuleNtB5_12SecurityRule15analyze_dynamic
FN:235,_RNvXs4_NtNtCs2jO2QXn3WZ6_16soroban_debugger8analyzer8securityNtB5_22UnboundedIterationRuleNtB5_12SecurityRule4name
FN:84,_RNvXs_NtNtCs2jO2QXn3WZ6_16soroban_debugger8analyzer8securityNtB4_16SecurityAnalyzerNtNtCslH02haMvknO_4core7default7Default7default
FN:30,_RNvYpNtNtNtCs2jO2QXn3WZ6_16soroban_debugger8analyzer8security12SecurityRule14analyze_staticB9_
FN:33,_RNvYpNtNtNtCs2jO2QXn3WZ6_16soroban_debugger8analyzer8security12SecurityRule15analyze_dynamicB9_
FNDA:0,_RNCNvXs0_NtNtCsjDzxbYtLkYp_16soroban_debugger8analyzer8securityNtB7_20HardcodedAddressRuleNtB7_12SecurityRule14analyze_static0Bb_
FNDA:0,_RNvYNtNtNtCsjDzxbYtLkYp_16soroban_debugger8analyzer8security19ArithmeticCheckRuleNtB4_12SecurityRule15analyze_dynamicB8_
FNDA:0,_RNvYNtNtNtCsjDzxbYtLkYp_16soroban_debugger8analyzer8security20HardcodedAddressRuleNtB4_12SecurityRule15analyze_dynamicB8_
FNDA:0,_RNvYNtNtNtCsjDzxbYtLkYp_16soroban_debugger8analyzer8security21ReentrancyPatternRuleNtB4_12SecurityRule14analyze_staticB8_
FNDA:0,_RNvYNtNtNtCsjDzxbYtLkYp_16soroban_debugger8analyzer8security22AuthorizationCheckRuleNtB4_12SecurityRule14analyze_staticB8_
FNDA:0,_RNCNvXs0_NtNtCs2jO2QXn3WZ6_16soroban_debugger8analyzer8securityNtB7_20HardcodedAddressRuleNtB7_12SecurityRule14analyze_static0Bb_
FNDA:0,_RNvMNtNtCs2jO2QXn3WZ6_16soroban_debugger8analyzer8securityNtB2_16SecurityAnalyzer3new
FNDA:0,_RNvMNtNtCs2jO2QXn3WZ6_16soroban_debugger8analyzer8securityNtB2_16SecurityAnalyzer7analyze
FNDA:0,_RNvXs0_NtNtCs2jO2QXn3WZ6_16soroban_debugger8analyzer8securityNtB5_20HardcodedAddressRuleNtB5_12SecurityRule11description
FNDA:0,_RNvXs0_NtNtCs2jO2QXn3WZ6_16soroban_debugger8analyzer8securityNtB5_20HardcodedAddressRuleNtB5_12SecurityRule14analyze_static
FNDA:0,_RNvXs0_NtNtCs2jO2QXn3WZ6_16soroban_debugger8analyzer8securityNtB5_20HardcodedAddressRuleNtB5_12SecurityRule4name
FNDA:0,_RNvXs1_NtNtCs2jO2QXn3WZ6_16soroban_debugger8analyzer8securityNtB5_19ArithmeticCheckRuleNtB5_12SecurityRule11description
FNDA:0,_RNvXs1_NtNtCs2jO2QXn3WZ6_16soroban_debugger8analyzer8securityNtB5_19ArithmeticCheckRuleNtB5_12SecurityRule14analyze_static
FNDA:0,_RNvXs1_NtNtCs2jO2QXn3WZ6_16soroban_debugger8analyzer8securityNtB5_19ArithmeticCheckRuleNtB5_12SecurityRule4name
FNDA:0,_RNvXs2_NtNtCs2jO2QXn3WZ6_16soroban_debugger8analyzer8securityNtB5_22AuthorizationCheckRuleNtB5_12SecurityRule11description
FNDA:0,_RNvXs2_NtNtCs2jO2QXn3WZ6_16soroban_debugger8analyzer8securityNtB5_22AuthorizationCheckRuleNtB5_12SecurityRule15analyze_dynamic
FNDA:0,_RNvXs2_NtNtCs2jO2QXn3WZ6_16soroban_debugger8analyzer8securityNtB5_22AuthorizationCheckRuleNtB5_12SecurityRule4name
FNDA:0,_RNvXs3_NtNtCs2jO2QXn3WZ6_16soroban_debugger8analyzer8securityNtB5_21ReentrancyPatternRuleNtB5_12SecurityRule11description
FNDA:0,_RNvXs3_NtNtCs2jO2QXn3WZ6_16soroban_debugger8analyzer8securityNtB5_21ReentrancyPatternRuleNtB5_12SecurityRule15analyze_dynamic
FNDA:0,_RNvXs3_NtNtCs2jO2QXn3WZ6_16soroban_debugger8analyzer8securityNtB5_21ReentrancyPatternRuleNtB5_12SecurityRule4name
FNDA:0,_RNvXs4_NtNtCs2jO2QXn3WZ6_16soroban_debugger8analyzer8securityNtB5_22UnboundedIterationRuleNtB5_12SecurityRule11description
FNDA:0,_RNvXs4_NtNtCs2jO2QXn3WZ6_16soroban_debugger8analyzer8securityNtB5_22UnboundedIterationRuleNtB5_12SecurityRule14analyze_static
FNDA:0,_RNvXs4_NtNtCs2jO2QXn3WZ6_16soroban_debugger8analyzer8securityNtB5_22UnboundedIterationRuleNtB5_12SecurityRule15analyze_dynamic
FNDA:0,_RNvXs4_NtNtCs2jO2QXn3WZ6_16soroban_debugger8analyzer8securityNtB5_22UnboundedIterationRuleNtB5_12SecurityRule4name
FNDA:0,_RNvXs_NtNtCs2jO2QXn3WZ6_16soroban_debugger8analyzer8securityNtB4_16SecurityAnalyzerNtNtCslH02haMvknO_4core7default7Default7default
FNDA:0,_RNvYpNtNtNtCs2jO2QXn3WZ6_16soroban_debugger8analyzer8security12SecurityRule14analyze_staticB9_
FNDA:0,_RNvYpNtNtNtCs2jO2QXn3WZ6_16soroban_debugger8analyzer8security12SecurityRule15analyze_dynamicB9_
FNF:22
FNH:0
DA:30,0
DA:31,0
DA:32,0
DA:33,0
DA:34,0
DA:35,0
DA:36,0
DA:37,0
DA:38,0
DA:39,0
DA:47,0
DA:48,0
DA:49,0
DA:50,0
DA:51,0
DA:52,0
DA:53,0
DA:54,0
DA:55,0
DA:56,0
DA:57,0
DA:59,0
DA:60,0
DA:61,0
DA:62,0
DA:63,0
DA:64,0
DA:65,0
DA:67,0
DA:69,0
DA:70,0
DA:73,0
DA:74,0
DA:75,0
DA:76,0
DA:79,0
DA:80,0
DA:84,0
DA:85,0
DA:86,0
DA:93,0
DA:94,0
DA:95,0
DA:96,0
DA:97,0
DA:98,0
DA:100,0
DA:101,0
DA:104,0
DA:105,0
DA:106,0
DA:107,0
DA:108,0
DA:111,0
DA:112,0
DA:113,0
DA:114,0
DA:115,0
DA:116,0
DA:117,0
DA:118,0
DA:119,0
DA:120,0
DA:123,0
DA:125,0
DA:126,0
DA:131,0
DA:132,0
DA:133,0
DA:134,0
DA:135,0
DA:136,0
DA:138,0
DA:144,0
DA:145,0
DA:150,0
DA:151,0
DA:152,0
DA:153,0
DA:154,0
DA:155,0
DA:157,0
DA:158,0
DA:159,0
DA:160,0
DA:161,0
DA:162,0
DA:166,0
DA:167,0
DA:169,0
DA:170,0
DA:171,0
DA:172,0
DA:173,0
DA:174,0
DA:175,0
DA:178,0
DA:179,0
DA:180,0
DA:181,0
DA:182,0
DA:183,0
DA:184,0
DA:185,0
DA:186,0
DA:187,0
DA:188,0
DA:190,0
DA:191,0
DA:196,0
DA:197,0
DA:198,0
DA:199,0
DA:200,0
DA:201,0
DA:203,0
DA:204,0
DA:205,0
DA:206,0
DA:207,0
DA:208,0
DA:209,0
DA:211,0
DA:212,0
DA:213,0
DA:214,0
DA:215,0
DA:216,0
DA:217,0
DA:218,0
DA:219,0
DA:220,0
DA:221,0
DA:222,0
DA:223,0
DA:224,0
DA:225,0
DA:226,0
DA:227,0
DA:229,0
DA:230,0
DA:235,0
DA:236,0
DA:237,0
DA:238,0
DA:239,0
DA:240,0
DA:242,0
DA:245,0
DA:246,0
DA:248,0
DA:249,0
DA:250,0
DA:251,0
DA:252,0
DA:253,0
DA:254,0
DA:255,0
DA:256,0
DA:257,0
DA:258,0
DA:261,0
DA:262,0
DA:263,0
DA:264,0
DA:265,0
DA:266,0
DA:267,0
DA:268,0
DA:269,0
DA:270,0
DA:271,0
BRF:0
BRH:0
LF:173
LH:0
end_of_record
SF:/home/admin/Desktop/opensource/soroban-debugger/src/analyzer/symbolic.rs
FN:100,_RNCNvMNtNtCsjDzxbYtLkYp_16soroban_debugger8analyzer8symbolicNtB4_16SymbolicAnalyzer13get_arg_count0B8_
FN:119,_RNCNvMNtNtCsjDzxbYtLkYp_16soroban_debugger8analyzer8symbolicNtB4_16SymbolicAnalyzer13get_arg_counts0_0B8_
FN:129,_RNCNvMNtNtCsjDzxbYtLkYp_16soroban_debugger8analyzer8symbolicNtB4_16SymbolicAnalyzer13get_arg_counts1_0B8_
FN:104,_RNCNvMNtNtCsjDzxbYtLkYp_16soroban_debugger8analyzer8symbolicNtB4_16SymbolicAnalyzer13get_arg_counts_0B8_
FN:46,_RNCNvMNtNtCsjDzxbYtLkYp_16soroban_debugger8analyzer8symbolicNtB4_16SymbolicAnalyzer7analyze0B8_
FN:100,_RNCNvMNtNtCs2jO2QXn3WZ6_16soroban_debugger8analyzer8symbolicNtB4_16SymbolicAnalyzer13get_arg_count0B8_
FN:119,_RNCNvMNtNtCs2jO2QXn3WZ6_16soroban_debugger8analyzer8symbolicNtB4_16SymbolicAnalyzer13get_arg_counts0_0B8_
FN:129,_RNCNvMNtNtCs2jO2QXn3WZ6_16soroban_debugger8analyzer8symbolicNtB4_16SymbolicAnalyzer13get_arg_counts1_0B8_
FN:104,_RNCNvMNtNtCs2jO2QXn3WZ6_16soroban_debugger8analyzer8symbolicNtB4_16SymbolicAnalyzer13get_arg_counts_0B8_
FN:46,_RNCNvMNtNtCs2jO2QXn3WZ6_16soroban_debugger8analyzer8symbolicNtB4_16SymbolicAnalyzer7analyze0B8_
FN:92,_RNvMNtNtCs2jO2QXn3WZ6_16soroban_debugger8analyzer8symbolicNtB2_16SymbolicAnalyzer13get_arg_count
FN:191,_RNvMNtNtCs2jO2QXn3WZ6_16soroban_debugger8analyzer8symbolicNtB2_16SymbolicAnalyzer22generate_scenario_toml
FN:160,_RNvMNtNtCs2jO2QXn3WZ6_16soroban_debugger8analyzer8symbolicNtB2_16SymbolicAnalyzer27generate_input_combinations
FN:27,_RNvMNtNtCs2jO2QXn3WZ6_16soroban_debugger8analyzer8symbolicNtB2_16SymbolicAnalyzer3new
FN:31,_RNvMNtNtCs2jO2QXn3WZ6_16soroban_debugger8analyzer8symbolicNtB2_16SymbolicAnalyzer7analyze
FNDA:0,_RNCNvMNtNtCsjDzxbYtLkYp_16soroban_debugger8analyzer8symbolicNtB4_16SymbolicAnalyzer13get_arg_count0B8_
FNDA:0,_RNCNvMNtNtCsjDzxbYtLkYp_16soroban_debugger8analyzer8symbolicNtB4_16SymbolicAnalyzer13get_arg_counts0_0B8_
FNDA:0,_RNCNvMNtNtCsjDzxbYtLkYp_16soroban_debugger8analyzer8symbolicNtB4_16SymbolicAnalyzer13get_arg_counts1_0B8_
FNDA:0,_RNCNvMNtNtCsjDzxbYtLkYp_16soroban_debugger8analyzer8symbolicNtB4_16SymbolicAnalyzer13get_arg_counts_0B8_
FNDA:0,_RNCNvMNtNtCsjDzxbYtLkYp_16soroban_debugger8analyzer8symbolicNtB4_16SymbolicAnalyzer7analyze0B8_
FNDA:0,_RNCNvMNtNtCs2jO2QXn3WZ6_16soroban_debugger8analyzer8symbolicNtB4_16SymbolicAnalyzer13get_arg_count0B8_
FNDA:0,_RNCNvMNtNtCs2jO2QXn3WZ6_16soroban_debugger8analyzer8symbolicNtB4_16SymbolicAnalyzer13get_arg_counts0_0B8_
FNDA:0,_RNCNvMNtNtCs2jO2QXn3WZ6_16soroban_debugger8analyzer8symbolicNtB4_16SymbolicAnalyzer13get_arg_counts1_0B8_
FNDA:0,_RNCNvMNtNtCs2jO2QXn3WZ6_16soroban_debugger8analyzer8symbolicNtB4_16SymbolicAnalyzer13get_arg_counts_0B8_
FNDA:0,_RNCNvMNtNtCs2jO2QXn3WZ6_16soroban_debugger8analyzer8symbolicNtB4_16SymbolicAnalyzer7analyze0B8_
FNDA:0,_RNvMNtNtCs2jO2QXn3WZ6_16soroban_debugger8analyzer8symbolicNtB2_16SymbolicAnalyzer13get_arg_count
FNDA:0,_RNvMNtNtCs2jO2QXn3WZ6_16soroban_debugger8analyzer8symbolicNtB2_16SymbolicAnalyzer22generate_scenario_toml
FNDA:0,_RNvMNtNtCs2jO2QXn3WZ6_16soroban_debugger8analyzer8symbolicNtB2_16SymbolicAnalyzer27generate_input_combinations
FNDA:0,_RNvMNtNtCs2jO2QXn3WZ6_16soroban_debugger8analyzer8symbolicNtB2_16SymbolicAnalyzer3new
FNDA:0,_RNvMNtNtCs2jO2QXn3WZ6_16soroban_debugger8analyzer8symbolicNtB2_16SymbolicAnalyzer7analyze
FNF:10
FNH:0
DA:27,0
DA:28,0
DA:29,0
DA:31,0
DA:32,0
DA:33,0
DA:35,0
DA:36,0
DA:37,0
DA:38,0
DA:39,0
DA:40,0
DA:43,0
DA:45,0
DA:46,0
DA:47,0
DA:48,0
DA:50,0
DA:52,0
DA:54,0
DA:55,0
DA:56,0
DA:57,0
DA:58,0
DA:59,0
DA:60,0
DA:61,0
DA:62,0
DA:64,0
DA:65,0
DA:66,0
DA:67,0
DA:68,0
DA:69,0
DA:70,0
DA:71,0
DA:72,0
DA:73,0
DA:76,0
DA:77,0
DA:78,0
DA:79,0
DA:80,0
DA:81,0
DA:82,0
DA:83,0
DA:86,0
DA:89,0
DA:90,0
DA:92,0
DA:93,0
DA:94,0
DA:95,0
DA:96,0
DA:98,0
DA:99,0
DA:100,0
DA:102,0
DA:103,0
DA:104,0
DA:105,0
DA:106,0
DA:107,0
DA:108,0
DA:109,0
DA:110,0
DA:111,0
DA:112,0
DA:113,0
DA:117,0
DA:118,0
DA:119,0
DA:120,0
DA:121,0
DA:122,0
DA:123,0
DA:124,0
DA:127,0
DA:128,0
DA:129,0
DA:130,0
DA:131,0
DA:132,0
DA:133,0
DA:134,0
DA:135,0
DA:136,0
DA:137,0
DA:140,0
DA:144,0
DA:145,0
DA:146,0
DA:147,0
DA:148,0
DA:149,0
DA:150,0
DA:151,0
DA:154,0
DA:155,0
DA:156,0
DA:157,0
DA:158,0
DA:160,0
DA:162,0
DA:164,0
DA:165,0
DA:166,0
DA:167,0
DA:168,0
DA:170,0
DA:171,0
DA:172,0
DA:173,0
DA:174,0
DA:175,0
DA:177,0
DA:178,0
DA:179,0
DA:180,0
DA:181,0
DA:183,0
DA:184,0
DA:187,0
DA:188,0
DA:189,0
DA:191,0
DA:192,0
DA:193,0
DA:194,0
DA:195,0
DA:196,0
DA:198,0
DA:199,0
DA:200,0
DA:201,0
DA:203,0
DA:204,0
DA:205,0
DA:206,0
DA:207,0
DA:208,0
DA:209,0
DA:210,0
DA:213,0
DA:214,0
BRF:0
BRH:0
LF:153
LH:0
end_of_record
SF:/home/admin/Desktop/opensource/soroban-debugger/src/analyzer/upgrade.rs
FN:183,_RNCNvMs2_NtNtCsjDzxbYtLkYp_16soroban_debugger8analyzer7upgradeNtB7_15UpgradeAnalyzer7analyze0Bb_
FN:114,_RNCNvXs0_NtNtCsjDzxbYtLkYp_16soroban_debugger8analyzer7upgradeNtB7_14BreakingChangeNtNtCslH02haMvknO_4core3fmt7Display3fmt0Bb_
FN:115,_RNCNvXs0_NtNtCsjDzxbYtLkYp_16soroban_debugger8analyzer7upgradeNtB7_14BreakingChangeNtNtCslH02haMvknO_4core3fmt7Display3fmts_0Bb_
FN:43,_RNCNvXs_NtNtCsjDzxbYtLkYp_16soroban_debugger8analyzer7upgradeNtB6_17FunctionSignatureNtNtCslH02haMvknO_4core3fmt7Display3fmt0Ba_
FN:44,_RNCNvXs_NtNtCsjDzxbYtLkYp_16soroban_debugger8analyzer7upgradeNtB6_17FunctionSignatureNtNtCslH02haMvknO_4core3fmt7Display3fmts_0Ba_
FN:199,_RNvMs2_NtNtCsjDzxbYtLkYp_16soroban_debugger8analyzer7upgradeNtB5_15UpgradeAnalyzer15diff_signatures
FN:170,_RNvMs2_NtNtCsjDzxbYtLkYp_16soroban_debugger8analyzer7upgradeNtB5_15UpgradeAnalyzer7analyze
FN:19,_RNvXNtNtCsjDzxbYtLkYp_16soroban_debugger8analyzer7upgradeNtB2_8WasmTypeNtNtCslH02haMvknO_4core3fmt7Display3fmt
FN:81,_RNvXs0_NtNtCsjDzxbYtLkYp_16soroban_debugger8analyzer7upgradeNtB5_14BreakingChangeNtNtCslH02haMvknO_4core3fmt7Display3fmt
FN:136,_RNvXs1_NtNtCsjDzxbYtLkYp_16soroban_debugger8analyzer7upgradeNtB5_17NonBreakingChangeNtNtCslH02haMvknO_4core3fmt7Display3fmt
FN:42,_RNvXs_NtNtCsjDzxbYtLkYp_16soroban_debugger8analyzer7upgradeNtB4_17FunctionSignatureNtNtCslH02haMvknO_4core3fmt7Display3fmt
FN:183,_RNCNvMs2_NtNtCs2jO2QXn3WZ6_16soroban_debugger8analyzer7upgradeNtB7_15UpgradeAnalyzer7analyze0Bb_
FN:114,_RNCNvXs0_NtNtCs2jO2QXn3WZ6_16soroban_debugger8analyzer7upgradeNtB7_14BreakingChangeNtNtCslH02haMvknO_4core3fmt7Display3fmt0Bb_
FN:115,_RNCNvXs0_NtNtCs2jO2QXn3WZ6_16soroban_debugger8analyzer7upgradeNtB7_14BreakingChangeNtNtCslH02haMvknO_4core3fmt7Display3fmts_0Bb_
FN:43,_RNCNvXs_NtNtCs2jO2QXn3WZ6_16soroban_debugger8analyzer7upgradeNtB6_17FunctionSignatureNtNtCslH02haMvknO_4core3fmt7Display3fmt0Ba_
FN:44,_RNCNvXs_NtNtCs2jO2QXn3WZ6_16soroban_debugger8analyzer7upgradeNtB6_17FunctionSignatureNtNtCslH02haMvknO_4core3fmt7Display3fmts_0Ba_
FN:170,_RNvMs2_NtNtCs2jO2QXn3WZ6_16soroban_debugger8analyzer7upgradeNtB5_15UpgradeAnalyzer7analyze
FN:19,_RNvXNtNtCs2jO2QXn3WZ6_16soroban_debugger8analyzer7upgradeNtB2_8WasmTypeNtNtCslH02haMvknO_4core3fmt7Display3fmt
FN:81,_RNvXs0_NtNtCs2jO2QXn3WZ6_16soroban_debugger8analyzer7upgradeNtB5_14BreakingChangeNtNtCslH02haMvknO_4core3fmt7Display3fmt
FN:136,_RNvXs1_NtNtCs2jO2QXn3WZ6_16soroban_debugger8analyzer7upgradeNtB5_17NonBreakingChangeNtNtCslH02haMvknO_4core3fmt7Display3fmt
FN:42,_RNvXs_NtNtCs2jO2QXn3WZ6_16soroban_debugger8analyzer7upgradeNtB4_17FunctionSignatureNtNtCslH02haMvknO_4core3fmt7Display3fmt
FN:212,_RNvNtNtNtCs2jO2QXn3WZ6_16soroban_debugger8analyzer7upgrade5tests3sig
FN:221,_RNvNtNtNtCs2jO2QXn3WZ6_16soroban_debugger8analyzer7upgrade5testss_31test_diff_signatures_no_changes
FN:232,_RNvNtNtNtCs2jO2QXn3WZ6_16soroban_debugger8analyzer7upgrade5testss_42test_diff_signatures_placeholder_is_stable
FN:199,_RNvMs2_NtNtCs2jO2QXn3WZ6_16soroban_debugger8analyzer7upgradeNtB5_15UpgradeAnalyzer15diff_signatures
FNDA:0,_RNCNvMs2_NtNtCsjDzxbYtLkYp_16soroban_debugger8analyzer7upgradeNtB7_15UpgradeAnalyzer7analyze0Bb_
FNDA:0,_RNCNvXs0_NtNtCsjDzxbYtLkYp_16soroban_debugger8analyzer7upgradeNtB7_14BreakingChangeNtNtCslH02haMvknO_4core3fmt7Display3fmt0Bb_
FNDA:0,_RNCNvXs0_NtNtCsjDzxbYtLkYp_16soroban_debugger8analyzer7upgradeNtB7_14BreakingChangeNtNtCslH02haMvknO_4core3fmt7Display3fmts_0Bb_
FNDA:0,_RNCNvXs_NtNtCsjDzxbYtLkYp_16soroban_debugger8analyzer7upgradeNtB6_17FunctionSignatureNtNtCslH02haMvknO_4core3fmt7Display3fmt0Ba_
FNDA:0,_RNCNvXs_NtNtCsjDzxbYtLkYp_16soroban_debugger8analyzer7upgradeNtB6_17FunctionSignatureNtNtCslH02haMvknO_4core3fmt7Display3fmts_0Ba_
FNDA:0,_RNvMs2_NtNtCsjDzxbYtLkYp_16soroban_debugger8analyzer7upgradeNtB5_15UpgradeAnalyzer15diff_signatures
FNDA:1,_RNvMs2_NtNtCsjDzxbYtLkYp_16soroban_debugger8analyzer7upgradeNtB5_15UpgradeAnalyzer7analyze
FNDA:0,_RNvXNtNtCsjDzxbYtLkYp_16soroban_debugger8analyzer7upgradeNtB2_8WasmTypeNtNtCslH02haMvknO_4core3fmt7Display3fmt
FNDA:0,_RNvXs0_NtNtCsjDzxbYtLkYp_16soroban_debugger8analyzer7upgradeNtB5_14BreakingChangeNtNtCslH02haMvknO_4core3fmt7Display3fmt
FNDA:0,_RNvXs1_NtNtCsjDzxbYtLkYp_16soroban_debugger8analyzer7upgradeNtB5_17NonBreakingChangeNtNtCslH02haMvknO_4core3fmt7Display3fmt
FNDA:0,_RNvXs_NtNtCsjDzxbYtLkYp_16soroban_debugger8analyzer7upgradeNtB4_17FunctionSignatureNtNtCslH02haMvknO_4core3fmt7Display3fmt
FNDA:0,_RNCNvMs2_NtNtCs2jO2QXn3WZ6_16soroban_debugger8analyzer7upgradeNtB7_15UpgradeAnalyzer7analyze0Bb_
FNDA:0,_RNCNvXs0_NtNtCs2jO2QXn3WZ6_16soroban_debugger8analyzer7upgradeNtB7_14BreakingChangeNtNtCslH02haMvknO_4core3fmt7Display3fmt0Bb_
FNDA:0,_RNCNvXs0_NtNtCs2jO2QXn3WZ6_16soroban_debugger8analyzer7upgradeNtB7_14BreakingChangeNtNtCslH02haMvknO_4core3fmt7Display3fmts_0Bb_
FNDA:0,_RNCNvXs_NtNtCs2jO2QXn3WZ6_16soroban_debugger8analyzer7upgradeNtB6_17FunctionSignatureNtNtCslH02haMvknO_4core3fmt7Display3fmt0Ba_
FNDA:0,_RNCNvXs_NtNtCs2jO2QXn3WZ6_16soroban_debugger8analyzer7upgradeNtB6_17FunctionSignatureNtNtCslH02haMvknO_4core3fmt7Display3fmts_0Ba_
FNDA:0,_RNvMs2_NtNtCs2jO2QXn3WZ6_16soroban_debugger8analyzer7upgradeNtB5_15UpgradeAnalyzer7analyze
FNDA:0,_RNvXNtNtCs2jO2QXn3WZ6_16soroban_debugger8analyzer7upgradeNtB2_8WasmTypeNtNtCslH02haMvknO_4core3fmt7Display3fmt
FNDA:0,_RNvXs0_NtNtCs2jO2QXn3WZ6_16soroban_debugger8analyzer7upgradeNtB5_14BreakingChangeNtNtCslH02haMvknO_4core3fmt7Display3fmt
FNDA:0,_RNvXs1_NtNtCs2jO2QXn3WZ6_16soroban_debugger8analyzer7upgradeNtB5_17NonBreakingChangeNtNtCslH02haMvknO_4core3fmt7Display3fmt
FNDA:0,_RNvXs_NtNtCs2jO2QXn3WZ6_16soroban_debugger8analyzer7upgradeNtB4_17FunctionSignatureNtNtCslH02haMvknO_4core3fmt7Display3fmt
FNDA:3,_RNvNtNtNtCs2jO2QXn3WZ6_16soroban_debugger8analyzer7upgrade5tests3sig
FNDA:1,_RNvNtNtNtCs2jO2QXn3WZ6_16soroban_debugger8analyzer7upgrade5testss_31test_diff_signatures_no_changes
FNDA:1,_RNvNtNtNtCs2jO2QXn3WZ6_16soroban_debugger8analyzer7upgrade5testss_42test_diff_signatures_placeholder_is_stable
FNDA:2,_RNvMs2_NtNtCs2jO2QXn3WZ6_16soroban_debugger8analyzer7upgradeNtB5_15UpgradeAnalyzer15diff_signatures
FNF:14
FNH:5
DA:19,0
DA:20,0
DA:21,0
DA:22,0
DA:23,0
DA:24,0
DA:25,0
DA:26,0
DA:27,0
DA:28,0
DA:30,0
DA:42,0
DA:43,0
DA:44,0
DA:45,0
DA:46,0
DA:49,0
DA:50,0
DA:52,0
DA:81,0
DA:82,0
DA:83,0
DA:84,0
DA:87,0
DA:88,0
DA:89,0
DA:91,0
DA:92,0
DA:98,0
DA:99,0
DA:100,0
DA:101,0
DA:103,0
DA:104,0
DA:110,0
DA:111,0
DA:112,0
DA:114,0
DA:115,0
DA:116,0
DA:117,0
DA:120,0
DA:121,0
DA:125,0
DA:136,0
DA:137,0
DA:138,0
DA:140,0
DA:170,1
DA:171,1
DA:172,1
DA:173,1
DA:174,1
DA:175,1
DA:176,1
DA:177,1
DA:178,0
DA:180,0
DA:181,0
DA:183,0
DA:184,0
DA:186,0
DA:187,0
DA:188,0
DA:189,0
DA:190,0
DA:191,0
DA:192,0
DA:193,0
DA:194,0
DA:195,0
DA:196,1
DA:199,2
DA:200,2
DA:201,2
DA:202,2
DA:204,2
DA:205,2
DA:212,3
DA:213,3
DA:214,3
DA:215,3
DA:216,3
DA:217,3
DA:218,3
DA:221,1
DA:222,1
DA:223,1
DA:224,1
DA:225,1
DA:226,1
DA:227,1
DA:228,1
DA:229,1
DA:232,1
DA:233,1
DA:234,1
DA:236,1
DA:237,1
DA:238,1
DA:239,1
DA:242,1
DA:243,1
DA:244,1
BRF:0
BRH:0
LF:109
LH:41
end_of_record
SF:/home/admin/Desktop/opensource/soroban-debugger/src/batch.rs
FN:300,_RNvNtCsjDzxbYtLkYp_16soroban_debugger5batch18truncate_for_table
FN:77,_RINvMNtCsjDzxbYtLkYp_16soroban_debugger5batchNtB3_13BatchExecutor15load_batch_fileRNtNtCs7dz5ZklJ0d7_3std4path4PathEB5_
FN:78,_RNCINvMNtCsjDzxbYtLkYp_16soroban_debugger5batchNtB5_13BatchExecutor15load_batch_fileRNtNtCs7dz5ZklJ0d7_3std4path4PathE0B7_
FN:86,_RNCINvMNtCsjDzxbYtLkYp_16soroban_debugger5batchNtB5_13BatchExecutor15load_batch_fileRNtNtCs7dz5ZklJ0d7_3std4path4PathEs_0B7_
FN:107,_RNCNvMNtCsjDzxbYtLkYp_16soroban_debugger5batchNtB4_13BatchExecutor13execute_batch0B6_
FN:153,_RNCNvMNtCsjDzxbYtLkYp_16soroban_debugger5batchNtB4_13BatchExecutor9summarizes0_0B6_
FN:152,_RNCNvMNtCsjDzxbYtLkYp_16soroban_debugger5batchNtB4_13BatchExecutor9summarizes_0B6_
FN:103,_RNvMNtCsjDzxbYtLkYp_16soroban_debugger5batchNtB2_13BatchExecutor13execute_batch
FN:114,_RNvMNtCsjDzxbYtLkYp_16soroban_debugger5batchNtB2_13BatchExecutor14execute_single
FN:166,_RNvMNtCsjDzxbYtLkYp_16soroban_debugger5batchNtB2_13BatchExecutor15display_results
FN:69,_RNvMNtCsjDzxbYtLkYp_16soroban_debugger5batchNtB2_13BatchExecutor3new
FN:149,_RNvMNtCsjDzxbYtLkYp_16soroban_debugger5batchNtB2_13BatchExecutor9summarize
FN:292,_RNvNtCsjDzxbYtLkYp_16soroban_debugger5batch18json_value_to_text
FN:272,_RNvXs_NtCsjDzxbYtLkYp_16soroban_debugger5batchNtB4_9BatchItemINtNtCslH02haMvknO_4core7convert4FromNtB4_14BatchItemInputE4from
FN:77,_RINvMNtCsjDzxbYtLkYp_16soroban_debugger5batchNtB3_13BatchExecutor15load_batch_fileRNtNtCs7dz5ZklJ0d7_3std4path7PathBufECsb8rWmVmmMs9_11batch_tests
FN:78,_RNCINvMNtCsjDzxbYtLkYp_16soroban_debugger5batchNtB5_13BatchExecutor15load_batch_fileRNtNtCs7dz5ZklJ0d7_3std4path7PathBufE0Csb8rWmVmmMs9_11batch_tests
FN:86,_RNCINvMNtCsjDzxbYtLkYp_16soroban_debugger5batchNtB5_13BatchExecutor15load_batch_fileRNtNtCs7dz5ZklJ0d7_3std4path7PathBufEs_0Csb8rWmVmmMs9_11batch_tests
FN:77,_RINvMNtCs2jO2QXn3WZ6_16soroban_debugger5batchNtB3_13BatchExecutor15load_batch_filepEB5_
FN:78,_RNCINvMNtCs2jO2QXn3WZ6_16soroban_debugger5batchNtB5_13BatchExecutor15load_batch_filepE0B7_
FN:86,_RNCINvMNtCs2jO2QXn3WZ6_16soroban_debugger5batchNtB5_13BatchExecutor15load_batch_filepEs_0B7_
FN:107,_RNCNvMNtCs2jO2QXn3WZ6_16soroban_debugger5batchNtB4_13BatchExecutor13execute_batch0B6_
FN:103,_RNvMNtCs2jO2QXn3WZ6_16soroban_debugger5batchNtB2_13BatchExecutor13execute_batch
FN:114,_RNvMNtCs2jO2QXn3WZ6_16soroban_debugger5batchNtB2_13BatchExecutor14execute_single
FN:166,_RNvMNtCs2jO2QXn3WZ6_16soroban_debugger5batchNtB2_13BatchExecutor15display_results
FN:69,_RNvMNtCs2jO2QXn3WZ6_16soroban_debugger5batchNtB2_13BatchExecutor3new
FN:292,_RNvNtCs2jO2QXn3WZ6_16soroban_debugger5batch18json_value_to_text
FN:300,_RNvNtCs2jO2QXn3WZ6_16soroban_debugger5batch18truncate_for_table
FN:272,_RNvXs_NtCs2jO2QXn3WZ6_16soroban_debugger5batchNtB4_9BatchItemINtNtCslH02haMvknO_4core7convert4FromNtB4_14BatchItemInputE4from
FN:149,_RNvMNtCs2jO2QXn3WZ6_16soroban_debugger5batchNtB2_13BatchExecutor9summarize
FN:153,_RNCNvMNtCs2jO2QXn3WZ6_16soroban_debugger5batchNtB4_13BatchExecutor9summarizes0_0B6_
FN:152,_RNCNvMNtCs2jO2QXn3WZ6_16soroban_debugger5batchNtB4_13BatchExecutor9summarizes_0B6_
FN:334,_RNvNtNtCs2jO2QXn3WZ6_16soroban_debugger5batch5testss_18test_batch_summary
FN:318,_RNvNtNtCs2jO2QXn3WZ6_16soroban_debugger5batch5testss_31test_batch_item_deserialization
FNDA:0,_RNvNtCsjDzxbYtLkYp_16soroban_debugger5batch18truncate_for_table
FNDA:1,_RINvMNtCsjDzxbYtLkYp_16soroban_debugger5batchNtB3_13BatchExecutor15load_batch_fileRNtNtCs7dz5ZklJ0d7_3std4path4PathEB5_
FNDA:1,_RNCINvMNtCsjDzxbYtLkYp_16soroban_debugger5batchNtB5_13BatchExecutor15load_batch_fileRNtNtCs7dz5ZklJ0d7_3std4path4PathE0B7_
FNDA:0,_RNCINvMNtCsjDzxbYtLkYp_16soroban_debugger5batchNtB5_13BatchExecutor15load_batch_fileRNtNtCs7dz5ZklJ0d7_3std4path4PathEs_0B7_
FNDA:0,_RNCNvMNtCsjDzxbYtLkYp_16soroban_debugger5batchNtB4_13BatchExecutor13execute_batch0B6_
FNDA:3,_RNCNvMNtCsjDzxbYtLkYp_16soroban_debugger5batchNtB4_13BatchExecutor9summarizes0_0B6_
FNDA:3,_RNCNvMNtCsjDzxbYtLkYp_16soroban_debugger5batchNtB4_13BatchExecutor9summarizes_0B6_
FNDA:0,_RNvMNtCsjDzxbYtLkYp_16soroban_debugger5batchNtB2_13BatchExecutor13execute_batch
FNDA:0,_RNvMNtCsjDzxbYtLkYp_16soroban_debugger5batchNtB2_13BatchExecutor14execute_single
FNDA:0,_RNvMNtCsjDzxbYtLkYp_16soroban_debugger5batchNtB2_13BatchExecutor15display_results
FNDA:0,_RNvMNtCsjDzxbYtLkYp_16soroban_debugger5batchNtB2_13BatchExecutor3new
FNDA:1,_RNvMNtCsjDzxbYtLkYp_16soroban_debugger5batchNtB2_13BatchExecutor9summarize
FNDA:3,_RNvNtCsjDzxbYtLkYp_16soroban_debugger5batch18json_value_to_text
FNDA:2,_RNvXs_NtCsjDzxbYtLkYp_16soroban_debugger5batchNtB4_9BatchItemINtNtCslH02haMvknO_4core7convert4FromNtB4_14BatchItemInputE4from
FNDA:3,_RINvMNtCsjDzxbYtLkYp_16soroban_debugger5batchNtB3_13BatchExecutor15load_batch_fileRNtNtCs7dz5ZklJ0d7_3std4path7PathBufECsb8rWmVmmMs9_11batch_tests
FNDA:0,_RNCINvMNtCsjDzxbYtLkYp_16soroban_debugger5batchNtB5_13BatchExecutor15load_batch_fileRNtNtCs7dz5ZklJ0d7_3std4path7PathBufE0Csb8rWmVmmMs9_11batch_tests
FNDA:2,_RNCINvMNtCsjDzxbYtLkYp_16soroban_debugger5batchNtB5_13BatchExecutor15load_batch_fileRNtNtCs7dz5ZklJ0d7_3std4path7PathBufEs_0Csb8rWmVmmMs9_11batch_tests
FNDA:0,_RINvMNtCs2jO2QXn3WZ6_16soroban_debugger5batchNtB3_13BatchExecutor15load_batch_filepEB5_
FNDA:0,_RNCINvMNtCs2jO2QXn3WZ6_16soroban_debugger5batchNtB5_13BatchExecutor15load_batch_filepE0B7_
FNDA:0,_RNCINvMNtCs2jO2QXn3WZ6_16soroban_debugger5batchNtB5_13BatchExecutor15load_batch_filepEs_0B7_
FNDA:0,_RNCNvMNtCs2jO2QXn3WZ6_16soroban_debugger5batchNtB4_13BatchExecutor13execute_batch0B6_
FNDA:0,_RNvMNtCs2jO2QXn3WZ6_16soroban_debugger5batchNtB2_13BatchExecutor13execute_batch
FNDA:0,_RNvMNtCs2jO2QXn3WZ6_16soroban_debugger5batchNtB2_13BatchExecutor14execute_single
FNDA:0,_RNvMNtCs2jO2QXn3WZ6_16soroban_debugger5batchNtB2_13BatchExecutor15display_results
FNDA:0,_RNvMNtCs2jO2QXn3WZ6_16soroban_debugger5batchNtB2_13BatchExecutor3new
FNDA:0,_RNvNtCs2jO2QXn3WZ6_16soroban_debugger5batch18json_value_to_text
FNDA:0,_RNvNtCs2jO2QXn3WZ6_16soroban_debugger5batch18truncate_for_table
FNDA:0,_RNvXs_NtCs2jO2QXn3WZ6_16soroban_debugger5batchNtB4_9BatchItemINtNtCslH02haMvknO_4core7convert4FromNtB4_14BatchItemInputE4from
FNDA:1,_RNvMNtCs2jO2QXn3WZ6_16soroban_debugger5batchNtB2_13BatchExecutor9summarize
FNDA:2,_RNCNvMNtCs2jO2QXn3WZ6_16soroban_debugger5batchNtB4_13BatchExecutor9summarizes0_0B6_
FNDA:2,_RNCNvMNtCs2jO2QXn3WZ6_16soroban_debugger5batchNtB4_13BatchExecutor9summarizes_0B6_
FNDA:1,_RNvNtNtCs2jO2QXn3WZ6_16soroban_debugger5batch5testss_18test_batch_summary
FNDA:1,_RNvNtNtCs2jO2QXn3WZ6_16soroban_debugger5batch5testss_31test_batch_item_deserialization
FNF:16
FNH:10
DA:69,0
DA:70,0
DA:71,0
DA:72,0
DA:73,0
DA:74,0
DA:77,4
DA:78,4
DA:79,1
DA:80,1
DA:81,1
DA:82,1
DA:83,1
DA:84,1
DA:86,3
DA:87,2
DA:88,2
DA:89,2
DA:90,2
DA:91,2
DA:92,2
DA:94,1
DA:95,1
DA:96,1
DA:97,1
DA:99,1
DA:100,4
DA:103,0
DA:104,0
DA:105,0
DA:106,0
DA:107,0
DA:108,0
DA:110,0
DA:111,0
DA:114,0
DA:115,0
DA:117,0
DA:119,0
DA:120,0
DA:121,0
DA:122,0
DA:124,0
DA:127,0
DA:129,0
DA:130,0
DA:132,0
DA:135,0
DA:136,0
DA:137,0
DA:138,0
DA:139,0
DA:140,0
DA:141,0
DA:142,0
DA:143,0
DA:144,0
DA:145,0
DA:146,0
DA:149,2
DA:150,2
DA:151,2
DA:152,5
DA:153,5
DA:154,2
DA:156,2
DA:157,2
DA:158,2
DA:159,2
DA:160,2
DA:161,2
DA:162,2
DA:163,2
DA:166,0
DA:169,0
DA:170,0
DA:171,0
DA:172,0
DA:174,0
DA:175,0
DA:176,0
DA:177,0
DA:178,0
DA:180,0
DA:183,0
DA:184,0
DA:185,0
DA:186,0
DA:187,0
DA:189,0
DA:190,0
DA:191,0
DA:194,0
DA:195,0
DA:196,0
DA:197,0
DA:199,0
DA:200,0
DA:201,0
DA:202,0
DA:204,0
DA:205,0
DA:206,0
DA:207,0
DA:208,0
DA:209,0
DA:210,0
DA:211,0
DA:212,0
DA:213,0
DA:214,0
DA:215,0
DA:216,0
DA:217,0
DA:218,0
DA:219,0
DA:221,0
DA:222,0
DA:223,0
DA:227,0
DA:228,0
DA:229,0
DA:230,0
DA:231,0
DA:232,0
DA:233,0
DA:235,0
DA:236,0
DA:238,0
DA:240,0
DA:243,0
DA:244,0
DA:245,0
DA:246,0
DA:247,0
DA:248,0
DA:249,0
DA:250,0
DA:251,0
DA:253,0
DA:254,0
DA:255,0
DA:256,0
DA:257,0
DA:258,0
DA:259,0
DA:260,0
DA:261,0
DA:263,0
DA:264,0
DA:265,0
DA:267,0
DA:268,0
DA:272,2
DA:273,2
DA:274,0
DA:275,0
DA:276,0
DA:277,0
DA:278,0
DA:280,2
DA:281,2
DA:282,2
DA:283,2
DA:284,2
DA:285,2
DA:286,2
DA:287,2
DA:289,2
DA:292,3
DA:293,3
DA:294,3
DA:295,0
DA:297,3
DA:300,0
DA:301,0
DA:302,0
DA:303,0
DA:305,0
DA:306,0
DA:307,0
DA:308,0
DA:309,0
DA:310,0
DA:311,0
DA:318,1
DA:319,1
DA:320,1
DA:321,1
DA:322,1
DA:324,1
DA:325,1
DA:326,1
DA:327,1
DA:328,1
DA:329,1
DA:330,1
DA:331,1
DA:334,1
DA:335,1
DA:336,1
DA:337,1
DA:338,1
DA:339,1
DA:340,1
DA:341,1
DA:342,1
DA:343,1
DA:344,1
DA:345,1
DA:346,1
DA:347,1
DA:348,1
DA:349,1
DA:350,1
DA:351,1
DA:352,1
DA:353,1
DA:354,1
DA:355,1
DA:356,1
DA:357,1
DA:360,1
DA:361,1
DA:362,1
DA:363,1
DA:364,1
DA:365,1
DA:366,1
BRF:0
BRH:0
LF:236
LH:99
end_of_record
SF:/home/admin/Desktop/opensource/soroban-debugger/src/cli/args.rs
FN:346,_RNCNvMs0_NtNtCsjDzxbYtLkYp_16soroban_debugger3cli4argsNtB7_7RunArgs14is_json_output0Bb_
FN:20,_RNCNvNtNtCsjDzxbYtLkYp_16soroban_debugger3cli4args23get_deprecation_warning0B7_
FN:21,_RNCNvNtNtCsjDzxbYtLkYp_16soroban_debugger3cli4args23get_deprecation_warnings_0B7_
FN:53,_RNvMNtNtCsjDzxbYtLkYp_16soroban_debugger3cli4argsNtB2_9Verbosity12to_log_level
FN:350,_RNvMs0_NtNtCsjDzxbYtLkYp_16soroban_debugger3cli4argsNtB5_7RunArgs12merge_config
FN:340,_RNvMs0_NtNtCsjDzxbYtLkYp_16soroban_debugger3cli4argsNtB5_7RunArgs14is_json_output
FN:403,_RNvMs1_NtNtCsjDzxbYtLkYp_16soroban_debugger3cli4argsNtB5_15InteractiveArgs12merge_config
FN:437,_RNvMs2_NtNtCsjDzxbYtLkYp_16soroban_debugger3cli4argsNtB5_8ReplArgs12merge_config
FN:104,_RNvMs_NtNtCsjDzxbYtLkYp_16soroban_debugger3cli4argsNtB4_3Cli9verbosity
FN:17,_RNvNtNtCsjDzxbYtLkYp_16soroban_debugger3cli4args23get_deprecation_warning
FN:20,_RNCNvNtNtCs2jO2QXn3WZ6_16soroban_debugger3cli4args23get_deprecation_warning0B7_
FN:21,_RNCNvNtNtCs2jO2QXn3WZ6_16soroban_debugger3cli4args23get_deprecation_warnings_0B7_
FN:53,_RNvMNtNtCs2jO2QXn3WZ6_16soroban_debugger3cli4argsNtB2_9Verbosity12to_log_level
FN:350,_RNvMs0_NtNtCs2jO2QXn3WZ6_16soroban_debugger3cli4argsNtB5_7RunArgs12merge_config
FN:403,_RNvMs1_NtNtCs2jO2QXn3WZ6_16soroban_debugger3cli4argsNtB5_15InteractiveArgs12merge_config
FN:437,_RNvMs2_NtNtCs2jO2QXn3WZ6_16soroban_debugger3cli4argsNtB5_8ReplArgs12merge_config
FN:104,_RNvMs_NtNtCs2jO2QXn3WZ6_16soroban_debugger3cli4argsNtB4_3Cli9verbosity
FN:17,_RNvNtNtCs2jO2QXn3WZ6_16soroban_debugger3cli4args23get_deprecation_warning
FN:346,_RNCNvMs0_NtNtCs2jO2QXn3WZ6_16soroban_debugger3cli4argsNtB7_7RunArgs14is_json_output0Bb_
FN:340,_RNvMs0_NtNtCs2jO2QXn3WZ6_16soroban_debugger3cli4argsNtB5_7RunArgs14is_json_output
FN:544,_RNvNtNtNtCs2jO2QXn3WZ6_16soroban_debugger3cli4args5testss_29run_output_defaults_to_pretty
FN:563,_RNvNtNtNtCs2jO2QXn3WZ6_16soroban_debugger3cli4args5testss_33run_output_json_enables_json_mode
FN:584,_RNvNtNtNtCs2jO2QXn3WZ6_16soroban_debugger3cli4args5testss_40legacy_json_flag_still_enables_json_mode
FN:603,_RNvNtNtNtCs2jO2QXn3WZ6_16soroban_debugger3cli4args5testss_42legacy_format_json_still_enables_json_mode
FNDA:0,_RNCNvMs0_NtNtCsjDzxbYtLkYp_16soroban_debugger3cli4argsNtB7_7RunArgs14is_json_output0Bb_
FNDA:0,_RNCNvNtNtCsjDzxbYtLkYp_16soroban_debugger3cli4args23get_deprecation_warning0B7_
FNDA:0,_RNCNvNtNtCsjDzxbYtLkYp_16soroban_debugger3cli4args23get_deprecation_warnings_0B7_
FNDA:66,_RNvMNtNtCsjDzxbYtLkYp_16soroban_debugger3cli4argsNtB2_9Verbosity12to_log_level
FNDA:35,_RNvMs0_NtNtCsjDzxbYtLkYp_16soroban_debugger3cli4argsNtB5_7RunArgs12merge_config
FNDA:0,_RNvMs0_NtNtCsjDzxbYtLkYp_16soroban_debugger3cli4argsNtB5_7RunArgs14is_json_output
FNDA:0,_RNvMs1_NtNtCsjDzxbYtLkYp_16soroban_debugger3cli4argsNtB5_15InteractiveArgs12merge_config
FNDA:0,_RNvMs2_NtNtCsjDzxbYtLkYp_16soroban_debugger3cli4argsNtB5_8ReplArgs12merge_config
FNDA:66,_RNvMs_NtNtCsjDzxbYtLkYp_16soroban_debugger3cli4argsNtB4_3Cli9verbosity
FNDA:0,_RNvNtNtCsjDzxbYtLkYp_16soroban_debugger3cli4args23get_deprecation_warning
FNDA:0,_RNCNvNtNtCs2jO2QXn3WZ6_16soroban_debugger3cli4args23get_deprecation_warning0B7_
FNDA:0,_RNCNvNtNtCs2jO2QXn3WZ6_16soroban_debugger3cli4args23get_deprecation_warnings_0B7_
FNDA:0,_RNvMNtNtCs2jO2QXn3WZ6_16soroban_debugger3cli4argsNtB2_9Verbosity12to_log_level
FNDA:0,_RNvMs0_NtNtCs2jO2QXn3WZ6_16soroban_debugger3cli4argsNtB5_7RunArgs12merge_config
FNDA:0,_RNvMs1_NtNtCs2jO2QXn3WZ6_16soroban_debugger3cli4argsNtB5_15InteractiveArgs12merge_config
FNDA:0,_RNvMs2_NtNtCs2jO2QXn3WZ6_16soroban_debugger3cli4argsNtB5_8ReplArgs12merge_config
FNDA:0,_RNvMs_NtNtCs2jO2QXn3WZ6_16soroban_debugger3cli4argsNtB4_3Cli9verbosity
FNDA:0,_RNvNtNtCs2jO2QXn3WZ6_16soroban_debugger3cli4args23get_deprecation_warning
FNDA:1,_RNCNvMs0_NtNtCs2jO2QXn3WZ6_16soroban_debugger3cli4argsNtB7_7RunArgs14is_json_output0Bb_
FNDA:4,_RNvMs0_NtNtCs2jO2QXn3WZ6_16soroban_debugger3cli4argsNtB5_7RunArgs14is_json_output
FNDA:1,_RNvNtNtNtCs2jO2QXn3WZ6_16soroban_debugger3cli4args5testss_29run_output_defaults_to_pretty
FNDA:1,_RNvNtNtNtCs2jO2QXn3WZ6_16soroban_debugger3cli4args5testss_33run_output_json_enables_json_mode
FNDA:1,_RNvNtNtNtCs2jO2QXn3WZ6_16soroban_debugger3cli4args5testss_40legacy_json_flag_still_enables_json_mode
FNDA:1,_RNvNtNtNtCs2jO2QXn3WZ6_16soroban_debugger3cli4args5testss_42legacy_format_json_still_enables_json_mode
FNF:14
FNH:9
DA:17,0
DA:18,0
DA:19,0
DA:20,0
DA:21,0
DA:22,0
DA:26,0
DA:27,0
DA:53,66
DA:54,66
DA:55,5
DA:56,58
DA:57,3
DA:59,66
DA:104,66
DA:105,66
DA:106,5
DA:107,61
DA:108,3
DA:110,58
DA:112,66
DA:340,4
DA:341,4
DA:342,3
DA:343,2
DA:344,2
DA:345,2
DA:346,2
DA:347,2
DA:348,4
DA:350,35
DA:352,35
DA:353,0
DA:354,35
DA:357,35
DA:358,34
DA:359,0
DA:360,34
DA:361,1
DA:364,35
DA:365,32
DA:366,32
DA:369,35
DA:370,34
DA:371,0
DA:372,0
DA:373,0
DA:374,34
DA:375,1
DA:376,35
DA:403,0
DA:405,0
DA:437,0
DA:439,0
DA:544,1
DA:545,1
DA:546,1
DA:547,1
DA:548,1
DA:549,1
DA:550,1
DA:551,1
DA:552,1
DA:554,1
DA:555,0
DA:558,1
DA:559,1
DA:560,1
DA:563,1
DA:564,1
DA:565,1
DA:566,1
DA:567,1
DA:568,1
DA:569,1
DA:570,1
DA:571,1
DA:572,1
DA:573,1
DA:575,1
DA:576,0
DA:579,1
DA:580,1
DA:581,1
DA:584,1
DA:585,1
DA:586,1
DA:587,1
DA:588,1
DA:589,1
DA:590,1
DA:591,1
DA:592,1
DA:593,1
DA:595,1
DA:596,0
DA:599,1
DA:600,1
DA:603,1
DA:604,1
DA:605,1
DA:606,1
DA:607,1
DA:608,1
DA:609,1
DA:610,1
DA:611,1
DA:612,1
DA:613,1
DA:615,1
DA:616,0
DA:619,1
DA:620,1
BRF:0
BRH:0
LF:116
LH:93
end_of_record
SF:/home/admin/Desktop/opensource/soroban-debugger/src/cli/commands.rs
FN:751,_RNCNvNtNtCsjDzxbYtLkYp_16soroban_debugger3cli8commands26display_instruction_counts0B7_
FN:770,_RNCNvNtNtCsjDzxbYtLkYp_16soroban_debugger3cli8commands26display_instruction_countss0_0B7_
FN:764,_RNCNvNtNtCsjDzxbYtLkYp_16soroban_debugger3cli8commands26display_instruction_countss_0B7_
FN:731,_RNvNtNtCsjDzxbYtLkYp_16soroban_debugger3cli8commands22get_instruction_counts
FN:740,_RNvNtNtCsjDzxbYtLkYp_16soroban_debugger3cli8commands26display_instruction_counts
FN:21,_RINvNtNtCsjDzxbYtLkYp_16soroban_debugger3cli8commands10print_infoNtNtCshQKOepsJxml_5alloc6string6StringEB6_
FN:21,_RINvNtNtCsjDzxbYtLkYp_16soroban_debugger3cli8commands10print_infoRNtNtCshQKOepsJxml_5alloc6string6StringEB6_
FN:21,_RINvNtNtCsjDzxbYtLkYp_16soroban_debugger3cli8commands10print_infoReEB6_
FN:40,_RINvNtNtCsjDzxbYtLkYp_16soroban_debugger3cli8commands12print_resultNtNtCshQKOepsJxml_5alloc6string6StringEB6_
FN:27,_RINvNtNtCsjDzxbYtLkYp_16soroban_debugger3cli8commands13print_successNtNtCshQKOepsJxml_5alloc6string6StringEB6_
FN:27,_RINvNtNtCsjDzxbYtLkYp_16soroban_debugger3cli8commands13print_successReEB6_
FN:45,_RINvNtNtCsjDzxbYtLkYp_16soroban_debugger3cli8commands13print_verboseNtNtCshQKOepsJxml_5alloc6string6StringEB6_
FN:45,_RINvNtNtCsjDzxbYtLkYp_16soroban_debugger3cli8commands13print_verboseReEB6_
FN:33,_RINvNtNtCsjDzxbYtLkYp_16soroban_debugger3cli8commands13print_warningNtNtCshQKOepsJxml_5alloc6string6StringEB6_
FN:33,_RINvNtNtCsjDzxbYtLkYp_16soroban_debugger3cli8commands13print_warningReEB6_
FN:987,_RNCNvNtNtCsjDzxbYtLkYp_16soroban_debugger3cli8commands10parse_args0B7_
FN:698,_RNCNvNtNtCsjDzxbYtLkYp_16soroban_debugger3cli8commands11run_dry_run0B7_
FN:1011,_RNCNvNtNtCsjDzxbYtLkYp_16soroban_debugger3cli8commands13parse_storage0B7_
FN:805,_RNCNvNtNtCsjDzxbYtLkYp_16soroban_debugger3cli8commands13upgrade_check0B7_
FN:826,_RNCNvNtNtCsjDzxbYtLkYp_16soroban_debugger3cli8commands13upgrade_checks0_0B7_
FN:832,_RNCNvNtNtCsjDzxbYtLkYp_16soroban_debugger3cli8commands13upgrade_checks1_0B7_
FN:809,_RNCNvNtNtCsjDzxbYtLkYp_16soroban_debugger3cli8commands13upgrade_checks_0B7_
FN:856,_RNCNvNtNtCsjDzxbYtLkYp_16soroban_debugger3cli8commands15run_test_inputs0B7_
FN:964,_RNCNvNtNtCsjDzxbYtLkYp_16soroban_debugger3cli8commands18format_text_report0B7_
FN:969,_RNCNvNtNtCsjDzxbYtLkYp_16soroban_debugger3cli8commands18format_text_reports_0B7_
FN:630,_RNCNvNtNtCsjDzxbYtLkYp_16soroban_debugger3cli8commands21build_execution_trace0B7_
FN:190,_RNCNvNtNtCsjDzxbYtLkYp_16soroban_debugger3cli8commands3run0B7_
FN:412,_RNCNvNtNtCsjDzxbYtLkYp_16soroban_debugger3cli8commands3runs0_0B7_
FN:449,_RNCNvNtNtCsjDzxbYtLkYp_16soroban_debugger3cli8commands3runs1_0B7_
FN:531,_RNCNvNtNtCsjDzxbYtLkYp_16soroban_debugger3cli8commands3runs2_0B7_
FN:550,_RNCNvNtNtCsjDzxbYtLkYp_16soroban_debugger3cli8commands3runs3_0B7_
FN:567,_RNCNvNtNtCsjDzxbYtLkYp_16soroban_debugger3cli8commands3runs4_0B7_
FN:579,_RNCNvNtNtCsjDzxbYtLkYp_16soroban_debugger3cli8commands3runs5_0B7_
FN:582,_RNCNvNtNtCsjDzxbYtLkYp_16soroban_debugger3cli8commands3runs6_0B7_
FN:251,_RNCNvNtNtCsjDzxbYtLkYp_16soroban_debugger3cli8commands3runs_0B7_
FN:1466,_RNCNvNtNtCsjDzxbYtLkYp_16soroban_debugger3cli8commands4repl0B7_
FN:1267,_RNCNvNtNtCsjDzxbYtLkYp_16soroban_debugger3cli8commands6replay0B7_
FN:1303,_RNCNvNtNtCsjDzxbYtLkYp_16soroban_debugger3cli8commands6replays0_0B7_
FN:1336,_RNCNvNtNtCsjDzxbYtLkYp_16soroban_debugger3cli8commands6replays1_0B7_
FN:1357,_RNCNvNtNtCsjDzxbYtLkYp_16soroban_debugger3cli8commands6replays2_0B7_
FN:1280,_RNCNvNtNtCsjDzxbYtLkYp_16soroban_debugger3cli8commands6replays_0B7_
FN:1235,_RNCNvNtNtCsjDzxbYtLkYp_16soroban_debugger3cli8commands7compare0B7_
FN:1421,_RNCNvNtNtCsjDzxbYtLkYp_16soroban_debugger3cli8commands7inspect0B7_
FN:1435,_RNCNvNtNtCsjDzxbYtLkYp_16soroban_debugger3cli8commands7inspects_0B7_
FN:1144,_RNCNvNtNtCsjDzxbYtLkYp_16soroban_debugger3cli8commands7profile0B7_
FN:1205,_RNCNvNtNtCsjDzxbYtLkYp_16soroban_debugger3cli8commands7profiles_0B7_
FN:1029,_RNCNvNtNtCsjDzxbYtLkYp_16soroban_debugger3cli8commands8optimize0B7_
FN:1118,_RNCNvNtNtCsjDzxbYtLkYp_16soroban_debugger3cli8commands8optimizes_0B7_
FN:100,_RNCNvNtNtCsjDzxbYtLkYp_16soroban_debugger3cli8commands9run_batch0B7_
FN:150,_RNCNvNtNtCsjDzxbYtLkYp_16soroban_debugger3cli8commands9run_batchs0_0B7_
FN:142,_RNCNvNtNtCsjDzxbYtLkYp_16soroban_debugger3cli8commands9run_batchs_0B7_
FN:986,_RNvNtNtCsjDzxbYtLkYp_16soroban_debugger3cli8commands10parse_args
FN:1405,_RNvNtNtCsjDzxbYtLkYp_16soroban_debugger3cli8commands11interactive
FN:880,_RNvNtNtCsjDzxbYtLkYp_16soroban_debugger3cli8commands11invoke_wasm
FN:694,_RNvNtNtCsjDzxbYtLkYp_16soroban_debugger3cli8commands11run_dry_run
FN:1010,_RNvNtNtCsjDzxbYtLkYp_16soroban_debugger3cli8commands13parse_storage
FN:802,_RNvNtNtCsjDzxbYtLkYp_16soroban_debugger3cli8commands13upgrade_check
FN:62,_RNvNtNtCsjDzxbYtLkYp_16soroban_debugger3cli8commands15parse_step_mode
FN:849,_RNvNtNtCsjDzxbYtLkYp_16soroban_debugger3cli8commands15run_test_inputs
FN:1473,_RNvNtNtCsjDzxbYtLkYp_16soroban_debugger3cli8commands17show_budget_trend
FN:899,_RNvNtNtCsjDzxbYtLkYp_16soroban_debugger3cli8commands18format_text_report
FN:609,_RNvNtNtCsjDzxbYtLkYp_16soroban_debugger3cli8commands21build_execution_trace
FN:73,_RNvNtNtCsjDzxbYtLkYp_16soroban_debugger3cli8commands21display_mock_call_log
FN:52,_RNvNtNtCsjDzxbYtLkYp_16soroban_debugger3cli8commands24run_instruction_stepping
FN:172,_RNvNtNtCsjDzxbYtLkYp_16soroban_debugger3cli8commands3run
FN:1412,_RNvNtNtCsjDzxbYtLkYp_16soroban_debugger3cli8commands3tui
FN:1466,_RNvNtNtCsjDzxbYtLkYp_16soroban_debugger3cli8commands4repl
FN:1399,_RNvNtNtCsjDzxbYtLkYp_16soroban_debugger3cli8commands6remote
FN:1250,_RNvNtNtCsjDzxbYtLkYp_16soroban_debugger3cli8commands6replay
FN:1389,_RNvNtNtCsjDzxbYtLkYp_16soroban_debugger3cli8commands6server
FN:1452,_RNvNtNtCsjDzxbYtLkYp_16soroban_debugger3cli8commands7analyze
FN:1223,_RNvNtNtCsjDzxbYtLkYp_16soroban_debugger3cli8commands7compare
FN:1419,_RNvNtNtCsjDzxbYtLkYp_16soroban_debugger3cli8commands7inspect
FN:1137,_RNvNtNtCsjDzxbYtLkYp_16soroban_debugger3cli8commands7profile
FN:1021,_RNvNtNtCsjDzxbYtLkYp_16soroban_debugger3cli8commands8optimize
FN:1459,_RNvNtNtCsjDzxbYtLkYp_16soroban_debugger3cli8commands8scenario
FN:1445,_RNvNtNtCsjDzxbYtLkYp_16soroban_debugger3cli8commands8symbolic
FN:96,_RNvNtNtCsjDzxbYtLkYp_16soroban_debugger3cli8commands9run_batch
FN:40,_RINvNtNtCs2jO2QXn3WZ6_16soroban_debugger3cli8commands12print_resultpEB6_
FN:27,_RINvNtNtCs2jO2QXn3WZ6_16soroban_debugger3cli8commands13print_successpEB6_
FN:45,_RINvNtNtCs2jO2QXn3WZ6_16soroban_debugger3cli8commands13print_verbosepEB6_
FN:33,_RINvNtNtCs2jO2QXn3WZ6_16soroban_debugger3cli8commands13print_warningpEB6_
FN:987,_RNCNvNtNtCs2jO2QXn3WZ6_16soroban_debugger3cli8commands10parse_args0B7_
FN:698,_RNCNvNtNtCs2jO2QXn3WZ6_16soroban_debugger3cli8commands11run_dry_run0B7_
FN:1011,_RNCNvNtNtCs2jO2QXn3WZ6_16soroban_debugger3cli8commands13parse_storage0B7_
FN:805,_RNCNvNtNtCs2jO2QXn3WZ6_16soroban_debugger3cli8commands13upgrade_check0B7_
FN:826,_RNCNvNtNtCs2jO2QXn3WZ6_16soroban_debugger3cli8commands13upgrade_checks0_0B7_
FN:832,_RNCNvNtNtCs2jO2QXn3WZ6_16soroban_debugger3cli8commands13upgrade_checks1_0B7_
FN:809,_RNCNvNtNtCs2jO2QXn3WZ6_16soroban_debugger3cli8commands13upgrade_checks_0B7_
FN:856,_RNCNvNtNtCs2jO2QXn3WZ6_16soroban_debugger3cli8commands15run_test_inputs0B7_
FN:964,_RNCNvNtNtCs2jO2QXn3WZ6_16soroban_debugger3cli8commands18format_text_report0B7_
FN:969,_RNCNvNtNtCs2jO2QXn3WZ6_16soroban_debugger3cli8commands18format_text_reports_0B7_
FN:630,_RNCNvNtNtCs2jO2QXn3WZ6_16soroban_debugger3cli8commands21build_execution_trace0B7_
FN:751,_RNCNvNtNtCs2jO2QXn3WZ6_16soroban_debugger3cli8commands26display_instruction_counts0B7_
FN:770,_RNCNvNtNtCs2jO2QXn3WZ6_16soroban_debugger3cli8commands26display_instruction_countss0_0B7_
FN:764,_RNCNvNtNtCs2jO2QXn3WZ6_16soroban_debugger3cli8commands26display_instruction_countss_0B7_
FN:190,_RNCNvNtNtCs2jO2QXn3WZ6_16soroban_debugger3cli8commands3run0B7_
FN:412,_RNCNvNtNtCs2jO2QXn3WZ6_16soroban_debugger3cli8commands3runs0_0B7_
FN:449,_RNCNvNtNtCs2jO2QXn3WZ6_16soroban_debugger3cli8commands3runs1_0B7_
FN:531,_RNCNvNtNtCs2jO2QXn3WZ6_16soroban_debugger3cli8commands3runs2_0B7_
FN:550,_RNCNvNtNtCs2jO2QXn3WZ6_16soroban_debugger3cli8commands3runs3_0B7_
FN:567,_RNCNvNtNtCs2jO2QXn3WZ6_16soroban_debugger3cli8commands3runs4_0B7_
FN:579,_RNCNvNtNtCs2jO2QXn3WZ6_16soroban_debugger3cli8commands3runs5_0B7_
FN:582,_RNCNvNtNtCs2jO2QXn3WZ6_16soroban_debugger3cli8commands3runs6_0B7_
FN:251,_RNCNvNtNtCs2jO2QXn3WZ6_16soroban_debugger3cli8commands3runs_0B7_
FN:1267,_RNCNvNtNtCs2jO2QXn3WZ6_16soroban_debugger3cli8commands6replay0B7_
FN:1303,_RNCNvNtNtCs2jO2QXn3WZ6_16soroban_debugger3cli8commands6replays0_0B7_
FN:1336,_RNCNvNtNtCs2jO2QXn3WZ6_16soroban_debugger3cli8commands6replays1_0B7_
FN:1357,_RNCNvNtNtCs2jO2QXn3WZ6_16soroban_debugger3cli8commands6replays2_0B7_
FN:1280,_RNCNvNtNtCs2jO2QXn3WZ6_16soroban_debugger3cli8commands6replays_0B7_
FN:1235,_RNCNvNtNtCs2jO2QXn3WZ6_16soroban_debugger3cli8commands7compare0B7_
FN:1421,_RNCNvNtNtCs2jO2QXn3WZ6_16soroban_debugger3cli8commands7inspect0B7_
FN:1435,_RNCNvNtNtCs2jO2QXn3WZ6_16soroban_debugger3cli8commands7inspects_0B7_
FN:1144,_RNCNvNtNtCs2jO2QXn3WZ6_16soroban_debugger3cli8commands7profile0B7_
FN:1205,_RNCNvNtNtCs2jO2QXn3WZ6_16soroban_debugger3cli8commands7profiles_0B7_
FN:1029,_RNCNvNtNtCs2jO2QXn3WZ6_16soroban_debugger3cli8commands8optimize0B7_
FN:1118,_RNCNvNtNtCs2jO2QXn3WZ6_16soroban_debugger3cli8commands8optimizes_0B7_
FN:100,_RNCNvNtNtCs2jO2QXn3WZ6_16soroban_debugger3cli8commands9run_batch0B7_
FN:150,_RNCNvNtNtCs2jO2QXn3WZ6_16soroban_debugger3cli8commands9run_batchs0_0B7_
FN:142,_RNCNvNtNtCs2jO2QXn3WZ6_16soroban_debugger3cli8commands9run_batchs_0B7_
FN:986,_RNvNtNtCs2jO2QXn3WZ6_16soroban_debugger3cli8commands10parse_args
FN:1405,_RNvNtNtCs2jO2QXn3WZ6_16soroban_debugger3cli8commands11interactive
FN:880,_RNvNtNtCs2jO2QXn3WZ6_16soroban_debugger3cli8commands11invoke_wasm
FN:694,_RNvNtNtCs2jO2QXn3WZ6_16soroban_debugger3cli8commands11run_dry_run
FN:1010,_RNvNtNtCs2jO2QXn3WZ6_16soroban_debugger3cli8commands13parse_storage
FN:802,_RNvNtNtCs2jO2QXn3WZ6_16soroban_debugger3cli8commands13upgrade_check
FN:62,_RNvNtNtCs2jO2QXn3WZ6_16soroban_debugger3cli8commands15parse_step_mode
FN:849,_RNvNtNtCs2jO2QXn3WZ6_16soroban_debugger3cli8commands15run_test_inputs
FN:1473,_RNvNtNtCs2jO2QXn3WZ6_16soroban_debugger3cli8commands17show_budget_trend
FN:899,_RNvNtNtCs2jO2QXn3WZ6_16soroban_debugger3cli8commands18format_text_report
FN:609,_RNvNtNtCs2jO2QXn3WZ6_16soroban_debugger3cli8commands21build_execution_trace
FN:73,_RNvNtNtCs2jO2QXn3WZ6_16soroban_debugger3cli8commands21display_mock_call_log
FN:731,_RNvNtNtCs2jO2QXn3WZ6_16soroban_debugger3cli8commands22get_instruction_counts
FN:52,_RNvNtNtCs2jO2QXn3WZ6_16soroban_debugger3cli8commands24run_instruction_stepping
FN:740,_RNvNtNtCs2jO2QXn3WZ6_16soroban_debugger3cli8commands26display_instruction_counts
FN:172,_RNvNtNtCs2jO2QXn3WZ6_16soroban_debugger3cli8commands3run
FN:1412,_RNvNtNtCs2jO2QXn3WZ6_16soroban_debugger3cli8commands3tui
FN:1466,_RNvNtNtCs2jO2QXn3WZ6_16soroban_debugger3cli8commands4repl
FN:1399,_RNvNtNtCs2jO2QXn3WZ6_16soroban_debugger3cli8commands6remote
FN:1250,_RNvNtNtCs2jO2QXn3WZ6_16soroban_debugger3cli8commands6replay
FN:1389,_RNvNtNtCs2jO2QXn3WZ6_16soroban_debugger3cli8commands6server
FN:1452,_RNvNtNtCs2jO2QXn3WZ6_16soroban_debugger3cli8commands7analyze
FN:1223,_RNvNtNtCs2jO2QXn3WZ6_16soroban_debugger3cli8commands7compare
FN:1419,_RNvNtNtCs2jO2QXn3WZ6_16soroban_debugger3cli8commands7inspect
FN:1137,_RNvNtNtCs2jO2QXn3WZ6_16soroban_debugger3cli8commands7profile
FN:1021,_RNvNtNtCs2jO2QXn3WZ6_16soroban_debugger3cli8commands8optimize
FN:1459,_RNvNtNtCs2jO2QXn3WZ6_16soroban_debugger3cli8commands8scenario
FN:1445,_RNvNtNtCs2jO2QXn3WZ6_16soroban_debugger3cli8commands8symbolic
FN:96,_RNvNtNtCs2jO2QXn3WZ6_16soroban_debugger3cli8commands9run_batch
FN:21,_RINvNtNtCs2jO2QXn3WZ6_16soroban_debugger3cli8commands10print_infoNtNtCshQKOepsJxml_5alloc6string6StringEB6_
FN:21,_RINvNtNtCs2jO2QXn3WZ6_16soroban_debugger3cli8commands10print_infoReEB6_
FN:1466,_RNCNvNtNtCs2jO2QXn3WZ6_16soroban_debugger3cli8commands4repl0B7_
FNDA:0,_RNCNvNtNtCsjDzxbYtLkYp_16soroban_debugger3cli8commands26display_instruction_counts0B7_
FNDA:0,_RNCNvNtNtCsjDzxbYtLkYp_16soroban_debugger3cli8commands26display_instruction_countss0_0B7_
FNDA:0,_RNCNvNtNtCsjDzxbYtLkYp_16soroban_debugger3cli8commands26display_instruction_countss_0B7_
FNDA:0,_RNvNtNtCsjDzxbYtLkYp_16soroban_debugger3cli8commands22get_instruction_counts
FNDA:0,_RNvNtNtCsjDzxbYtLkYp_16soroban_debugger3cli8commands26display_instruction_counts
FNDA:87,_RINvNtNtCsjDzxbYtLkYp_16soroban_debugger3cli8commands10print_infoNtNtCshQKOepsJxml_5alloc6string6StringEB6_
FNDA:0,_RINvNtNtCsjDzxbYtLkYp_16soroban_debugger3cli8commands10print_infoRNtNtCshQKOepsJxml_5alloc6string6StringEB6_
FNDA:26,_RINvNtNtCsjDzxbYtLkYp_16soroban_debugger3cli8commands10print_infoReEB6_
FNDA:0,_RINvNtNtCsjDzxbYtLkYp_16soroban_debugger3cli8commands12print_resultNtNtCshQKOepsJxml_5alloc6string6StringEB6_
FNDA:34,_RINvNtNtCsjDzxbYtLkYp_16soroban_debugger3cli8commands13print_successNtNtCshQKOepsJxml_5alloc6string6StringEB6_
FNDA:0,_RINvNtNtCsjDzxbYtLkYp_16soroban_debugger3cli8commands13print_successReEB6_
FNDA:1,_RINvNtNtCsjDzxbYtLkYp_16soroban_debugger3cli8commands13print_verboseNtNtCshQKOepsJxml_5alloc6string6StringEB6_
FNDA:0,_RINvNtNtCsjDzxbYtLkYp_16soroban_debugger3cli8commands13print_verboseReEB6_
FNDA:0,_RINvNtNtCsjDzxbYtLkYp_16soroban_debugger3cli8commands13print_warningNtNtCshQKOepsJxml_5alloc6string6StringEB6_
FNDA:0,_RINvNtNtCsjDzxbYtLkYp_16soroban_debugger3cli8commands13print_warningReEB6_
FNDA:257,_RNCNvNtNtCsjDzxbYtLkYp_16soroban_debugger3cli8commands10parse_args0B7_
FNDA:0,_RNCNvNtNtCsjDzxbYtLkYp_16soroban_debugger3cli8commands11run_dry_run0B7_
FNDA:257,_RNCNvNtNtCsjDzxbYtLkYp_16soroban_debugger3cli8commands13parse_storage0B7_
FNDA:1,_RNCNvNtNtCsjDzxbYtLkYp_16soroban_debugger3cli8commands13upgrade_check0B7_
FNDA:0,_RNCNvNtNtCsjDzxbYtLkYp_16soroban_debugger3cli8commands13upgrade_checks0_0B7_
FNDA:0,_RNCNvNtNtCsjDzxbYtLkYp_16soroban_debugger3cli8commands13upgrade_checks1_0B7_
FNDA:1,_RNCNvNtNtCsjDzxbYtLkYp_16soroban_debugger3cli8commands13upgrade_checks_0B7_
FNDA:0,_RNCNvNtNtCsjDzxbYtLkYp_16soroban_debugger3cli8commands15run_test_inputs0B7_
FNDA:0,_RNCNvNtNtCsjDzxbYtLkYp_16soroban_debugger3cli8commands18format_text_report0B7_
FNDA:0,_RNCNvNtNtCsjDzxbYtLkYp_16soroban_debugger3cli8commands18format_text_reports_0B7_
FNDA:0,_RNCNvNtNtCsjDzxbYtLkYp_16soroban_debugger3cli8commands21build_execution_trace0B7_
FNDA:5,_RNCNvNtNtCsjDzxbYtLkYp_16soroban_debugger3cli8commands3run0B7_
FNDA:0,_RNCNvNtNtCsjDzxbYtLkYp_16soroban_debugger3cli8commands3runs0_0B7_
FNDA:0,_RNCNvNtNtCsjDzxbYtLkYp_16soroban_debugger3cli8commands3runs1_0B7_
FNDA:0,_RNCNvNtNtCsjDzxbYtLkYp_16soroban_debugger3cli8commands3runs2_0B7_
FNDA:0,_RNCNvNtNtCsjDzxbYtLkYp_16soroban_debugger3cli8commands3runs3_0B7_
FNDA:0,_RNCNvNtNtCsjDzxbYtLkYp_16soroban_debugger3cli8commands3runs4_0B7_
FNDA:0,_RNCNvNtNtCsjDzxbYtLkYp_16soroban_debugger3cli8commands3runs5_0B7_
FNDA:0,_RNCNvNtNtCsjDzxbYtLkYp_16soroban_debugger3cli8commands3runs6_0B7_
FNDA:0,_RNCNvNtNtCsjDzxbYtLkYp_16soroban_debugger3cli8commands3runs_0B7_
FNDA:0,_RNCNvNtNtCsjDzxbYtLkYp_16soroban_debugger3cli8commands4repl0B7_
FNDA:6,_RNCNvNtNtCsjDzxbYtLkYp_16soroban_debugger3cli8commands6replay0B7_
FNDA:0,_RNCNvNtNtCsjDzxbYtLkYp_16soroban_debugger3cli8commands6replays0_0B7_
FNDA:0,_RNCNvNtNtCsjDzxbYtLkYp_16soroban_debugger3cli8commands6replays1_0B7_
FNDA:0,_RNCNvNtNtCsjDzxbYtLkYp_16soroban_debugger3cli8commands6replays2_0B7_
FNDA:0,_RNCNvNtNtCsjDzxbYtLkYp_16soroban_debugger3cli8commands6replays_0B7_
FNDA:0,_RNCNvNtNtCsjDzxbYtLkYp_16soroban_debugger3cli8commands7compare0B7_
FNDA:2,_RNCNvNtNtCsjDzxbYtLkYp_16soroban_debugger3cli8commands7inspect0B7_
FNDA:0,_RNCNvNtNtCsjDzxbYtLkYp_16soroban_debugger3cli8commands7inspects_0B7_
FNDA:1,_RNCNvNtNtCsjDzxbYtLkYp_16soroban_debugger3cli8commands7profile0B7_
FNDA:0,_RNCNvNtNtCsjDzxbYtLkYp_16soroban_debugger3cli8commands7profiles_0B7_
FNDA:1,_RNCNvNtNtCsjDzxbYtLkYp_16soroban_debugger3cli8commands8optimize0B7_
FNDA:0,_RNCNvNtNtCsjDzxbYtLkYp_16soroban_debugger3cli8commands8optimizes_0B7_
FNDA:0,_RNCNvNtNtCsjDzxbYtLkYp_16soroban_debugger3cli8commands9run_batch0B7_
FNDA:0,_RNCNvNtNtCsjDzxbYtLkYp_16soroban_debugger3cli8commands9run_batchs0_0B7_
FNDA:0,_RNCNvNtNtCsjDzxbYtLkYp_16soroban_debugger3cli8commands9run_batchs_0B7_
FNDA:513,_RNvNtNtCsjDzxbYtLkYp_16soroban_debugger3cli8commands10parse_args
FNDA:0,_RNvNtNtCsjDzxbYtLkYp_16soroban_debugger3cli8commands11interactive
FNDA:0,_RNvNtNtCsjDzxbYtLkYp_16soroban_debugger3cli8commands11invoke_wasm
FNDA:2,_RNvNtNtCsjDzxbYtLkYp_16soroban_debugger3cli8commands11run_dry_run
FNDA:513,_RNvNtNtCsjDzxbYtLkYp_16soroban_debugger3cli8commands13parse_storage
FNDA:3,_RNvNtNtCsjDzxbYtLkYp_16soroban_debugger3cli8commands13upgrade_check
FNDA:0,_RNvNtNtCsjDzxbYtLkYp_16soroban_debugger3cli8commands15parse_step_mode
FNDA:0,_RNvNtNtCsjDzxbYtLkYp_16soroban_debugger3cli8commands15run_test_inputs
FNDA:0,_RNvNtNtCsjDzxbYtLkYp_16soroban_debugger3cli8commands17show_budget_trend
FNDA:0,_RNvNtNtCsjDzxbYtLkYp_16soroban_debugger3cli8commands18format_text_report
FNDA:0,_RNvNtNtCsjDzxbYtLkYp_16soroban_debugger3cli8commands21build_execution_trace
FNDA:0,_RNvNtNtCsjDzxbYtLkYp_16soroban_debugger3cli8commands21display_mock_call_log
FNDA:0,_RNvNtNtCsjDzxbYtLkYp_16soroban_debugger3cli8commands24run_instruction_stepping
FNDA:35,_RNvNtNtCsjDzxbYtLkYp_16soroban_debugger3cli8commands3run
FNDA:0,_RNvNtNtCsjDzxbYtLkYp_16soroban_debugger3cli8commands3tui
FNDA:0,_RNvNtNtCsjDzxbYtLkYp_16soroban_debugger3cli8commands4repl
FNDA:0,_RNvNtNtCsjDzxbYtLkYp_16soroban_debugger3cli8commands6remote
FNDA:9,_RNvNtNtCsjDzxbYtLkYp_16soroban_debugger3cli8commands6replay
FNDA:0,_RNvNtNtCsjDzxbYtLkYp_16soroban_debugger3cli8commands6server
FNDA:1,_RNvNtNtCsjDzxbYtLkYp_16soroban_debugger3cli8commands7analyze
FNDA:4,_RNvNtNtCsjDzxbYtLkYp_16soroban_debugger3cli8commands7compare
FNDA:8,_RNvNtNtCsjDzxbYtLkYp_16soroban_debugger3cli8commands7inspect
FNDA:2,_RNvNtNtCsjDzxbYtLkYp_16soroban_debugger3cli8commands7profile
FNDA:4,_RNvNtNtCsjDzxbYtLkYp_16soroban_debugger3cli8commands8optimize
FNDA:0,_RNvNtNtCsjDzxbYtLkYp_16soroban_debugger3cli8commands8scenario
FNDA:0,_RNvNtNtCsjDzxbYtLkYp_16soroban_debugger3cli8commands8symbolic
FNDA:1,_RNvNtNtCsjDzxbYtLkYp_16soroban_debugger3cli8commands9run_batch
FNDA:0,_RINvNtNtCs2jO2QXn3WZ6_16soroban_debugger3cli8commands12print_resultpEB6_
FNDA:0,_RINvNtNtCs2jO2QXn3WZ6_16soroban_debugger3cli8commands13print_successpEB6_
FNDA:0,_RINvNtNtCs2jO2QXn3WZ6_16soroban_debugger3cli8commands13print_verbosepEB6_
FNDA:0,_RINvNtNtCs2jO2QXn3WZ6_16soroban_debugger3cli8commands13print_warningpEB6_
FNDA:0,_RNCNvNtNtCs2jO2QXn3WZ6_16soroban_debugger3cli8commands10parse_args0B7_
FNDA:0,_RNCNvNtNtCs2jO2QXn3WZ6_16soroban_debugger3cli8commands11run_dry_run0B7_
FNDA:0,_RNCNvNtNtCs2jO2QXn3WZ6_16soroban_debugger3cli8commands13parse_storage0B7_
FNDA:0,_RNCNvNtNtCs2jO2QXn3WZ6_16soroban_debugger3cli8commands13upgrade_check0B7_
FNDA:0,_RNCNvNtNtCs2jO2QXn3WZ6_16soroban_debugger3cli8commands13upgrade_checks0_0B7_
FNDA:0,_RNCNvNtNtCs2jO2QXn3WZ6_16soroban_debugger3cli8commands13upgrade_checks1_0B7_
FNDA:0,_RNCNvNtNtCs2jO2QXn3WZ6_16soroban_debugger3cli8commands13upgrade_checks_0B7_
FNDA:0,_RNCNvNtNtCs2jO2QXn3WZ6_16soroban_debugger3cli8commands15run_test_inputs0B7_
FNDA:0,_RNCNvNtNtCs2jO2QXn3WZ6_16soroban_debugger3cli8commands18format_text_report0B7_
FNDA:0,_RNCNvNtNtCs2jO2QXn3WZ6_16soroban_debugger3cli8commands18format_text_reports_0B7_
FNDA:0,_RNCNvNtNtCs2jO2QXn3WZ6_16soroban_debugger3cli8commands21build_execution_trace0B7_
FNDA:0,_RNCNvNtNtCs2jO2QXn3WZ6_16soroban_debugger3cli8commands26display_instruction_counts0B7_
FNDA:0,_RNCNvNtNtCs2jO2QXn3WZ6_16soroban_debugger3cli8commands26display_instruction_countss0_0B7_
FNDA:0,_RNCNvNtNtCs2jO2QXn3WZ6_16soroban_debugger3cli8commands26display_instruction_countss_0B7_
FNDA:0,_RNCNvNtNtCs2jO2QXn3WZ6_16soroban_debugger3cli8commands3run0B7_
FNDA:0,_RNCNvNtNtCs2jO2QXn3WZ6_16soroban_debugger3cli8commands3runs0_0B7_
FNDA:0,_RNCNvNtNtCs2jO2QXn3WZ6_16soroban_debugger3cli8commands3runs1_0B7_
FNDA:0,_RNCNvNtNtCs2jO2QXn3WZ6_16soroban_debugger3cli8commands3runs2_0B7_
FNDA:0,_RNCNvNtNtCs2jO2QXn3WZ6_16soroban_debugger3cli8commands3runs3_0B7_
FNDA:0,_RNCNvNtNtCs2jO2QXn3WZ6_16soroban_debugger3cli8commands3runs4_0B7_
FNDA:0,_RNCNvNtNtCs2jO2QXn3WZ6_16soroban_debugger3cli8commands3runs5_0B7_
FNDA:0,_RNCNvNtNtCs2jO2QXn3WZ6_16soroban_debugger3cli8commands3runs6_0B7_
FNDA:0,_RNCNvNtNtCs2jO2QXn3WZ6_16soroban_debugger3cli8commands3runs_0B7_
FNDA:0,_RNCNvNtNtCs2jO2QXn3WZ6_16soroban_debugger3cli8commands6replay0B7_
FNDA:0,_RNCNvNtNtCs2jO2QXn3WZ6_16soroban_debugger3cli8commands6replays0_0B7_
FNDA:0,_RNCNvNtNtCs2jO2QXn3WZ6_16soroban_debugger3cli8commands6replays1_0B7_
FNDA:0,_RNCNvNtNtCs2jO2QXn3WZ6_16soroban_debugger3cli8commands6replays2_0B7_
FNDA:0,_RNCNvNtNtCs2jO2QXn3WZ6_16soroban_debugger3cli8commands6replays_0B7_
FNDA:0,_RNCNvNtNtCs2jO2QXn3WZ6_16soroban_debugger3cli8commands7compare0B7_
FNDA:0,_RNCNvNtNtCs2jO2QXn3WZ6_16soroban_debugger3cli8commands7inspect0B7_
FNDA:0,_RNCNvNtNtCs2jO2QXn3WZ6_16soroban_debugger3cli8commands7inspects_0B7_
FNDA:0,_RNCNvNtNtCs2jO2QXn3WZ6_16soroban_debugger3cli8commands7profile0B7_
FNDA:0,_RNCNvNtNtCs2jO2QXn3WZ6_16soroban_debugger3cli8commands7profiles_0B7_
FNDA:0,_RNCNvNtNtCs2jO2QXn3WZ6_16soroban_debugger3cli8commands8optimize0B7_
FNDA:0,_RNCNvNtNtCs2jO2QXn3WZ6_16soroban_debugger3cli8commands8optimizes_0B7_
FNDA:0,_RNCNvNtNtCs2jO2QXn3WZ6_16soroban_debugger3cli8commands9run_batch0B7_
FNDA:0,_RNCNvNtNtCs2jO2QXn3WZ6_16soroban_debugger3cli8commands9run_batchs0_0B7_
FNDA:0,_RNCNvNtNtCs2jO2QXn3WZ6_16soroban_debugger3cli8commands9run_batchs_0B7_
FNDA:0,_RNvNtNtCs2jO2QXn3WZ6_16soroban_debugger3cli8commands10parse_args
FNDA:0,_RNvNtNtCs2jO2QXn3WZ6_16soroban_debugger3cli8commands11interactive
FNDA:0,_RNvNtNtCs2jO2QXn3WZ6_16soroban_debugger3cli8commands11invoke_wasm
FNDA:0,_RNvNtNtCs2jO2QXn3WZ6_16soroban_debugger3cli8commands11run_dry_run
FNDA:0,_RNvNtNtCs2jO2QXn3WZ6_16soroban_debugger3cli8commands13parse_storage
FNDA:0,_RNvNtNtCs2jO2QXn3WZ6_16soroban_debugger3cli8commands13upgrade_check
FNDA:0,_RNvNtNtCs2jO2QXn3WZ6_16soroban_debugger3cli8commands15parse_step_mode
FNDA:0,_RNvNtNtCs2jO2QXn3WZ6_16soroban_debugger3cli8commands15run_test_inputs
FNDA:0,_RNvNtNtCs2jO2QXn3WZ6_16soroban_debugger3cli8commands17show_budget_trend
FNDA:0,_RNvNtNtCs2jO2QXn3WZ6_16soroban_debugger3cli8commands18format_text_report
FNDA:0,_RNvNtNtCs2jO2QXn3WZ6_16soroban_debugger3cli8commands21build_execution_trace
FNDA:0,_RNvNtNtCs2jO2QXn3WZ6_16soroban_debugger3cli8commands21display_mock_call_log
FNDA:0,_RNvNtNtCs2jO2QXn3WZ6_16soroban_debugger3cli8commands22get_instruction_counts
FNDA:0,_RNvNtNtCs2jO2QXn3WZ6_16soroban_debugger3cli8commands24run_instruction_stepping
FNDA:0,_RNvNtNtCs2jO2QXn3WZ6_16soroban_debugger3cli8commands26display_instruction_counts
FNDA:0,_RNvNtNtCs2jO2QXn3WZ6_16soroban_debugger3cli8commands3run
FNDA:0,_RNvNtNtCs2jO2QXn3WZ6_16soroban_debugger3cli8commands3tui
FNDA:0,_RNvNtNtCs2jO2QXn3WZ6_16soroban_debugger3cli8commands4repl
FNDA:0,_RNvNtNtCs2jO2QXn3WZ6_16soroban_debugger3cli8commands6remote
FNDA:0,_RNvNtNtCs2jO2QXn3WZ6_16soroban_debugger3cli8commands6replay
FNDA:0,_RNvNtNtCs2jO2QXn3WZ6_16soroban_debugger3cli8commands6server
FNDA:0,_RNvNtNtCs2jO2QXn3WZ6_16soroban_debugger3cli8commands7analyze
FNDA:0,_RNvNtNtCs2jO2QXn3WZ6_16soroban_debugger3cli8commands7compare
FNDA:0,_RNvNtNtCs2jO2QXn3WZ6_16soroban_debugger3cli8commands7inspect
FNDA:0,_RNvNtNtCs2jO2QXn3WZ6_16soroban_debugger3cli8commands7profile
FNDA:0,_RNvNtNtCs2jO2QXn3WZ6_16soroban_debugger3cli8commands8optimize
FNDA:0,_RNvNtNtCs2jO2QXn3WZ6_16soroban_debugger3cli8commands8scenario
FNDA:0,_RNvNtNtCs2jO2QXn3WZ6_16soroban_debugger3cli8commands8symbolic
FNDA:0,_RNvNtNtCs2jO2QXn3WZ6_16soroban_debugger3cli8commands9run_batch
FNDA:0,_RINvNtNtCs2jO2QXn3WZ6_16soroban_debugger3cli8commands10print_infoNtNtCshQKOepsJxml_5alloc6string6StringEB6_
FNDA:0,_RINvNtNtCs2jO2QXn3WZ6_16soroban_debugger3cli8commands10print_infoReEB6_
FNDA:0,_RNCNvNtNtCs2jO2QXn3WZ6_16soroban_debugger3cli8commands4repl0B7_
FNF:73
FNH:24
DA:21,113
DA:22,113
DA:23,105
DA:24,105
DA:25,113
DA:27,34
DA:28,34
DA:29,32
DA:30,32
DA:31,34
DA:33,0
DA:34,0
DA:35,0
DA:36,0
DA:37,0
DA:40,0
DA:41,0
DA:42,0
DA:45,1
DA:46,1
DA:47,1
DA:48,1
DA:49,1
DA:52,0
DA:53,0
DA:54,0
DA:55,0
DA:56,0
DA:57,0
DA:58,0
DA:59,0
DA:62,0
DA:63,0
DA:64,0
DA:65,0
DA:66,0
DA:67,0
DA:68,0
DA:70,0
DA:73,0
DA:74,0
DA:75,0
DA:76,0
DA:77,0
DA:78,0
DA:79,0
DA:80,0
DA:82,0
DA:86,0
DA:87,0
DA:89,0
DA:93,0
DA:96,1
DA:97,1
DA:98,1
DA:100,1
DA:101,0
DA:102,0
DA:103,0
DA:104,0
DA:105,0
DA:107,1
DA:109,1
DA:111,1
DA:113,1
DA:114,1
DA:115,0
DA:117,0
DA:118,0
DA:119,0
DA:120,0
DA:121,0
DA:122,0
DA:123,0
DA:125,0
DA:127,0
DA:130,0
DA:132,0
DA:133,0
DA:134,0
DA:136,0
DA:138,0
DA:139,0
DA:140,0
DA:141,0
DA:142,0
DA:143,0
DA:145,0
DA:146,0
DA:147,0
DA:149,0
DA:150,0
DA:151,0
DA:152,0
DA:153,0
DA:155,0
DA:157,0
DA:159,0
DA:160,0
DA:161,0
DA:162,0
DA:163,0
DA:164,0
DA:165,0
DA:167,0
DA:168,1
DA:172,35
DA:174,35
DA:177,35
DA:178,1
DA:179,34
DA:181,34
DA:182,2
DA:183,32
DA:185,32
DA:186,32
DA:187,32
DA:189,32
DA:190,32
DA:191,27
DA:192,27
DA:194,27
DA:195,0
DA:196,0
DA:197,0
DA:198,0
DA:199,0
DA:200,0
DA:201,0
DA:202,27
DA:204,27
DA:206,27
DA:208,27
DA:209,27
DA:210,27
DA:211,27
DA:213,27
DA:214,1
DA:215,1
DA:216,1
DA:217,0
DA:218,0
DA:219,1
DA:220,26
DA:222,27
DA:224,27
DA:225,1
DA:226,1
DA:227,1
DA:228,1
DA:229,0
DA:230,0
DA:231,0
DA:232,26
DA:234,26
DA:235,1
DA:237,25
DA:240,25
DA:241,1
DA:243,24
DA:247,24
DA:248,1
DA:249,1
DA:250,0
DA:251,0
DA:252,0
DA:253,0
DA:254,23
DA:256,23
DA:257,1
DA:258,1
DA:259,1
DA:260,1
DA:261,1
DA:262,22
DA:264,22
DA:265,22
DA:266,22
DA:267,22
DA:268,22
DA:269,0
DA:270,0
DA:271,22
DA:272,22
DA:274,22
DA:275,22
DA:277,22
DA:278,22
DA:279,0
DA:280,22
DA:281,22
DA:282,0
DA:284,22
DA:287,22
DA:288,0
DA:289,0
DA:290,0
DA:291,0
DA:292,22
DA:294,22
DA:295,0
DA:296,0
DA:297,0
DA:298,0
DA:299,22
DA:302,22
DA:303,22
DA:304,0
DA:305,0
DA:307,0
DA:308,0
DA:309,0
DA:313,0
DA:314,0
DA:315,0
DA:316,0
DA:317,22
DA:319,22
DA:320,22
DA:321,22
DA:322,22
DA:323,22
DA:324,22
DA:325,22
DA:326,22
DA:327,22
DA:328,22
DA:331,22
DA:332,22
DA:333,22
DA:334,22
DA:335,22
DA:336,22
DA:340,0
DA:341,0
DA:342,0
DA:343,0
DA:345,22
DA:346,22
DA:347,22
DA:348,22
DA:350,22
DA:351,22
DA:352,22
DA:353,22
DA:355,22
DA:356,22
DA:357,22
DA:358,0
DA:359,22
DA:360,22
DA:361,22
DA:362,22
DA:365,22
DA:366,22
DA:367,22
DA:368,22
DA:369,22
DA:370,22
DA:371,22
DA:372,22
DA:373,22
DA:374,22
DA:375,22
DA:376,22
DA:377,22
DA:380,22
DA:381,22
DA:382,22
DA:383,22
DA:384,22
DA:386,22
DA:388,0
DA:390,22
DA:391,22
DA:392,22
DA:395,22
DA:399,22
DA:400,22
DA:401,22
DA:402,0
DA:404,0
DA:409,0
DA:410,0
DA:411,0
DA:412,0
DA:413,0
DA:414,0
DA:415,0
DA:416,0
DA:417,0
DA:422,22
DA:423,22
DA:425,0
DA:428,22
DA:429,22
DA:431,0
DA:434,22
DA:435,0
DA:436,0
DA:438,22
DA:439,18446744073709551594
DA:440,18446744073709551594
DA:441,18446744073709551594
DA:444,22
DA:445,0
DA:447,22
DA:448,22
DA:449,22
DA:451,22
DA:452,22
DA:453,22
DA:454,22
DA:455,0
DA:457,22
DA:458,22
DA:459,0
DA:460,0
DA:463,0
DA:464,0
DA:465,0
DA:466,0
DA:467,0
DA:468,0
DA:469,0
DA:470,22
DA:472,22
DA:473,22
DA:474,0
DA:475,0
DA:476,0
DA:478,0
DA:479,0
DA:480,0
DA:481,0
DA:482,0
DA:483,0
DA:485,0
DA:486,0
DA:487,0
DA:488,0
DA:489,0
DA:490,0
DA:491,0
DA:492,0
DA:493,0
DA:494,0
DA:496,0
DA:498,0
DA:502,0
DA:503,0
DA:505,0
DA:506,0
DA:507,0
DA:508,0
DA:509,0
DA:510,0
DA:511,0
DA:513,0
DA:514,0
DA:517,0
DA:518,0
DA:519,0
DA:522,0
DA:523,0
DA:524,0
DA:525,22
DA:527,22
DA:528,0
DA:529,0
DA:530,0
DA:531,0
DA:532,0
DA:534,22
DA:535,22
DA:536,22
DA:537,22
DA:540,22
DA:541,22
DA:542,22
DA:543,22
DA:544,22
DA:545,22
DA:546,22
DA:547,22
DA:548,22
DA:549,22
DA:550,22
DA:551,0
DA:552,0
DA:553,0
DA:554,0
DA:555,0
DA:556,0
DA:558,0
DA:559,22
DA:561,0
DA:562,22
DA:563,22
DA:564,22
DA:566,22
DA:567,22
DA:568,0
DA:569,0
DA:570,22
DA:572,0
DA:574,22
DA:575,22
DA:577,22
DA:578,22
DA:579,22
DA:581,22
DA:582,22
DA:584,22
DA:585,22
DA:586,22
DA:587,22
DA:588,22
DA:589,22
DA:590,22
DA:591,22
DA:592,22
DA:596,22
DA:597,22
DA:598,22
DA:599,22
DA:600,0
DA:601,0
DA:602,0
DA:603,0
DA:605,22
DA:606,35
DA:609,0
DA:610,0
DA:611,0
DA:612,0
DA:613,0
DA:614,0
DA:615,0
DA:616,0
DA:617,0
DA:618,0
DA:619,0
DA:620,0
DA:621,0
DA:622,0
DA:623,0
DA:624,0
DA:625,0
DA:626,0
DA:629,0
DA:630,0
DA:632,0
DA:633,0
DA:635,0
DA:636,0
DA:637,0
DA:638,0
DA:639,0
DA:641,0
DA:642,0
DA:644,0
DA:645,0
DA:646,0
DA:648,0
DA:649,0
DA:650,0
DA:651,0
DA:652,0
DA:653,0
DA:654,0
DA:655,0
DA:656,0
DA:657,0
DA:658,0
DA:659,0
DA:660,0
DA:661,0
DA:662,0
DA:664,0
DA:666,0
DA:667,0
DA:668,0
DA:669,0
DA:670,0
DA:671,0
DA:672,0
DA:673,0
DA:675,0
DA:676,0
DA:677,0
DA:678,0
DA:679,0
DA:680,0
DA:681,0
DA:682,0
DA:683,0
DA:684,0
DA:685,0
DA:686,0
DA:687,0
DA:688,0
DA:689,0
DA:690,0
DA:691,0
DA:694,2
DA:695,2
DA:697,2
DA:698,2
DA:699,2
DA:700,2
DA:702,2
DA:703,0
DA:704,0
DA:705,0
DA:706,0
DA:707,0
DA:708,0
DA:709,0
DA:710,2
DA:712,2
DA:714,2
DA:717,2
DA:718,0
DA:719,0
DA:720,0
DA:721,0
DA:722,2
DA:724,2
DA:726,2
DA:727,2
DA:731,0
DA:732,0
DA:733,0
DA:735,0
DA:736,0
DA:740,0
DA:741,0
DA:742,0
DA:743,0
DA:745,0
DA:748,0
DA:749,0
DA:750,0
DA:751,0
DA:752,0
DA:753,0
DA:755,0
DA:757,0
DA:758,0
DA:761,0
DA:762,0
DA:763,0
DA:764,0
DA:765,0
DA:766,0
DA:767,0
DA:768,0
DA:769,0
DA:770,0
DA:771,0
DA:772,0
DA:775,0
DA:784,0
DA:785,0
DA:788,0
DA:789,0
DA:790,0
DA:791,0
DA:792,0
DA:793,0
DA:794,0
DA:795,0
DA:796,0
DA:797,0
DA:798,0
DA:799,0
DA:802,3
DA:803,3
DA:804,3
DA:805,3
DA:807,2
DA:808,2
DA:809,2
DA:812,1
DA:813,0
DA:815,1
DA:818,1
DA:819,1
DA:821,0
DA:822,1
DA:824,0
DA:825,0
DA:826,0
DA:827,0
DA:830,0
DA:831,0
DA:832,0
DA:833,0
DA:834,0
DA:835,0
DA:836,0
DA:838,0
DA:839,0
DA:840,0
DA:841,0
DA:842,0
DA:843,0
DA:845,0
DA:846,3
DA:849,0
DA:850,0
DA:851,0
DA:852,0
DA:853,0
DA:854,0
DA:855,0
DA:856,0
DA:858,0
DA:860,0
DA:861,0
DA:862,0
DA:863,0
DA:864,0
DA:865,0
DA:866,0
DA:867,0
DA:868,0
DA:869,0
DA:870,0
DA:871,0
DA:872,0
DA:873,0
DA:874,0
DA:876,0
DA:877,0
DA:880,0
DA:881,0
DA:882,0
DA:883,0
DA:884,0
DA:885,0
DA:886,0
DA:888,0
DA:890,0
DA:891,0
DA:892,0
DA:896,0
DA:899,0
DA:900,0
DA:902,0
DA:903,0
DA:904,0
DA:905,0
DA:906,0
DA:908,0
DA:909,0
DA:911,0
DA:913,0
DA:915,0
DA:916,0
DA:917,0
DA:918,0
DA:919,0
DA:920,0
DA:921,0
DA:922,0
DA:923,0
DA:924,0
DA:925,0
DA:928,0
DA:929,0
DA:930,0
DA:931,0
DA:932,0
DA:933,0
DA:934,0
DA:935,0
DA:936,0
DA:937,0
DA:938,0
DA:941,0
DA:942,0
DA:943,0
DA:944,0
DA:945,0
DA:946,0
DA:947,0
DA:948,0
DA:949,0
DA:951,0
DA:953,0
DA:954,0
DA:955,0
DA:956,0
DA:958,0
DA:960,0
DA:961,0
DA:962,0
DA:963,0
DA:964,0
DA:965,0
DA:966,0
DA:967,0
DA:968,0
DA:969,0
DA:970,0
DA:971,0
DA:972,0
DA:973,0
DA:974,0
DA:975,0
DA:976,0
DA:977,0
DA:978,0
DA:979,0
DA:980,0
DA:982,0
DA:983,0
DA:986,513
DA:987,513
DA:988,257
DA:989,257
DA:990,257
DA:991,257
DA:992,257
DA:994,256
DA:995,113
DA:996,113
DA:998,134
DA:999,134
DA:1002,9
DA:1006,256
DA:1007,513
DA:1010,513
DA:1011,513
DA:1012,257
DA:1013,257
DA:1014,257
DA:1015,257
DA:1016,257
DA:1017,256
DA:1018,513
DA:1021,4
DA:1022,4
DA:1026,4
DA:1028,4
DA:1029,4
DA:1030,3
DA:1031,3
DA:1033,3
DA:1034,0
DA:1035,0
DA:1036,0
DA:1037,0
DA:1038,0
DA:1039,0
DA:1040,0
DA:1041,3
DA:1043,3
DA:1045,3
DA:1048,3
DA:1049,0
DA:1050,0
DA:1051,0
DA:1052,0
DA:1053,3
DA:1055,3
DA:1057,3
DA:1058,1
DA:1059,1
DA:1060,1
DA:1061,0
DA:1062,0
DA:1063,2
DA:1065,2
DA:1066,0
DA:1067,0
DA:1069,2
DA:1072,2
DA:1073,2
DA:1074,2
DA:1075,2
DA:1076,0
DA:1078,2
DA:1080,2
DA:1082,2
DA:1084,2
DA:1086,18446744073709551614
DA:1087,18446744073709551614
DA:1088,18446744073709551614
DA:1089,18446744073709551614
DA:1090,18446744073709551614
DA:1091,18446744073709551614
DA:1092,18446744073709551614
DA:1093,18446744073709551614
DA:1094,18446744073709551614
DA:1095,18446744073709551614
DA:1096,18446744073709551614
DA:1097,18446744073709551614
DA:1098,18446744073709551614
DA:1099,18446744073709551614
DA:1100,18446744073709551614
DA:1101,18446744073709551614
DA:1102,0
DA:1103,0
DA:1107,0
DA:1111,2
DA:1113,2
DA:1114,2
DA:1115,2
DA:1117,2
DA:1118,2
DA:1119,0
DA:1120,0
DA:1121,0
DA:1122,0
DA:1123,0
DA:1124,2
DA:1128,2
DA:1129,0
DA:1130,0
DA:1131,0
DA:1133,2
DA:1134,4
DA:1137,2
DA:1138,2
DA:1139,2
DA:1140,2
DA:1143,2
DA:1144,2
DA:1145,1
DA:1146,1
DA:1148,1
DA:1149,0
DA:1150,0
DA:1151,0
DA:1152,0
DA:1153,0
DA:1154,0
DA:1155,0
DA:1156,1
DA:1158,1
DA:1159,1
DA:1160,1
DA:1164,1
DA:1165,0
DA:1167,1
DA:1171,1
DA:1174,1
DA:1175,1
DA:1176,1
DA:1177,0
DA:1180,1
DA:1182,1
DA:1183,1
DA:1184,1
DA:1186,1
DA:1187,1
DA:1188,1
DA:1190,1
DA:1192,1
DA:1193,1
DA:1196,1
DA:1197,1
DA:1198,1
DA:1202,1
DA:1204,1
DA:1205,1
DA:1206,0
DA:1207,0
DA:1208,0
DA:1209,0
DA:1210,0
DA:1211,1
DA:1212,1
DA:1213,1
DA:1215,0
DA:1216,0
DA:1217,0
DA:1219,1
DA:1220,2
DA:1223,4
DA:1224,4
DA:1225,4
DA:1227,2
DA:1228,2
DA:1230,1
DA:1231,1
DA:1232,1
DA:1234,1
DA:1235,1
DA:1236,0
DA:1237,0
DA:1238,0
DA:1239,0
DA:1240,0
DA:1241,1
DA:1242,0
DA:1243,0
DA:1244,0
DA:1246,1
DA:1247,4
DA:1250,9
DA:1251,9
DA:1252,9
DA:1255,7
DA:1256,2
DA:1257,5
DA:1258,4
DA:1260,1
DA:1261,1
DA:1262,1
DA:1263,1
DA:1266,6
DA:1267,6
DA:1268,6
DA:1269,6
DA:1270,6
DA:1271,6
DA:1272,6
DA:1274,0
DA:1276,0
DA:1280,0
DA:1281,0
DA:1282,0
DA:1284,0
DA:1287,0
DA:1288,0
DA:1290,0
DA:1291,0
DA:1292,0
DA:1293,0
DA:1294,0
DA:1296,0
DA:1297,0
DA:1298,0
DA:1299,0
DA:1302,0
DA:1303,0
DA:1304,0
DA:1305,0
DA:1306,0
DA:1308,0
DA:1312,0
DA:1313,0
DA:1315,0
DA:1316,0
DA:1317,0
DA:1319,0
DA:1321,0
DA:1322,0
DA:1324,0
DA:1325,0
DA:1326,0
DA:1329,0
DA:1330,0
DA:1331,0
DA:1333,0
DA:1334,0
DA:1335,0
DA:1336,0
DA:1337,0
DA:1338,0
DA:1339,0
DA:1340,0
DA:1341,0
DA:1342,0
DA:1346,0
DA:1347,0
DA:1348,0
DA:1349,0
DA:1352,0
DA:1353,0
DA:1354,0
DA:1356,0
DA:1357,0
DA:1358,0
DA:1359,0
DA:1360,0
DA:1361,0
DA:1362,0
DA:1363,0
DA:1364,0
DA:1365,0
DA:1366,0
DA:1368,0
DA:1369,0
DA:1370,0
DA:1371,0
DA:1372,0
DA:1373,0
DA:1374,0
DA:1375,0
DA:1376,0
DA:1378,0
DA:1379,0
DA:1380,0
DA:1381,0
DA:1383,0
DA:1385,0
DA:1386,9
DA:1389,0
DA:1390,0
DA:1391,0
DA:1392,0
DA:1393,0
DA:1394,0
DA:1395,0
DA:1396,0
DA:1399,0
DA:1400,0
DA:1401,0
DA:1402,0
DA:1403,0
DA:1405,0
DA:1406,0
DA:1407,0
DA:1408,0
DA:1409,0
DA:1412,0
DA:1413,0
DA:1414,0
DA:1415,0
DA:1416,0
DA:1419,8
DA:1420,8
DA:1421,8
DA:1422,6
DA:1423,1
DA:1424,1
DA:1425,1
DA:1426,1
DA:1427,1
DA:1428,1
DA:1429,1
DA:1430,1
DA:1431,2
DA:1432,2
DA:1433,2
DA:1434,2
DA:1435,2
DA:1436,2
DA:1437,2
DA:1438,2
DA:1440,0
DA:1441,1
DA:1442,8
DA:1445,0
DA:1446,0
DA:1447,0
DA:1448,0
DA:1449,0
DA:1452,1
DA:1453,1
DA:1454,1
DA:1455,1
DA:1456,1
DA:1459,0
DA:1460,0
DA:1461,0
DA:1462,0
DA:1463,0
DA:1466,0
DA:1467,0
DA:1468,0
DA:1469,0
DA:1470,0
DA:1473,0
DA:1474,0
DA:1475,0
DA:1476,0
DA:1477,0
DA:1478,0
DA:1479,0
DA:1480,0
DA:1481,0
DA:1482,0
BRF:0
BRH:0
LF:1129
LH:442
end_of_record
SF:/home/admin/Desktop/opensource/soroban-debugger/src/client/remote_client.rs
FN:360,_RNvXs_NtNtCsjDzxbYtLkYp_16soroban_debugger6client13remote_clientNtB4_12RemoteClientNtNtNtCslH02haMvknO_4core3ops4drop4Drop4drop
FN:309,_RNvMNtNtCsjDzxbYtLkYp_16soroban_debugger6client13remote_clientNtB2_12RemoteClient10disconnect
FN:187,_RNvMNtNtCsjDzxbYtLkYp_16soroban_debugger6client13remote_clientNtB2_12RemoteClient10get_budget
FN:160,_RNvMNtNtCsjDzxbYtLkYp_16soroban_debugger6client13remote_clientNtB2_12RemoteClient11get_storage
FN:256,_RNvMNtNtCsjDzxbYtLkYp_16soroban_debugger6client13remote_clientNtB2_12RemoteClient11set_storage
FN:37,_RNvMNtNtCsjDzxbYtLkYp_16soroban_debugger6client13remote_clientNtB2_12RemoteClient12authenticate
FN:316,_RNvMNtNtCsjDzxbYtLkYp_16soroban_debugger6client13remote_clientNtB2_12RemoteClient12send_request
FN:64,_RNvMNtNtCsjDzxbYtLkYp_16soroban_debugger6client13remote_clientNtB2_12RemoteClient13load_contract
FN:275,_RNvMNtNtCsjDzxbYtLkYp_16soroban_debugger6client13remote_clientNtB2_12RemoteClient13load_snapshot
FN:204,_RNvMNtNtCsjDzxbYtLkYp_16soroban_debugger6client13remote_clientNtB2_12RemoteClient14set_breakpoint
FN:223,_RNvMNtNtCsjDzxbYtLkYp_16soroban_debugger6client13remote_clientNtB2_12RemoteClient16clear_breakpoint
FN:242,_RNvMNtNtCsjDzxbYtLkYp_16soroban_debugger6client13remote_clientNtB2_12RemoteClient16list_breakpoints
FN:129,_RNvMNtNtCsjDzxbYtLkYp_16soroban_debugger6client13remote_clientNtB2_12RemoteClient18continue_execution
FN:294,_RNvMNtNtCsjDzxbYtLkYp_16soroban_debugger6client13remote_clientNtB2_12RemoteClient4ping
FN:112,_RNvMNtNtCsjDzxbYtLkYp_16soroban_debugger6client13remote_clientNtB2_12RemoteClient4step
FN:16,_RNvMNtNtCsjDzxbYtLkYp_16soroban_debugger6client13remote_clientNtB2_12RemoteClient7connect
FN:83,_RNvMNtNtCsjDzxbYtLkYp_16soroban_debugger6client13remote_clientNtB2_12RemoteClient7execute
FN:142,_RNvMNtNtCsjDzxbYtLkYp_16soroban_debugger6client13remote_clientNtB2_12RemoteClient7inspect
FN:174,_RNvMNtNtCsjDzxbYtLkYp_16soroban_debugger6client13remote_clientNtB2_12RemoteClient9get_stack
FN:333,_RNCNvMNtNtCsjDzxbYtLkYp_16soroban_debugger6client13remote_clientNtB4_12RemoteClient12send_request0B8_
FN:340,_RNCNvMNtNtCsjDzxbYtLkYp_16soroban_debugger6client13remote_clientNtB4_12RemoteClient12send_requests0_0B8_
FN:347,_RNCNvMNtNtCsjDzxbYtLkYp_16soroban_debugger6client13remote_clientNtB4_12RemoteClient12send_requests1_0B8_
FN:348,_RNCNvMNtNtCsjDzxbYtLkYp_16soroban_debugger6client13remote_clientNtB4_12RemoteClient12send_requests2_0B8_
FN:351,_RNCNvMNtNtCsjDzxbYtLkYp_16soroban_debugger6client13remote_clientNtB4_12RemoteClient12send_requests3_0B8_
FN:353,_RNCNvMNtNtCsjDzxbYtLkYp_16soroban_debugger6client13remote_clientNtB4_12RemoteClient12send_requests4_0B8_
FN:337,_RNCNvMNtNtCsjDzxbYtLkYp_16soroban_debugger6client13remote_clientNtB4_12RemoteClient12send_requests_0B8_
FN:18,_RNCNvMNtNtCsjDzxbYtLkYp_16soroban_debugger6client13remote_clientNtB4_12RemoteClient7connect0B8_
FN:86,_RNCNvMNtNtCsjDzxbYtLkYp_16soroban_debugger6client13remote_clientNtB4_12RemoteClient7execute0B8_
FN:99,_RNCNvMNtNtCsjDzxbYtLkYp_16soroban_debugger6client13remote_clientNtB4_12RemoteClient7executes_0B8_
FN:333,_RNCNvMNtNtCs2jO2QXn3WZ6_16soroban_debugger6client13remote_clientNtB4_12RemoteClient12send_request0B8_
FN:340,_RNCNvMNtNtCs2jO2QXn3WZ6_16soroban_debugger6client13remote_clientNtB4_12RemoteClient12send_requests0_0B8_
FN:347,_RNCNvMNtNtCs2jO2QXn3WZ6_16soroban_debugger6client13remote_clientNtB4_12RemoteClient12send_requests1_0B8_
FN:348,_RNCNvMNtNtCs2jO2QXn3WZ6_16soroban_debugger6client13remote_clientNtB4_12RemoteClient12send_requests2_0B8_
FN:351,_RNCNvMNtNtCs2jO2QXn3WZ6_16soroban_debugger6client13remote_clientNtB4_12RemoteClient12send_requests3_0B8_
FN:353,_RNCNvMNtNtCs2jO2QXn3WZ6_16soroban_debugger6client13remote_clientNtB4_12RemoteClient12send_requests4_0B8_
FN:337,_RNCNvMNtNtCs2jO2QXn3WZ6_16soroban_debugger6client13remote_clientNtB4_12RemoteClient12send_requests_0B8_
FN:18,_RNCNvMNtNtCs2jO2QXn3WZ6_16soroban_debugger6client13remote_clientNtB4_12RemoteClient7connect0B8_
FN:86,_RNCNvMNtNtCs2jO2QXn3WZ6_16soroban_debugger6client13remote_clientNtB4_12RemoteClient7execute0B8_
FN:99,_RNCNvMNtNtCs2jO2QXn3WZ6_16soroban_debugger6client13remote_clientNtB4_12RemoteClient7executes_0B8_
FN:309,_RNvMNtNtCs2jO2QXn3WZ6_16soroban_debugger6client13remote_clientNtB2_12RemoteClient10disconnect
FN:187,_RNvMNtNtCs2jO2QXn3WZ6_16soroban_debugger6client13remote_clientNtB2_12RemoteClient10get_budget
FN:160,_RNvMNtNtCs2jO2QXn3WZ6_16soroban_debugger6client13remote_clientNtB2_12RemoteClient11get_storage
FN:256,_RNvMNtNtCs2jO2QXn3WZ6_16soroban_debugger6client13remote_clientNtB2_12RemoteClient11set_storage
FN:37,_RNvMNtNtCs2jO2QXn3WZ6_16soroban_debugger6client13remote_clientNtB2_12RemoteClient12authenticate
FN:316,_RNvMNtNtCs2jO2QXn3WZ6_16soroban_debugger6client13remote_clientNtB2_12RemoteClient12send_request
FN:64,_RNvMNtNtCs2jO2QXn3WZ6_16soroban_debugger6client13remote_clientNtB2_12RemoteClient13load_contract
FN:275,_RNvMNtNtCs2jO2QXn3WZ6_16soroban_debugger6client13remote_clientNtB2_12RemoteClient13load_snapshot
FN:204,_RNvMNtNtCs2jO2QXn3WZ6_16soroban_debugger6client13remote_clientNtB2_12RemoteClient14set_breakpoint
FN:223,_RNvMNtNtCs2jO2QXn3WZ6_16soroban_debugger6client13remote_clientNtB2_12RemoteClient16clear_breakpoint
FN:242,_RNvMNtNtCs2jO2QXn3WZ6_16soroban_debugger6client13remote_clientNtB2_12RemoteClient16list_breakpoints
FN:129,_RNvMNtNtCs2jO2QXn3WZ6_16soroban_debugger6client13remote_clientNtB2_12RemoteClient18continue_execution
FN:294,_RNvMNtNtCs2jO2QXn3WZ6_16soroban_debugger6client13remote_clientNtB2_12RemoteClient4ping
FN:112,_RNvMNtNtCs2jO2QXn3WZ6_16soroban_debugger6client13remote_clientNtB2_12RemoteClient4step
FN:16,_RNvMNtNtCs2jO2QXn3WZ6_16soroban_debugger6client13remote_clientNtB2_12RemoteClient7connect
FN:83,_RNvMNtNtCs2jO2QXn3WZ6_16soroban_debugger6client13remote_clientNtB2_12RemoteClient7execute
FN:142,_RNvMNtNtCs2jO2QXn3WZ6_16soroban_debugger6client13remote_clientNtB2_12RemoteClient7inspect
FN:174,_RNvMNtNtCs2jO2QXn3WZ6_16soroban_debugger6client13remote_clientNtB2_12RemoteClient9get_stack
FN:360,_RNvXs_NtNtCs2jO2QXn3WZ6_16soroban_debugger6client13remote_clientNtB4_12RemoteClientNtNtNtCslH02haMvknO_4core3ops4drop4Drop4drop
FNDA:0,_RNvXs_NtNtCsjDzxbYtLkYp_16soroban_debugger6client13remote_clientNtB4_12RemoteClientNtNtNtCslH02haMvknO_4core3ops4drop4Drop4drop
FNDA:0,_RNvMNtNtCsjDzxbYtLkYp_16soroban_debugger6client13remote_clientNtB2_12RemoteClient10disconnect
FNDA:0,_RNvMNtNtCsjDzxbYtLkYp_16soroban_debugger6client13remote_clientNtB2_12RemoteClient10get_budget
FNDA:0,_RNvMNtNtCsjDzxbYtLkYp_16soroban_debugger6client13remote_clientNtB2_12RemoteClient11get_storage
FNDA:0,_RNvMNtNtCsjDzxbYtLkYp_16soroban_debugger6client13remote_clientNtB2_12RemoteClient11set_storage
FNDA:0,_RNvMNtNtCsjDzxbYtLkYp_16soroban_debugger6client13remote_clientNtB2_12RemoteClient12authenticate
FNDA:0,_RNvMNtNtCsjDzxbYtLkYp_16soroban_debugger6client13remote_clientNtB2_12RemoteClient12send_request
FNDA:0,_RNvMNtNtCsjDzxbYtLkYp_16soroban_debugger6client13remote_clientNtB2_12RemoteClient13load_contract
FNDA:0,_RNvMNtNtCsjDzxbYtLkYp_16soroban_debugger6client13remote_clientNtB2_12RemoteClient13load_snapshot
FNDA:0,_RNvMNtNtCsjDzxbYtLkYp_16soroban_debugger6client13remote_clientNtB2_12RemoteClient14set_breakpoint
FNDA:0,_RNvMNtNtCsjDzxbYtLkYp_16soroban_debugger6client13remote_clientNtB2_12RemoteClient16clear_breakpoint
FNDA:0,_RNvMNtNtCsjDzxbYtLkYp_16soroban_debugger6client13remote_clientNtB2_12RemoteClient16list_breakpoints
FNDA:0,_RNvMNtNtCsjDzxbYtLkYp_16soroban_debugger6client13remote_clientNtB2_12RemoteClient18continue_execution
FNDA:0,_RNvMNtNtCsjDzxbYtLkYp_16soroban_debugger6client13remote_clientNtB2_12RemoteClient4ping
FNDA:0,_RNvMNtNtCsjDzxbYtLkYp_16soroban_debugger6client13remote_clientNtB2_12RemoteClient4step
FNDA:0,_RNvMNtNtCsjDzxbYtLkYp_16soroban_debugger6client13remote_clientNtB2_12RemoteClient7connect
FNDA:0,_RNvMNtNtCsjDzxbYtLkYp_16soroban_debugger6client13remote_clientNtB2_12RemoteClient7execute
FNDA:0,_RNvMNtNtCsjDzxbYtLkYp_16soroban_debugger6client13remote_clientNtB2_12RemoteClient7inspect
FNDA:0,_RNvMNtNtCsjDzxbYtLkYp_16soroban_debugger6client13remote_clientNtB2_12RemoteClient9get_stack
FNDA:0,_RNCNvMNtNtCsjDzxbYtLkYp_16soroban_debugger6client13remote_clientNtB4_12RemoteClient12send_request0B8_
FNDA:0,_RNCNvMNtNtCsjDzxbYtLkYp_16soroban_debugger6client13remote_clientNtB4_12RemoteClient12send_requests0_0B8_
FNDA:0,_RNCNvMNtNtCsjDzxbYtLkYp_16soroban_debugger6client13remote_clientNtB4_12RemoteClient12send_requests1_0B8_
FNDA:0,_RNCNvMNtNtCsjDzxbYtLkYp_16soroban_debugger6client13remote_clientNtB4_12RemoteClient12send_requests2_0B8_
FNDA:0,_RNCNvMNtNtCsjDzxbYtLkYp_16soroban_debugger6client13remote_clientNtB4_12RemoteClient12send_requests3_0B8_
FNDA:0,_RNCNvMNtNtCsjDzxbYtLkYp_16soroban_debugger6client13remote_clientNtB4_12RemoteClient12send_requests4_0B8_
FNDA:0,_RNCNvMNtNtCsjDzxbYtLkYp_16soroban_debugger6client13remote_clientNtB4_12RemoteClient12send_requests_0B8_
FNDA:0,_RNCNvMNtNtCsjDzxbYtLkYp_16soroban_debugger6client13remote_clientNtB4_12RemoteClient7connect0B8_
FNDA:0,_RNCNvMNtNtCsjDzxbYtLkYp_16soroban_debugger6client13remote_clientNtB4_12RemoteClient7execute0B8_
FNDA:0,_RNCNvMNtNtCsjDzxbYtLkYp_16soroban_debugger6client13remote_clientNtB4_12RemoteClient7executes_0B8_
FNDA:0,_RNCNvMNtNtCs2jO2QXn3WZ6_16soroban_debugger6client13remote_clientNtB4_12RemoteClient12send_request0B8_
FNDA:0,_RNCNvMNtNtCs2jO2QXn3WZ6_16soroban_debugger6client13remote_clientNtB4_12RemoteClient12send_requests0_0B8_
FNDA:0,_RNCNvMNtNtCs2jO2QXn3WZ6_16soroban_debugger6client13remote_clientNtB4_12RemoteClient12send_requests1_0B8_
FNDA:0,_RNCNvMNtNtCs2jO2QXn3WZ6_16soroban_debugger6client13remote_clientNtB4_12RemoteClient12send_requests2_0B8_
FNDA:0,_RNCNvMNtNtCs2jO2QXn3WZ6_16soroban_debugger6client13remote_clientNtB4_12RemoteClient12send_requests3_0B8_
FNDA:0,_RNCNvMNtNtCs2jO2QXn3WZ6_16soroban_debugger6client13remote_clientNtB4_12RemoteClient12send_requests4_0B8_
FNDA:0,_RNCNvMNtNtCs2jO2QXn3WZ6_16soroban_debugger6client13remote_clientNtB4_12RemoteClient12send_requests_0B8_
FNDA:0,_RNCNvMNtNtCs2jO2QXn3WZ6_16soroban_debugger6client13remote_clientNtB4_12RemoteClient7connect0B8_
FNDA:0,_RNCNvMNtNtCs2jO2QXn3WZ6_16soroban_debugger6client13remote_clientNtB4_12RemoteClient7execute0B8_
FNDA:0,_RNCNvMNtNtCs2jO2QXn3WZ6_16soroban_debugger6client13remote_clientNtB4_12RemoteClient7executes_0B8_
FNDA:0,_RNvMNtNtCs2jO2QXn3WZ6_16soroban_debugger6client13remote_clientNtB2_12RemoteClient10disconnect
FNDA:0,_RNvMNtNtCs2jO2QXn3WZ6_16soroban_debugger6client13remote_clientNtB2_12RemoteClient10get_budget
FNDA:0,_RNvMNtNtCs2jO2QXn3WZ6_16soroban_debugger6client13remote_clientNtB2_12RemoteClient11get_storage
FNDA:0,_RNvMNtNtCs2jO2QXn3WZ6_16soroban_debugger6client13remote_clientNtB2_12RemoteClient11set_storage
FNDA:0,_RNvMNtNtCs2jO2QXn3WZ6_16soroban_debugger6client13remote_clientNtB2_12RemoteClient12authenticate
FNDA:0,_RNvMNtNtCs2jO2QXn3WZ6_16soroban_debugger6client13remote_clientNtB2_12RemoteClient12send_request
FNDA:0,_RNvMNtNtCs2jO2QXn3WZ6_16soroban_debugger6client13remote_clientNtB2_12RemoteClient13load_contract
FNDA:0,_RNvMNtNtCs2jO2QXn3WZ6_16soroban_debugger6client13remote_clientNtB2_12RemoteClient13load_snapshot
FNDA:0,_RNvMNtNtCs2jO2QXn3WZ6_16soroban_debugger6client13remote_clientNtB2_12RemoteClient14set_breakpoint
FNDA:0,_RNvMNtNtCs2jO2QXn3WZ6_16soroban_debugger6client13remote_clientNtB2_12RemoteClient16clear_breakpoint
FNDA:0,_RNvMNtNtCs2jO2QXn3WZ6_16soroban_debugger6client13remote_clientNtB2_12RemoteClient16list_breakpoints
FNDA:0,_RNvMNtNtCs2jO2QXn3WZ6_16soroban_debugger6client13remote_clientNtB2_12RemoteClient18continue_execution
FNDA:0,_RNvMNtNtCs2jO2QXn3WZ6_16soroban_debugger6client13remote_clientNtB2_12RemoteClient4ping
FNDA:0,_RNvMNtNtCs2jO2QXn3WZ6_16soroban_debugger6client13remote_clientNtB2_12RemoteClient4step
FNDA:0,_RNvMNtNtCs2jO2QXn3WZ6_16soroban_debugger6client13remote_clientNtB2_12RemoteClient7connect
FNDA:0,_RNvMNtNtCs2jO2QXn3WZ6_16soroban_debugger6client13remote_clientNtB2_12RemoteClient7execute
FNDA:0,_RNvMNtNtCs2jO2QXn3WZ6_16soroban_debugger6client13remote_clientNtB2_12RemoteClient7inspect
FNDA:0,_RNvMNtNtCs2jO2QXn3WZ6_16soroban_debugger6client13remote_clientNtB2_12RemoteClient9get_stack
FNDA:0,_RNvXs_NtNtCs2jO2QXn3WZ6_16soroban_debugger6client13remote_clientNtB4_12RemoteClientNtNtNtCslH02haMvknO_4core3ops4drop4Drop4drop
FNF:29
FNH:0
DA:16,0
DA:17,0
DA:18,0
DA:19,0
DA:20,0
DA:22,0
DA:23,0
DA:24,0
DA:25,0
DA:26,0
DA:29,0
DA:30,0
DA:31,0
DA:33,0
DA:34,0
DA:37,0
DA:38,0
DA:39,0
DA:40,0
DA:42,0
DA:43,0
DA:44,0
DA:45,0
DA:46,0
DA:47,0
DA:49,0
DA:50,0
DA:51,0
DA:52,0
DA:53,0
DA:56,0
DA:57,0
DA:58,0
DA:59,0
DA:61,0
DA:64,0
DA:65,0
DA:66,0
DA:67,0
DA:69,0
DA:70,0
DA:71,0
DA:72,0
DA:74,0
DA:75,0
DA:76,0
DA:77,0
DA:78,0
DA:80,0
DA:83,0
DA:84,0
DA:85,0
DA:86,0
DA:87,0
DA:89,0
DA:91,0
DA:92,0
DA:93,0
DA:95,0
DA:96,0
DA:99,0
DA:101,0
DA:104,0
DA:105,0
DA:106,0
DA:107,0
DA:109,0
DA:112,0
DA:113,0
DA:115,0
DA:117,0
DA:118,0
DA:119,0
DA:120,0
DA:121,0
DA:123,0
DA:126,0
DA:129,0
DA:130,0
DA:132,0
DA:133,0
DA:134,0
DA:135,0
DA:136,0
DA:137,0
DA:139,0
DA:142,0
DA:143,0
DA:145,0
DA:147,0
DA:148,0
DA:149,0
DA:150,0
DA:151,0
DA:152,0
DA:153,0
DA:154,0
DA:155,0
DA:157,0
DA:160,0
DA:161,0
DA:163,0
DA:164,0
DA:165,0
DA:166,0
DA:167,0
DA:168,0
DA:169,0
DA:171,0
DA:174,0
DA:175,0
DA:177,0
DA:178,0
DA:179,0
DA:180,0
DA:181,0
DA:182,0
DA:184,0
DA:187,0
DA:188,0
DA:190,0
DA:192,0
DA:193,0
DA:194,0
DA:195,0
DA:196,0
DA:197,0
DA:198,0
DA:199,0
DA:201,0
DA:204,0
DA:205,0
DA:206,0
DA:207,0
DA:209,0
DA:211,0
DA:212,0
DA:214,0
DA:215,0
DA:216,0
DA:217,0
DA:218,0
DA:220,0
DA:223,0
DA:224,0
DA:225,0
DA:226,0
DA:228,0
DA:230,0
DA:231,0
DA:233,0
DA:234,0
DA:235,0
DA:236,0
DA:237,0
DA:239,0
DA:242,0
DA:243,0
DA:245,0
DA:246,0
DA:247,0
DA:248,0
DA:249,0
DA:250,0
DA:251,0
DA:253,0
DA:256,0
DA:257,0
DA:258,0
DA:259,0
DA:261,0
DA:263,0
DA:264,0
DA:266,0
DA:267,0
DA:268,0
DA:269,0
DA:270,0
DA:272,0
DA:275,0
DA:276,0
DA:277,0
DA:278,0
DA:280,0
DA:281,0
DA:282,0
DA:283,0
DA:285,0
DA:286,0
DA:287,0
DA:288,0
DA:289,0
DA:291,0
DA:294,0
DA:295,0
DA:297,0
DA:299,0
DA:300,0
DA:303,0
DA:306,0
DA:309,0
DA:310,0
DA:311,0
DA:312,0
DA:313,0
DA:316,0
DA:317,0
DA:318,0
DA:319,0
DA:323,0
DA:324,0
DA:325,0
DA:326,0
DA:327,0
DA:329,0
DA:330,0
DA:332,0
DA:333,0
DA:336,0
DA:337,0
DA:338,0
DA:339,0
DA:340,0
DA:343,0
DA:344,0
DA:345,0
DA:346,0
DA:347,0
DA:348,0
DA:350,0
DA:351,0
DA:353,0
DA:354,0
DA:355,0
DA:356,0
DA:360,0
DA:361,0
DA:362,0
BRF:0
BRH:0
LF:249
LH:0
end_of_record
SF:/home/admin/Desktop/opensource/soroban-debugger/src/codegen/test_gen.rs
FN:105,_RNCNvMNtNtCsjDzxbYtLkYp_16soroban_debugger7codegen8test_genNtB4_13TestGenerator13write_to_file0B8_
FN:114,_RNCNvMNtNtCsjDzxbYtLkYp_16soroban_debugger7codegen8test_genNtB4_13TestGenerator13write_to_files0_0B8_
FN:116,_RNCNvMNtNtCsjDzxbYtLkYp_16soroban_debugger7codegen8test_genNtB4_13TestGenerator13write_to_files1_0B8_
FN:110,_RNCNvMNtNtCsjDzxbYtLkYp_16soroban_debugger7codegen8test_genNtB4_13TestGenerator13write_to_files_0B8_
FN:30,_RNCNvMNtNtCsjDzxbYtLkYp_16soroban_debugger7codegen8test_genNtB4_13TestGenerator8generate0B8_
FN:50,_RNCNvMNtNtCsjDzxbYtLkYp_16soroban_debugger7codegen8test_genNtB4_13TestGenerator8generates0_0B8_
FN:71,_RNCNvMNtNtCsjDzxbYtLkYp_16soroban_debugger7codegen8test_genNtB4_13TestGenerator8generates1_0B8_
FN:31,_RNCNvMNtNtCsjDzxbYtLkYp_16soroban_debugger7codegen8test_genNtB4_13TestGenerator8generates_0B8_
FN:102,_RNvMNtNtCsjDzxbYtLkYp_16soroban_debugger7codegen8test_genNtB2_13TestGenerator13write_to_file
FN:12,_RNvMNtNtCsjDzxbYtLkYp_16soroban_debugger7codegen8test_genNtB2_13TestGenerator8generate
FN:105,_RNCNvMNtNtCs2jO2QXn3WZ6_16soroban_debugger7codegen8test_genNtB4_13TestGenerator13write_to_file0B8_
FN:114,_RNCNvMNtNtCs2jO2QXn3WZ6_16soroban_debugger7codegen8test_genNtB4_13TestGenerator13write_to_files0_0B8_
FN:116,_RNCNvMNtNtCs2jO2QXn3WZ6_16soroban_debugger7codegen8test_genNtB4_13TestGenerator13write_to_files1_0B8_
FN:110,_RNCNvMNtNtCs2jO2QXn3WZ6_16soroban_debugger7codegen8test_genNtB4_13TestGenerator13write_to_files_0B8_
FN:30,_RNCNvMNtNtCs2jO2QXn3WZ6_16soroban_debugger7codegen8test_genNtB4_13TestGenerator8generate0B8_
FN:50,_RNCNvMNtNtCs2jO2QXn3WZ6_16soroban_debugger7codegen8test_genNtB4_13TestGenerator8generates0_0B8_
FN:71,_RNCNvMNtNtCs2jO2QXn3WZ6_16soroban_debugger7codegen8test_genNtB4_13TestGenerator8generates1_0B8_
FN:31,_RNCNvMNtNtCs2jO2QXn3WZ6_16soroban_debugger7codegen8test_genNtB4_13TestGenerator8generates_0B8_
FN:102,_RNvMNtNtCs2jO2QXn3WZ6_16soroban_debugger7codegen8test_genNtB2_13TestGenerator13write_to_file
FN:12,_RNvMNtNtCs2jO2QXn3WZ6_16soroban_debugger7codegen8test_genNtB2_13TestGenerator8generate
FN:160,_RNvNtNtNtCs2jO2QXn3WZ6_16soroban_debugger7codegen8test_gen5testss_17test_write_append
FN:130,_RNvNtNtNtCs2jO2QXn3WZ6_16soroban_debugger7codegen8test_gen5testss_18test_generate_code
FN:148,_RNvNtNtNtCs2jO2QXn3WZ6_16soroban_debugger7codegen8test_gen5testss_20test_write_overwrite
FNDA:0,_RNCNvMNtNtCsjDzxbYtLkYp_16soroban_debugger7codegen8test_genNtB4_13TestGenerator13write_to_file0B8_
FNDA:0,_RNCNvMNtNtCsjDzxbYtLkYp_16soroban_debugger7codegen8test_genNtB4_13TestGenerator13write_to_files0_0B8_
FNDA:0,_RNCNvMNtNtCsjDzxbYtLkYp_16soroban_debugger7codegen8test_genNtB4_13TestGenerator13write_to_files1_0B8_
FNDA:0,_RNCNvMNtNtCsjDzxbYtLkYp_16soroban_debugger7codegen8test_genNtB4_13TestGenerator13write_to_files_0B8_
FNDA:0,_RNCNvMNtNtCsjDzxbYtLkYp_16soroban_debugger7codegen8test_genNtB4_13TestGenerator8generate0B8_
FNDA:0,_RNCNvMNtNtCsjDzxbYtLkYp_16soroban_debugger7codegen8test_genNtB4_13TestGenerator8generates0_0B8_
FNDA:0,_RNCNvMNtNtCsjDzxbYtLkYp_16soroban_debugger7codegen8test_genNtB4_13TestGenerator8generates1_0B8_
FNDA:0,_RNCNvMNtNtCsjDzxbYtLkYp_16soroban_debugger7codegen8test_genNtB4_13TestGenerator8generates_0B8_
FNDA:0,_RNvMNtNtCsjDzxbYtLkYp_16soroban_debugger7codegen8test_genNtB2_13TestGenerator13write_to_file
FNDA:0,_RNvMNtNtCsjDzxbYtLkYp_16soroban_debugger7codegen8test_genNtB2_13TestGenerator8generate
FNDA:0,_RNCNvMNtNtCs2jO2QXn3WZ6_16soroban_debugger7codegen8test_genNtB4_13TestGenerator13write_to_file0B8_
FNDA:0,_RNCNvMNtNtCs2jO2QXn3WZ6_16soroban_debugger7codegen8test_genNtB4_13TestGenerator13write_to_files0_0B8_
FNDA:0,_RNCNvMNtNtCs2jO2QXn3WZ6_16soroban_debugger7codegen8test_genNtB4_13TestGenerator13write_to_files1_0B8_
FNDA:0,_RNCNvMNtNtCs2jO2QXn3WZ6_16soroban_debugger7codegen8test_genNtB4_13TestGenerator13write_to_files_0B8_
FNDA:1,_RNCNvMNtNtCs2jO2QXn3WZ6_16soroban_debugger7codegen8test_genNtB4_13TestGenerator8generate0B8_
FNDA:0,_RNCNvMNtNtCs2jO2QXn3WZ6_16soroban_debugger7codegen8test_genNtB4_13TestGenerator8generates0_0B8_
FNDA:0,_RNCNvMNtNtCs2jO2QXn3WZ6_16soroban_debugger7codegen8test_genNtB4_13TestGenerator8generates1_0B8_
FNDA:0,_RNCNvMNtNtCs2jO2QXn3WZ6_16soroban_debugger7codegen8test_genNtB4_13TestGenerator8generates_0B8_
FNDA:4,_RNvMNtNtCs2jO2QXn3WZ6_16soroban_debugger7codegen8test_genNtB2_13TestGenerator13write_to_file
FNDA:1,_RNvMNtNtCs2jO2QXn3WZ6_16soroban_debugger7codegen8test_genNtB2_13TestGenerator8generate
FNDA:1,_RNvNtNtNtCs2jO2QXn3WZ6_16soroban_debugger7codegen8test_gen5testss_17test_write_append
FNDA:1,_RNvNtNtNtCs2jO2QXn3WZ6_16soroban_debugger7codegen8test_gen5testss_18test_generate_code
FNDA:1,_RNvNtNtNtCs2jO2QXn3WZ6_16soroban_debugger7codegen8test_gen5testss_20test_write_overwrite
FNF:13
FNH:6
DA:12,1
DA:13,1
DA:16,1
DA:19,1
DA:20,1
DA:23,1
DA:28,1
DA:29,1
DA:30,1
DA:31,1
DA:33,1
DA:34,1
DA:35,1
DA:36,1
DA:37,1
DA:38,1
DA:40,1
DA:41,1
DA:42,1
DA:43,1
DA:44,1
DA:47,1
DA:48,1
DA:49,2
DA:50,2
DA:51,0
DA:52,0
DA:53,2
DA:54,2
DA:55,2
DA:56,2
DA:58,1
DA:61,1
DA:62,1
DA:63,1
DA:64,1
DA:65,1
DA:68,1
DA:69,1
DA:70,1
DA:71,1
DA:72,0
DA:73,0
DA:74,0
DA:75,0
DA:76,0
DA:77,1
DA:78,1
DA:79,1
DA:80,1
DA:81,1
DA:83,0
DA:84,0
DA:85,0
DA:86,0
DA:90,1
DA:91,0
DA:92,0
DA:93,0
DA:94,0
DA:95,1
DA:97,1
DA:98,1
DA:99,1
DA:102,4
DA:103,4
DA:104,1
DA:105,1
DA:106,1
DA:107,1
DA:108,1
DA:109,1
DA:110,1
DA:113,3
DA:114,3
DA:115,0
DA:116,3
DA:118,4
DA:119,4
DA:130,1
DA:131,1
DA:132,1
DA:133,1
DA:134,1
DA:135,1
DA:136,1
DA:137,1
DA:138,1
DA:139,1
DA:141,1
DA:142,1
DA:143,1
DA:144,1
DA:145,1
DA:148,1
DA:149,1
DA:150,1
DA:152,1
DA:153,1
DA:155,1
DA:156,1
DA:157,1
DA:160,1
DA:161,1
DA:162,1
DA:164,1
DA:165,1
DA:167,1
DA:168,1
DA:169,1
DA:170,1
DA:171,1
BRF:0
BRH:0
LF:122
LH:97
end_of_record
SF:/home/admin/Desktop/opensource/soroban-debugger/src/compare/engine.rs
FN:380,_RNCNvMNtNtCsjDzxbYtLkYp_16soroban_debugger7compare6engineNtB4_13CompareEngine13render_report0B8_
FN:383,_RNCNvMNtNtCsjDzxbYtLkYp_16soroban_debugger7compare6engineNtB4_13CompareEngine13render_reports0_0B8_
FN:384,_RNCNvMNtNtCsjDzxbYtLkYp_16soroban_debugger7compare6engineNtB4_13CompareEngine13render_reports1_0B8_
FN:381,_RNCNvMNtNtCsjDzxbYtLkYp_16soroban_debugger7compare6engineNtB4_13CompareEngine13render_reports_0B8_
FN:93,_RNCNvMNtNtCsjDzxbYtLkYp_16soroban_debugger7compare6engineNtB4_13CompareEngine7compare0B8_
FN:97,_RNCNvMNtNtCsjDzxbYtLkYp_16soroban_debugger7compare6engineNtB4_13CompareEngine7compares_0B8_
FN:157,_RNvMNtNtCsjDzxbYtLkYp_16soroban_debugger7compare6engineNtB2_13CompareEngine11diff_budget
FN:253,_RNvMNtNtCsjDzxbYtLkYp_16soroban_debugger7compare6engineNtB2_13CompareEngine11diff_events
FN:242,_RNvMNtNtCsjDzxbYtLkYp_16soroban_debugger7compare6engineNtB2_13CompareEngine11format_call
FN:115,_RNvMNtNtCsjDzxbYtLkYp_16soroban_debugger7compare6engineNtB2_13CompareEngine12diff_storage
FN:265,_RNvMNtNtCsjDzxbYtLkYp_16soroban_debugger7compare6engineNtB2_13CompareEngine13render_report
FN:204,_RNvMNtNtCsjDzxbYtLkYp_16soroban_debugger7compare6engineNtB2_13CompareEngine16compute_lcs_diff
FN:177,_RNvMNtNtCsjDzxbYtLkYp_16soroban_debugger7compare6engineNtB2_13CompareEngine17diff_return_value
FN:451,_RNvMNtNtCsjDzxbYtLkYp_16soroban_debugger7compare6engineNtB2_13CompareEngine19format_call_display
FN:89,_RNvMNtNtCsjDzxbYtLkYp_16soroban_debugger7compare6engineNtB2_13CompareEngine7compare
FN:191,_RNvMNtNtCsjDzxbYtLkYp_16soroban_debugger7compare6engineNtB2_13CompareEngine9diff_flow
FN:380,_RNCNvMNtNtCs2jO2QXn3WZ6_16soroban_debugger7compare6engineNtB4_13CompareEngine13render_report0B8_
FN:383,_RNCNvMNtNtCs2jO2QXn3WZ6_16soroban_debugger7compare6engineNtB4_13CompareEngine13render_reports0_0B8_
FN:384,_RNCNvMNtNtCs2jO2QXn3WZ6_16soroban_debugger7compare6engineNtB4_13CompareEngine13render_reports1_0B8_
FN:381,_RNCNvMNtNtCs2jO2QXn3WZ6_16soroban_debugger7compare6engineNtB4_13CompareEngine13render_reports_0B8_
FN:93,_RNCNvMNtNtCs2jO2QXn3WZ6_16soroban_debugger7compare6engineNtB4_13CompareEngine7compare0B8_
FN:97,_RNCNvMNtNtCs2jO2QXn3WZ6_16soroban_debugger7compare6engineNtB4_13CompareEngine7compares_0B8_
FN:466,_RNvNtNtNtCs2jO2QXn3WZ6_16soroban_debugger7compare6engine5tests12make_trace_a
FN:514,_RNvNtNtNtCs2jO2QXn3WZ6_16soroban_debugger7compare6engine5tests12make_trace_b
FN:673,_RNvNtNtNtCs2jO2QXn3WZ6_16soroban_debugger7compare6engine5testss_21test_identical_traces
FN:640,_RNvNtNtNtCs2jO2QXn3WZ6_16soroban_debugger7compare6engine5testss_24test_flow_diff_identical
FN:659,_RNvNtNtNtCs2jO2QXn3WZ6_16soroban_debugger7compare6engine5testss_27test_render_report_no_panic
FN:615,_RNvNtNtNtCs2jO2QXn3WZ6_16soroban_debugger7compare6engine5testss_28test_return_value_diff_equal
FN:594,_RNvNtNtNtCs2jO2QXn3WZ6_16soroban_debugger7compare6engine5testss_32test_budget_diff_computes_deltas
FN:689,_RNvNtNtNtCs2jO2QXn3WZ6_16soroban_debugger7compare6engine5testss_32test_missing_budget_in_one_trace
FN:606,_RNvNtNtNtCs2jO2QXn3WZ6_16soroban_debugger7compare6engine5testss_32test_return_value_diff_not_equal
FN:625,_RNvNtNtNtCs2jO2QXn3WZ6_16soroban_debugger7compare6engine5testss_33test_flow_diff_detects_difference
FN:576,_RNvNtNtNtCs2jO2QXn3WZ6_16soroban_debugger7compare6engine5testss_33test_storage_diff_detects_changes
FN:650,_RNvNtNtNtCs2jO2QXn3WZ6_16soroban_debugger7compare6engine5testss_34test_event_diff_detects_difference
FN:636,_RNCNvNtNtNtCs2jO2QXn3WZ6_16soroban_debugger7compare6engine5testss_33test_flow_diff_detects_difference0B9_
FN:157,_RNvMNtNtCs2jO2QXn3WZ6_16soroban_debugger7compare6engineNtB2_13CompareEngine11diff_budget
FN:253,_RNvMNtNtCs2jO2QXn3WZ6_16soroban_debugger7compare6engineNtB2_13CompareEngine11diff_events
FN:242,_RNvMNtNtCs2jO2QXn3WZ6_16soroban_debugger7compare6engineNtB2_13CompareEngine11format_call
FN:115,_RNvMNtNtCs2jO2QXn3WZ6_16soroban_debugger7compare6engineNtB2_13CompareEngine12diff_storage
FN:265,_RNvMNtNtCs2jO2QXn3WZ6_16soroban_debugger7compare6engineNtB2_13CompareEngine13render_report
FN:204,_RNvMNtNtCs2jO2QXn3WZ6_16soroban_debugger7compare6engineNtB2_13CompareEngine16compute_lcs_diff
FN:177,_RNvMNtNtCs2jO2QXn3WZ6_16soroban_debugger7compare6engineNtB2_13CompareEngine17diff_return_value
FN:451,_RNvMNtNtCs2jO2QXn3WZ6_16soroban_debugger7compare6engineNtB2_13CompareEngine19format_call_display
FN:89,_RNvMNtNtCs2jO2QXn3WZ6_16soroban_debugger7compare6engineNtB2_13CompareEngine7compare
FN:191,_RNvMNtNtCs2jO2QXn3WZ6_16soroban_debugger7compare6engineNtB2_13CompareEngine9diff_flow
FNDA:1,_RNCNvMNtNtCsjDzxbYtLkYp_16soroban_debugger7compare6engineNtB4_13CompareEngine13render_report0B8_
FNDA:1,_RNCNvMNtNtCsjDzxbYtLkYp_16soroban_debugger7compare6engineNtB4_13CompareEngine13render_reports0_0B8_
FNDA:0,_RNCNvMNtNtCsjDzxbYtLkYp_16soroban_debugger7compare6engineNtB4_13CompareEngine13render_reports1_0B8_
FNDA:0,_RNCNvMNtNtCsjDzxbYtLkYp_16soroban_debugger7compare6engineNtB4_13CompareEngine13render_reports_0B8_
FNDA:2,_RNCNvMNtNtCsjDzxbYtLkYp_16soroban_debugger7compare6engineNtB4_13CompareEngine7compare0B8_
FNDA:2,_RNCNvMNtNtCsjDzxbYtLkYp_16soroban_debugger7compare6engineNtB4_13CompareEngine7compares_0B8_
FNDA:9,_RNvMNtNtCsjDzxbYtLkYp_16soroban_debugger7compare6engineNtB2_13CompareEngine11diff_budget
FNDA:9,_RNvMNtNtCsjDzxbYtLkYp_16soroban_debugger7compare6engineNtB2_13CompareEngine11diff_events
FNDA:33,_RNvMNtNtCsjDzxbYtLkYp_16soroban_debugger7compare6engineNtB2_13CompareEngine11format_call
FNDA:9,_RNvMNtNtCsjDzxbYtLkYp_16soroban_debugger7compare6engineNtB2_13CompareEngine12diff_storage
FNDA:2,_RNvMNtNtCsjDzxbYtLkYp_16soroban_debugger7compare6engineNtB2_13CompareEngine13render_report
FNDA:9,_RNvMNtNtCsjDzxbYtLkYp_16soroban_debugger7compare6engineNtB2_13CompareEngine16compute_lcs_diff
FNDA:9,_RNvMNtNtCsjDzxbYtLkYp_16soroban_debugger7compare6engineNtB2_13CompareEngine17diff_return_value
FNDA:0,_RNvMNtNtCsjDzxbYtLkYp_16soroban_debugger7compare6engineNtB2_13CompareEngine19format_call_display
FNDA:9,_RNvMNtNtCsjDzxbYtLkYp_16soroban_debugger7compare6engineNtB2_13CompareEngine7compare
FNDA:9,_RNvMNtNtCsjDzxbYtLkYp_16soroban_debugger7compare6engineNtB2_13CompareEngine9diff_flow
FNDA:1,_RNCNvMNtNtCs2jO2QXn3WZ6_16soroban_debugger7compare6engineNtB4_13CompareEngine13render_report0B8_
FNDA:1,_RNCNvMNtNtCs2jO2QXn3WZ6_16soroban_debugger7compare6engineNtB4_13CompareEngine13render_reports0_0B8_
FNDA:0,_RNCNvMNtNtCs2jO2QXn3WZ6_16soroban_debugger7compare6engineNtB4_13CompareEngine13render_reports1_0B8_
FNDA:0,_RNCNvMNtNtCs2jO2QXn3WZ6_16soroban_debugger7compare6engineNtB4_13CompareEngine13render_reports_0B8_
FNDA:0,_RNCNvMNtNtCs2jO2QXn3WZ6_16soroban_debugger7compare6engineNtB4_13CompareEngine7compare0B8_
FNDA:0,_RNCNvMNtNtCs2jO2QXn3WZ6_16soroban_debugger7compare6engineNtB4_13CompareEngine7compares_0B8_
FNDA:12,_RNvNtNtNtCs2jO2QXn3WZ6_16soroban_debugger7compare6engine5tests12make_trace_a
FNDA:8,_RNvNtNtNtCs2jO2QXn3WZ6_16soroban_debugger7compare6engine5tests12make_trace_b
FNDA:1,_RNvNtNtNtCs2jO2QXn3WZ6_16soroban_debugger7compare6engine5testss_21test_identical_traces
FNDA:1,_RNvNtNtNtCs2jO2QXn3WZ6_16soroban_debugger7compare6engine5testss_24test_flow_diff_identical
FNDA:1,_RNvNtNtNtCs2jO2QXn3WZ6_16soroban_debugger7compare6engine5testss_27test_render_report_no_panic
FNDA:1,_RNvNtNtNtCs2jO2QXn3WZ6_16soroban_debugger7compare6engine5testss_28test_return_value_diff_equal
FNDA:1,_RNvNtNtNtCs2jO2QXn3WZ6_16soroban_debugger7compare6engine5testss_32test_budget_diff_computes_deltas
FNDA:1,_RNvNtNtNtCs2jO2QXn3WZ6_16soroban_debugger7compare6engine5testss_32test_missing_budget_in_one_trace
FNDA:1,_RNvNtNtNtCs2jO2QXn3WZ6_16soroban_debugger7compare6engine5testss_32test_return_value_diff_not_equal
FNDA:1,_RNvNtNtNtCs2jO2QXn3WZ6_16soroban_debugger7compare6engine5testss_33test_flow_diff_detects_difference
FNDA:1,_RNvNtNtNtCs2jO2QXn3WZ6_16soroban_debugger7compare6engine5testss_33test_storage_diff_detects_changes
FNDA:1,_RNvNtNtNtCs2jO2QXn3WZ6_16soroban_debugger7compare6engine5testss_34test_event_diff_detects_difference
FNDA:2,_RNCNvNtNtNtCs2jO2QXn3WZ6_16soroban_debugger7compare6engine5testss_33test_flow_diff_detects_difference0B9_
FNDA:10,_RNvMNtNtCs2jO2QXn3WZ6_16soroban_debugger7compare6engineNtB2_13CompareEngine11diff_budget
FNDA:10,_RNvMNtNtCs2jO2QXn3WZ6_16soroban_debugger7compare6engineNtB2_13CompareEngine11diff_events
FNDA:56,_RNvMNtNtCs2jO2QXn3WZ6_16soroban_debugger7compare6engineNtB2_13CompareEngine11format_call
FNDA:10,_RNvMNtNtCs2jO2QXn3WZ6_16soroban_debugger7compare6engineNtB2_13CompareEngine12diff_storage
FNDA:1,_RNvMNtNtCs2jO2QXn3WZ6_16soroban_debugger7compare6engineNtB2_13CompareEngine13render_report
FNDA:10,_RNvMNtNtCs2jO2QXn3WZ6_16soroban_debugger7compare6engineNtB2_13CompareEngine16compute_lcs_diff
FNDA:10,_RNvMNtNtCs2jO2QXn3WZ6_16soroban_debugger7compare6engineNtB2_13CompareEngine17diff_return_value
FNDA:0,_RNvMNtNtCs2jO2QXn3WZ6_16soroban_debugger7compare6engineNtB2_13CompareEngine19format_call_display
FNDA:10,_RNvMNtNtCs2jO2QXn3WZ6_16soroban_debugger7compare6engineNtB2_13CompareEngine7compare
FNDA:10,_RNvMNtNtCs2jO2QXn3WZ6_16soroban_debugger7compare6engineNtB2_13CompareEngine9diff_flow
FNF:29
FNH:26
DA:89,19
DA:90,19
DA:91,19
DA:92,19
DA:93,19
DA:94,19
DA:95,19
DA:96,19
DA:97,19
DA:99,19
DA:100,19
DA:101,19
DA:102,19
DA:103,19
DA:104,19
DA:105,19
DA:106,19
DA:107,19
DA:108,19
DA:109,19
DA:110,19
DA:111,19
DA:115,19
DA:116,19
DA:117,19
DA:118,19
DA:119,19
DA:120,19
DA:122,19
DA:123,19
DA:124,19
DA:125,19
DA:127,51
DA:128,51
DA:129,0
DA:130,51
DA:133,65
DA:134,65
DA:135,14
DA:136,51
DA:139,51
DA:140,51
DA:141,22
DA:142,29
DA:143,29
DA:144,29
DA:147,19
DA:148,19
DA:149,19
DA:150,19
DA:151,19
DA:152,19
DA:153,19
DA:157,19
DA:158,19
DA:159,16
DA:160,3
DA:162,19
DA:163,16
DA:164,3
DA:167,19
DA:168,19
DA:169,19
DA:170,19
DA:171,19
DA:172,19
DA:173,19
DA:177,19
DA:178,19
DA:179,19
DA:180,19
DA:181,19
DA:182,19
DA:183,19
DA:184,19
DA:185,19
DA:186,19
DA:187,19
DA:191,19
DA:192,19
DA:193,19
DA:195,19
DA:196,19
DA:197,19
DA:198,19
DA:199,19
DA:200,19
DA:201,19
DA:204,19
DA:205,19
DA:206,19
DA:209,19
DA:210,61
DA:211,273
DA:212,273
DA:213,47
DA:214,226
DA:215,226
DA:216,226
DA:221,19
DA:222,19
DA:224,108
DA:225,89
DA:226,47
DA:227,47
DA:228,47
DA:229,47
DA:230,28
DA:231,28
DA:232,28
DA:233,14
DA:234,14
DA:235,14
DA:238,19
DA:239,19
DA:240,19
DA:242,89
DA:243,89
DA:244,89
DA:245,72
DA:247,17
DA:249,89
DA:253,19
DA:254,19
DA:255,19
DA:256,19
DA:257,19
DA:258,19
DA:259,19
DA:260,19
DA:265,3
DA:266,3
DA:268,3
DA:269,3
DA:270,3
DA:271,3
DA:272,3
DA:273,3
DA:274,3
DA:277,3
DA:278,3
DA:280,3
DA:281,1
DA:282,1
DA:283,2
DA:284,0
DA:285,0
DA:286,0
DA:287,0
DA:288,0
DA:289,2
DA:291,2
DA:292,2
DA:293,2
DA:294,2
DA:295,2
DA:296,2
DA:297,0
DA:299,2
DA:300,2
DA:301,3
DA:302,3
DA:303,3
DA:304,3
DA:305,3
DA:306,2
DA:307,0
DA:309,2
DA:311,3
DA:314,3
DA:315,3
DA:317,3
DA:318,2
DA:319,2
DA:320,2
DA:321,2
DA:322,2
DA:323,2
DA:324,2
DA:325,2
DA:326,2
DA:327,2
DA:328,2
DA:329,2
DA:330,2
DA:331,2
DA:332,2
DA:333,2
DA:334,2
DA:335,2
DA:336,2
DA:339,2
DA:340,2
DA:341,2
DA:342,2
DA:343,2
DA:344,2
DA:345,2
DA:346,2
DA:347,2
DA:349,1
DA:350,1
DA:351,1
DA:352,0
DA:353,0
DA:354,0
DA:355,0
DA:356,0
DA:357,0
DA:358,0
DA:359,0
DA:360,0
DA:361,0
DA:362,0
DA:363,0
DA:365,3
DA:368,3
DA:369,3
DA:371,3
DA:372,1
DA:373,0
DA:374,1
DA:377,2
DA:379,2
DA:380,2
DA:381,2
DA:382,2
DA:383,2
DA:384,2
DA:387,3
DA:390,3
DA:391,3
DA:393,3
DA:394,1
DA:395,1
DA:396,0
DA:397,0
DA:399,2
DA:400,11
DA:401,11
DA:402,5
DA:403,2
DA:404,4
DA:408,3
DA:411,3
DA:412,3
DA:414,3
DA:415,1
DA:416,1
DA:417,1
DA:418,0
DA:419,0
DA:421,2
DA:422,2
DA:423,2
DA:424,2
DA:425,2
DA:427,2
DA:428,2
DA:429,2
DA:430,2
DA:431,2
DA:432,2
DA:433,2
DA:436,2
DA:437,4
DA:438,4
DA:439,4
DA:440,4
DA:441,4
DA:442,4
DA:446,3
DA:448,3
DA:449,3
DA:451,0
DA:452,0
DA:453,0
DA:454,0
DA:456,0
DA:458,0
DA:466,12
DA:467,12
DA:468,12
DA:469,12
DA:470,12
DA:471,12
DA:472,12
DA:473,12
DA:474,12
DA:475,12
DA:476,12
DA:477,12
DA:478,12
DA:479,12
DA:480,12
DA:481,12
DA:482,12
DA:483,12
DA:484,12
DA:485,12
DA:486,12
DA:487,12
DA:488,12
DA:489,12
DA:490,12
DA:491,12
DA:492,12
DA:493,12
DA:494,12
DA:495,12
DA:496,12
DA:497,12
DA:498,12
DA:499,12
DA:500,12
DA:501,12
DA:502,12
DA:503,12
DA:504,12
DA:505,12
DA:506,12
DA:507,12
DA:508,12
DA:509,12
DA:510,12
DA:511,12
DA:512,12
DA:514,8
DA:515,8
DA:516,8
DA:517,8
DA:518,8
DA:519,8
DA:520,8
DA:521,8
DA:522,8
DA:523,8
DA:524,8
DA:525,8
DA:526,8
DA:527,8
DA:528,8
DA:529,8
DA:530,8
DA:531,8
DA:532,8
DA:533,8
DA:534,8
DA:535,8
DA:536,8
DA:537,8
DA:538,8
DA:539,8
DA:540,8
DA:541,8
DA:542,8
DA:543,8
DA:544,8
DA:545,8
DA:546,8
DA:547,8
DA:548,8
DA:549,8
DA:550,8
DA:551,8
DA:552,8
DA:553,8
DA:554,8
DA:555,8
DA:556,8
DA:557,8
DA:558,8
DA:559,8
DA:560,8
DA:561,8
DA:562,8
DA:563,8
DA:564,8
DA:565,8
DA:566,8
DA:567,8
DA:568,8
DA:569,8
DA:570,8
DA:571,8
DA:572,8
DA:573,8
DA:576,1
DA:577,1
DA:578,1
DA:579,1
DA:582,1
DA:584,1
DA:586,1
DA:588,1
DA:590,1
DA:591,1
DA:594,1
DA:595,1
DA:596,1
DA:597,1
DA:600,1
DA:602,1
DA:603,1
DA:606,1
DA:607,1
DA:608,1
DA:609,1
DA:611,1
DA:612,1
DA:615,1
DA:616,1
DA:617,1
DA:618,1
DA:619,1
DA:621,1
DA:622,1
DA:625,1
DA:626,1
DA:627,1
DA:628,1
DA:630,1
DA:632,1
DA:633,1
DA:634,1
DA:635,1
DA:636,2
DA:637,1
DA:640,1
DA:641,1
DA:642,1
DA:643,1
DA:644,1
DA:646,1
DA:647,1
DA:650,1
DA:651,1
DA:652,1
DA:653,1
DA:655,1
DA:656,1
DA:659,1
DA:660,1
DA:661,1
DA:662,1
DA:663,1
DA:665,1
DA:666,1
DA:667,1
DA:668,1
DA:669,1
DA:670,1
DA:673,1
DA:674,1
DA:675,1
DA:676,1
DA:678,1
DA:679,1
DA:680,1
DA:681,1
DA:682,1
DA:683,1
DA:684,1
DA:685,1
DA:686,1
DA:689,1
DA:690,1
DA:691,1
DA:692,1
DA:693,1
DA:695,1
DA:696,1
DA:697,1
BRF:0
BRH:0
LF:480
LH:447
end_of_record
SF:/home/admin/Desktop/opensource/soroban-debugger/src/compare/trace.rs
FN:90,_RINvMNtNtCsjDzxbYtLkYp_16soroban_debugger7compare5traceNtB3_14ExecutionTrace9from_fileRNtNtCs7dz5ZklJ0d7_3std4path7PathBufEB7_
FN:92,_RNCINvMNtNtCsjDzxbYtLkYp_16soroban_debugger7compare5traceNtB5_14ExecutionTrace9from_fileRNtNtCs7dz5ZklJ0d7_3std4path7PathBufE0B9_
FN:95,_RNCINvMNtNtCsjDzxbYtLkYp_16soroban_debugger7compare5traceNtB5_14ExecutionTrace9from_fileRNtNtCs7dz5ZklJ0d7_3std4path7PathBufEs_0B9_
FN:103,_RNCNvMNtNtCsjDzxbYtLkYp_16soroban_debugger7compare5traceNtB4_14ExecutionTrace7to_json0B8_
FN:102,_RNvMNtNtCsjDzxbYtLkYp_16soroban_debugger7compare5traceNtB2_14ExecutionTrace7to_json
FN:90,_RINvMNtNtCsjDzxbYtLkYp_16soroban_debugger7compare5traceNtB3_14ExecutionTrace9from_fileRNtNtCs7dz5ZklJ0d7_3std4path4PathECsc3NXs0bB38h_11integration
FN:90,_RINvMNtNtCsjDzxbYtLkYp_16soroban_debugger7compare5traceNtB3_14ExecutionTrace9from_fileReECsc3NXs0bB38h_11integration
FN:92,_RNCINvMNtNtCsjDzxbYtLkYp_16soroban_debugger7compare5traceNtB5_14ExecutionTrace9from_fileRNtNtCs7dz5ZklJ0d7_3std4path4PathE0Csc3NXs0bB38h_11integration
FN:95,_RNCINvMNtNtCsjDzxbYtLkYp_16soroban_debugger7compare5traceNtB5_14ExecutionTrace9from_fileRNtNtCs7dz5ZklJ0d7_3std4path4PathEs_0Csc3NXs0bB38h_11integration
FN:92,_RNCINvMNtNtCsjDzxbYtLkYp_16soroban_debugger7compare5traceNtB5_14ExecutionTrace9from_fileReE0Csc3NXs0bB38h_11integration
FN:95,_RNCINvMNtNtCsjDzxbYtLkYp_16soroban_debugger7compare5traceNtB5_14ExecutionTrace9from_fileReEs_0Csc3NXs0bB38h_11integration
FN:90,_RINvMNtNtCs2jO2QXn3WZ6_16soroban_debugger7compare5traceNtB3_14ExecutionTrace9from_filepEB7_
FN:92,_RNCINvMNtNtCs2jO2QXn3WZ6_16soroban_debugger7compare5traceNtB5_14ExecutionTrace9from_filepE0B9_
FN:95,_RNCINvMNtNtCs2jO2QXn3WZ6_16soroban_debugger7compare5traceNtB5_14ExecutionTrace9from_filepEs_0B9_
FN:103,_RNCNvMNtNtCs2jO2QXn3WZ6_16soroban_debugger7compare5traceNtB4_14ExecutionTrace7to_json0B8_
FN:102,_RNvMNtNtCs2jO2QXn3WZ6_16soroban_debugger7compare5traceNtB2_14ExecutionTrace7to_json
FNDA:15,_RINvMNtNtCsjDzxbYtLkYp_16soroban_debugger7compare5traceNtB3_14ExecutionTrace9from_fileRNtNtCs7dz5ZklJ0d7_3std4path7PathBufEB7_
FNDA:3,_RNCINvMNtNtCsjDzxbYtLkYp_16soroban_debugger7compare5traceNtB5_14ExecutionTrace9from_fileRNtNtCs7dz5ZklJ0d7_3std4path7PathBufE0B9_
FNDA:2,_RNCINvMNtNtCsjDzxbYtLkYp_16soroban_debugger7compare5traceNtB5_14ExecutionTrace9from_fileRNtNtCs7dz5ZklJ0d7_3std4path7PathBufEs_0B9_
FNDA:0,_RNCNvMNtNtCsjDzxbYtLkYp_16soroban_debugger7compare5traceNtB4_14ExecutionTrace7to_json0B8_
FNDA:0,_RNvMNtNtCsjDzxbYtLkYp_16soroban_debugger7compare5traceNtB2_14ExecutionTrace7to_json
FNDA:18,_RINvMNtNtCsjDzxbYtLkYp_16soroban_debugger7compare5traceNtB3_14ExecutionTrace9from_fileRNtNtCs7dz5ZklJ0d7_3std4path4PathECsc3NXs0bB38h_11integration
FNDA:1,_RINvMNtNtCsjDzxbYtLkYp_16soroban_debugger7compare5traceNtB3_14ExecutionTrace9from_fileReECsc3NXs0bB38h_11integration
FNDA:0,_RNCINvMNtNtCsjDzxbYtLkYp_16soroban_debugger7compare5traceNtB5_14ExecutionTrace9from_fileRNtNtCs7dz5ZklJ0d7_3std4path4PathE0Csc3NXs0bB38h_11integration
FNDA:1,_RNCINvMNtNtCsjDzxbYtLkYp_16soroban_debugger7compare5traceNtB5_14ExecutionTrace9from_fileRNtNtCs7dz5ZklJ0d7_3std4path4PathEs_0Csc3NXs0bB38h_11integration
FNDA:1,_RNCINvMNtNtCsjDzxbYtLkYp_16soroban_debugger7compare5traceNtB5_14ExecutionTrace9from_fileReE0Csc3NXs0bB38h_11integration
FNDA:0,_RNCINvMNtNtCsjDzxbYtLkYp_16soroban_debugger7compare5traceNtB5_14ExecutionTrace9from_fileReEs_0Csc3NXs0bB38h_11integration
FNDA:0,_RINvMNtNtCs2jO2QXn3WZ6_16soroban_debugger7compare5traceNtB3_14ExecutionTrace9from_filepEB7_
FNDA:0,_RNCINvMNtNtCs2jO2QXn3WZ6_16soroban_debugger7compare5traceNtB5_14ExecutionTrace9from_filepE0B9_
FNDA:0,_RNCINvMNtNtCs2jO2QXn3WZ6_16soroban_debugger7compare5traceNtB5_14ExecutionTrace9from_filepEs_0B9_
FNDA:0,_RNCNvMNtNtCs2jO2QXn3WZ6_16soroban_debugger7compare5traceNtB4_14ExecutionTrace7to_json0B8_
FNDA:0,_RNvMNtNtCs2jO2QXn3WZ6_16soroban_debugger7compare5traceNtB2_14ExecutionTrace7to_json
FNF:5
FNH:3
DA:90,34
DA:91,34
DA:92,34
DA:93,4
DA:94,4
DA:95,30
DA:96,3
DA:97,3
DA:98,27
DA:99,34
DA:102,0
DA:103,0
DA:104,0
DA:105,0
DA:106,0
BRF:0
BRH:0
LF:21
LH:14
end_of_record
SF:/home/admin/Desktop/opensource/soroban-debugger/src/config.rs
FN:65,_RNvMNtCsjDzxbYtLkYp_16soroban_debugger6configNtB2_6Config15load_or_default
FN:40,_RNvMNtCsjDzxbYtLkYp_16soroban_debugger6configNtB2_6Config4load
FN:47,_RNCNvMNtCsjDzxbYtLkYp_16soroban_debugger6configNtB4_6Config4load0B6_
FN:54,_RNCNvMNtCsjDzxbYtLkYp_16soroban_debugger6configNtB4_6Config4loads_0B6_
FN:47,_RNCNvMNtCs2jO2QXn3WZ6_16soroban_debugger6configNtB4_6Config4load0B6_
FN:54,_RNCNvMNtCs2jO2QXn3WZ6_16soroban_debugger6configNtB4_6Config4loads_0B6_
FN:65,_RNvMNtCs2jO2QXn3WZ6_16soroban_debugger6configNtB2_6Config15load_or_default
FN:40,_RNvMNtCs2jO2QXn3WZ6_16soroban_debugger6configNtB2_6Config4load
FNDA:66,_RNvMNtCsjDzxbYtLkYp_16soroban_debugger6configNtB2_6Config15load_or_default
FNDA:66,_RNvMNtCsjDzxbYtLkYp_16soroban_debugger6configNtB2_6Config4load
FNDA:0,_RNCNvMNtCsjDzxbYtLkYp_16soroban_debugger6configNtB4_6Config4load0B6_
FNDA:0,_RNCNvMNtCsjDzxbYtLkYp_16soroban_debugger6configNtB4_6Config4loads_0B6_
FNDA:0,_RNCNvMNtCs2jO2QXn3WZ6_16soroban_debugger6configNtB4_6Config4load0B6_
FNDA:0,_RNCNvMNtCs2jO2QXn3WZ6_16soroban_debugger6configNtB4_6Config4loads_0B6_
FNDA:0,_RNvMNtCs2jO2QXn3WZ6_16soroban_debugger6configNtB2_6Config15load_or_default
FNDA:0,_RNvMNtCs2jO2QXn3WZ6_16soroban_debugger6configNtB2_6Config4load
FNF:4
FNH:2
DA:40,66
DA:41,66
DA:43,66
DA:44,66
DA:45,0
DA:47,0
DA:48,0
DA:49,0
DA:50,0
DA:51,0
DA:52,0
DA:54,0
DA:55,0
DA:56,0
DA:57,0
DA:58,0
DA:59,0
DA:61,0
DA:62,66
DA:65,66
DA:66,66
DA:67,66
DA:68,0
DA:69,0
DA:70,0
DA:73,66
BRF:0
BRH:0
LF:30
LH:9
end_of_record
SF:/home/admin/Desktop/opensource/soroban-debugger/src/debugger/breakpoint.rs
FN:64,_RNvNtNtCsjDzxbYtLkYp_16soroban_debugger8debugger10breakpoint13find_operator
FN:27,_RNvMNtNtCsjDzxbYtLkYp_16soroban_debugger8debugger10breakpointNtB2_17BreakpointManager12should_break
FN:54,_RNvMNtNtCsjDzxbYtLkYp_16soroban_debugger8debugger10breakpointNtB2_17BreakpointManager15parse_condition
FN:17,_RNvMNtNtCsjDzxbYtLkYp_16soroban_debugger8debugger10breakpointNtB2_17BreakpointManager3add
FN:10,_RNvMNtNtCsjDzxbYtLkYp_16soroban_debugger8debugger10breakpointNtB2_17BreakpointManager3new
FN:32,_RNvMNtNtCsjDzxbYtLkYp_16soroban_debugger8debugger10breakpointNtB2_17BreakpointManager4list
FN:37,_RNvMNtNtCsjDzxbYtLkYp_16soroban_debugger8debugger10breakpointNtB2_17BreakpointManager5clear
FN:47,_RNvMNtNtCsjDzxbYtLkYp_16soroban_debugger8debugger10breakpointNtB2_17BreakpointManager5count
FN:22,_RNvMNtNtCsjDzxbYtLkYp_16soroban_debugger8debugger10breakpointNtB2_17BreakpointManager6remove
FN:42,_RNvMNtNtCsjDzxbYtLkYp_16soroban_debugger8debugger10breakpointNtB2_17BreakpointManager8is_empty
FN:75,_RNvXs_NtNtCsjDzxbYtLkYp_16soroban_debugger8debugger10breakpointNtB4_17BreakpointManagerNtNtCslH02haMvknO_4core7default7Default7default
FN:54,_RNvMNtNtCs2jO2QXn3WZ6_16soroban_debugger8debugger10breakpointNtB2_17BreakpointManager15parse_condition
FN:37,_RNvMNtNtCs2jO2QXn3WZ6_16soroban_debugger8debugger10breakpointNtB2_17BreakpointManager5clear
FN:47,_RNvMNtNtCs2jO2QXn3WZ6_16soroban_debugger8debugger10breakpointNtB2_17BreakpointManager5count
FN:42,_RNvMNtNtCs2jO2QXn3WZ6_16soroban_debugger8debugger10breakpointNtB2_17BreakpointManager8is_empty
FN:64,_RNvNtNtCs2jO2QXn3WZ6_16soroban_debugger8debugger10breakpoint13find_operator
FN:75,_RNvXs_NtNtCs2jO2QXn3WZ6_16soroban_debugger8debugger10breakpointNtB4_17BreakpointManagerNtNtCslH02haMvknO_4core7default7Default7default
FN:27,_RNvMNtNtCs2jO2QXn3WZ6_16soroban_debugger8debugger10breakpointNtB2_17BreakpointManager12should_break
FN:17,_RNvMNtNtCs2jO2QXn3WZ6_16soroban_debugger8debugger10breakpointNtB2_17BreakpointManager3add
FN:10,_RNvMNtNtCs2jO2QXn3WZ6_16soroban_debugger8debugger10breakpointNtB2_17BreakpointManager3new
FN:32,_RNvMNtNtCs2jO2QXn3WZ6_16soroban_debugger8debugger10breakpointNtB2_17BreakpointManager4list
FN:22,_RNvMNtNtCs2jO2QXn3WZ6_16soroban_debugger8debugger10breakpointNtB2_17BreakpointManager6remove
FN:85,_RNvNtNtNtCs2jO2QXn3WZ6_16soroban_debugger8debugger10breakpoint5testss_19test_add_breakpoint
FN:101,_RNvNtNtNtCs2jO2QXn3WZ6_16soroban_debugger8debugger10breakpoint5testss_21test_list_breakpoints
FN:93,_RNvNtNtNtCs2jO2QXn3WZ6_16soroban_debugger8debugger10breakpoint5testss_22test_remove_breakpoint
FNDA:0,_RNvNtNtCsjDzxbYtLkYp_16soroban_debugger8debugger10breakpoint13find_operator
FNDA:0,_RNvMNtNtCsjDzxbYtLkYp_16soroban_debugger8debugger10breakpointNtB2_17BreakpointManager12should_break
FNDA:0,_RNvMNtNtCsjDzxbYtLkYp_16soroban_debugger8debugger10breakpointNtB2_17BreakpointManager15parse_condition
FNDA:0,_RNvMNtNtCsjDzxbYtLkYp_16soroban_debugger8debugger10breakpointNtB2_17BreakpointManager3add
FNDA:0,_RNvMNtNtCsjDzxbYtLkYp_16soroban_debugger8debugger10breakpointNtB2_17BreakpointManager3new
FNDA:0,_RNvMNtNtCsjDzxbYtLkYp_16soroban_debugger8debugger10breakpointNtB2_17BreakpointManager4list
FNDA:0,_RNvMNtNtCsjDzxbYtLkYp_16soroban_debugger8debugger10breakpointNtB2_17BreakpointManager5clear
FNDA:0,_RNvMNtNtCsjDzxbYtLkYp_16soroban_debugger8debugger10breakpointNtB2_17BreakpointManager5count
FNDA:0,_RNvMNtNtCsjDzxbYtLkYp_16soroban_debugger8debugger10breakpointNtB2_17BreakpointManager6remove
FNDA:0,_RNvMNtNtCsjDzxbYtLkYp_16soroban_debugger8debugger10breakpointNtB2_17BreakpointManager8is_empty
FNDA:0,_RNvXs_NtNtCsjDzxbYtLkYp_16soroban_debugger8debugger10breakpointNtB4_17BreakpointManagerNtNtCslH02haMvknO_4core7default7Default7default
FNDA:0,_RNvMNtNtCs2jO2QXn3WZ6_16soroban_debugger8debugger10breakpointNtB2_17BreakpointManager15parse_condition
FNDA:0,_RNvMNtNtCs2jO2QXn3WZ6_16soroban_debugger8debugger10breakpointNtB2_17BreakpointManager5clear
FNDA:0,_RNvMNtNtCs2jO2QXn3WZ6_16soroban_debugger8debugger10breakpointNtB2_17BreakpointManager5count
FNDA:0,_RNvMNtNtCs2jO2QXn3WZ6_16soroban_debugger8debugger10breakpointNtB2_17BreakpointManager8is_empty
FNDA:0,_RNvNtNtCs2jO2QXn3WZ6_16soroban_debugger8debugger10breakpoint13find_operator
FNDA:0,_RNvXs_NtNtCs2jO2QXn3WZ6_16soroban_debugger8debugger10breakpointNtB4_17BreakpointManagerNtNtCslH02haMvknO_4core7default7Default7default
FNDA:3,_RNvMNtNtCs2jO2QXn3WZ6_16soroban_debugger8debugger10breakpointNtB2_17BreakpointManager12should_break
FNDA:4,_RNvMNtNtCs2jO2QXn3WZ6_16soroban_debugger8debugger10breakpointNtB2_17BreakpointManager3add
FNDA:3,_RNvMNtNtCs2jO2QXn3WZ6_16soroban_debugger8debugger10breakpointNtB2_17BreakpointManager3new
FNDA:1,_RNvMNtNtCs2jO2QXn3WZ6_16soroban_debugger8debugger10breakpointNtB2_17BreakpointManager4list
FNDA:1,_RNvMNtNtCs2jO2QXn3WZ6_16soroban_debugger8debugger10breakpointNtB2_17BreakpointManager6remove
FNDA:1,_RNvNtNtNtCs2jO2QXn3WZ6_16soroban_debugger8debugger10breakpoint5testss_19test_add_breakpoint
FNDA:1,_RNvNtNtNtCs2jO2QXn3WZ6_16soroban_debugger8debugger10breakpoint5testss_21test_list_breakpoints
FNDA:1,_RNvNtNtNtCs2jO2QXn3WZ6_16soroban_debugger8debugger10breakpoint5testss_22test_remove_breakpoint
FNF:14
FNH:8
DA:10,3
DA:11,3
DA:12,3
DA:13,3
DA:14,3
DA:17,4
DA:18,4
DA:19,4
DA:22,1
DA:23,1
DA:24,1
DA:27,3
DA:28,3
DA:29,3
DA:32,1
DA:33,1
DA:34,1
DA:37,0
DA:38,0
DA:39,0
DA:42,0
DA:43,0
DA:44,0
DA:47,0
DA:48,0
DA:49,0
DA:54,0
DA:56,0
DA:57,0
DA:58,0
DA:59,0
DA:60,0
DA:64,0
DA:65,0
DA:66,0
DA:67,0
DA:68,0
DA:69,0
DA:71,0
DA:72,0
DA:75,0
DA:76,0
DA:77,0
DA:85,1
DA:86,1
DA:87,1
DA:88,1
DA:89,1
DA:90,1
DA:93,1
DA:94,1
DA:95,1
DA:96,1
DA:97,1
DA:98,1
DA:101,1
DA:102,1
DA:103,1
DA:104,1
DA:105,1
DA:106,1
DA:107,1
DA:108,1
DA:109,1
BRF:0
BRH:0
LF:64
LH:38
end_of_record
SF:/home/admin/Desktop/opensource/soroban-debugger/src/debugger/engine.rs
FN:132,_RNCNvMNtNtCsjDzxbYtLkYp_16soroban_debugger8debugger6engineNtB4_14DebuggerEngine17update_call_stack0B8_
FN:270,_RNCNvMNtNtCsjDzxbYtLkYp_16soroban_debugger8debugger6engineNtB4_14DebuggerEngine19current_instruction0B8_
FN:278,_RNCNvMNtNtCsjDzxbYtLkYp_16soroban_debugger8debugger6engineNtB4_14DebuggerEngine23get_instruction_context0B8_
FN:50,_RNCNvMNtNtCsjDzxbYtLkYp_16soroban_debugger8debugger6engineNtB4_14DebuggerEngine24enable_instruction_debug0B8_
FN:196,_RNvMNtNtCsjDzxbYtLkYp_16soroban_debugger8debugger6engineNtB2_14DebuggerEngine10step_block
FN:293,_RNvMNtNtCsjDzxbYtLkYp_16soroban_debugger8debugger6engineNtB2_14DebuggerEngine12executor_mut
FN:285,_RNvMNtNtCsjDzxbYtLkYp_16soroban_debugger8debugger6engineNtB2_14DebuggerEngine15breakpoints_mut
FN:248,_RNvMNtNtCsjDzxbYtLkYp_16soroban_debugger8debugger6engineNtB2_14DebuggerEngine17pause_at_function
FN:113,_RNvMNtNtCsjDzxbYtLkYp_16soroban_debugger8debugger6engineNtB2_14DebuggerEngine17update_call_stack
FN:240,_RNvMNtNtCsjDzxbYtLkYp_16soroban_debugger8debugger6engineNtB2_14DebuggerEngine18continue_execution
FN:266,_RNvMNtNtCsjDzxbYtLkYp_16soroban_debugger8debugger6engineNtB2_14DebuggerEngine19current_instruction
FN:273,_RNvMNtNtCsjDzxbYtLkYp_16soroban_debugger8debugger6engineNtB2_14DebuggerEngine23get_instruction_context
FN:46,_RNvMNtNtCsjDzxbYtLkYp_16soroban_debugger8debugger6engineNtB2_14DebuggerEngine24enable_instruction_debug
FN:64,_RNvMNtNtCsjDzxbYtLkYp_16soroban_debugger8debugger6engineNtB2_14DebuggerEngine25disable_instruction_debug
FN:226,_RNvMNtNtCsjDzxbYtLkYp_16soroban_debugger8debugger6engineNtB2_14DebuggerEngine26start_instruction_stepping
FN:74,_RNvMNtNtCsjDzxbYtLkYp_16soroban_debugger8debugger6engineNtB2_14DebuggerEngine28is_instruction_debug_enabled
FN:26,_RNvMNtNtCsjDzxbYtLkYp_16soroban_debugger8debugger6engineNtB2_14DebuggerEngine3new
FN:298,_RNvMNtNtCsjDzxbYtLkYp_16soroban_debugger8debugger6engineNtB2_14DebuggerEngine4step
FN:262,_RNvMNtNtCsjDzxbYtLkYp_16soroban_debugger8debugger6engineNtB2_14DebuggerEngine5state
FN:80,_RNvMNtNtCsjDzxbYtLkYp_16soroban_debugger8debugger6engineNtB2_14DebuggerEngine7execute
FN:289,_RNvMNtNtCsjDzxbYtLkYp_16soroban_debugger8debugger6engineNtB2_14DebuggerEngine8executor
FN:181,_RNvMNtNtCsjDzxbYtLkYp_16soroban_debugger8debugger6engineNtB2_14DebuggerEngine8step_out
FN:258,_RNvMNtNtCsjDzxbYtLkYp_16soroban_debugger8debugger6engineNtB2_14DebuggerEngine9is_paused
FN:211,_RNvMNtNtCsjDzxbYtLkYp_16soroban_debugger8debugger6engineNtB2_14DebuggerEngine9step_back
FN:151,_RNvMNtNtCsjDzxbYtLkYp_16soroban_debugger8debugger6engineNtB2_14DebuggerEngine9step_into
FN:166,_RNvMNtNtCsjDzxbYtLkYp_16soroban_debugger8debugger6engineNtB2_14DebuggerEngine9step_over
FN:132,_RNCNvMNtNtCs2jO2QXn3WZ6_16soroban_debugger8debugger6engineNtB4_14DebuggerEngine17update_call_stack0B8_
FN:270,_RNCNvMNtNtCs2jO2QXn3WZ6_16soroban_debugger8debugger6engineNtB4_14DebuggerEngine19current_instruction0B8_
FN:278,_RNCNvMNtNtCs2jO2QXn3WZ6_16soroban_debugger8debugger6engineNtB4_14DebuggerEngine23get_instruction_context0B8_
FN:50,_RNCNvMNtNtCs2jO2QXn3WZ6_16soroban_debugger8debugger6engineNtB4_14DebuggerEngine24enable_instruction_debug0B8_
FN:196,_RNvMNtNtCs2jO2QXn3WZ6_16soroban_debugger8debugger6engineNtB2_14DebuggerEngine10step_block
FN:293,_RNvMNtNtCs2jO2QXn3WZ6_16soroban_debugger8debugger6engineNtB2_14DebuggerEngine12executor_mut
FN:285,_RNvMNtNtCs2jO2QXn3WZ6_16soroban_debugger8debugger6engineNtB2_14DebuggerEngine15breakpoints_mut
FN:248,_RNvMNtNtCs2jO2QXn3WZ6_16soroban_debugger8debugger6engineNtB2_14DebuggerEngine17pause_at_function
FN:113,_RNvMNtNtCs2jO2QXn3WZ6_16soroban_debugger8debugger6engineNtB2_14DebuggerEngine17update_call_stack
FN:240,_RNvMNtNtCs2jO2QXn3WZ6_16soroban_debugger8debugger6engineNtB2_14DebuggerEngine18continue_execution
FN:266,_RNvMNtNtCs2jO2QXn3WZ6_16soroban_debugger8debugger6engineNtB2_14DebuggerEngine19current_instruction
FN:273,_RNvMNtNtCs2jO2QXn3WZ6_16soroban_debugger8debugger6engineNtB2_14DebuggerEngine23get_instruction_context
FN:46,_RNvMNtNtCs2jO2QXn3WZ6_16soroban_debugger8debugger6engineNtB2_14DebuggerEngine24enable_instruction_debug
FN:64,_RNvMNtNtCs2jO2QXn3WZ6_16soroban_debugger8debugger6engineNtB2_14DebuggerEngine25disable_instruction_debug
FN:226,_RNvMNtNtCs2jO2QXn3WZ6_16soroban_debugger8debugger6engineNtB2_14DebuggerEngine26start_instruction_stepping
FN:74,_RNvMNtNtCs2jO2QXn3WZ6_16soroban_debugger8debugger6engineNtB2_14DebuggerEngine28is_instruction_debug_enabled
FN:26,_RNvMNtNtCs2jO2QXn3WZ6_16soroban_debugger8debugger6engineNtB2_14DebuggerEngine3new
FN:298,_RNvMNtNtCs2jO2QXn3WZ6_16soroban_debugger8debugger6engineNtB2_14DebuggerEngine4step
FN:262,_RNvMNtNtCs2jO2QXn3WZ6_16soroban_debugger8debugger6engineNtB2_14DebuggerEngine5state
FN:80,_RNvMNtNtCs2jO2QXn3WZ6_16soroban_debugger8debugger6engineNtB2_14DebuggerEngine7execute
FN:289,_RNvMNtNtCs2jO2QXn3WZ6_16soroban_debugger8debugger6engineNtB2_14DebuggerEngine8executor
FN:181,_RNvMNtNtCs2jO2QXn3WZ6_16soroban_debugger8debugger6engineNtB2_14DebuggerEngine8step_out
FN:258,_RNvMNtNtCs2jO2QXn3WZ6_16soroban_debugger8debugger6engineNtB2_14DebuggerEngine9is_paused
FN:211,_RNvMNtNtCs2jO2QXn3WZ6_16soroban_debugger8debugger6engineNtB2_14DebuggerEngine9step_back
FN:151,_RNvMNtNtCs2jO2QXn3WZ6_16soroban_debugger8debugger6engineNtB2_14DebuggerEngine9step_into
FN:166,_RNvMNtNtCs2jO2QXn3WZ6_16soroban_debugger8debugger6engineNtB2_14DebuggerEngine9step_over
FNDA:0,_RNCNvMNtNtCsjDzxbYtLkYp_16soroban_debugger8debugger6engineNtB4_14DebuggerEngine17update_call_stack0B8_
FNDA:0,_RNCNvMNtNtCsjDzxbYtLkYp_16soroban_debugger8debugger6engineNtB4_14DebuggerEngine19current_instruction0B8_
FNDA:0,_RNCNvMNtNtCsjDzxbYtLkYp_16soroban_debugger8debugger6engineNtB4_14DebuggerEngine23get_instruction_context0B8_
FNDA:0,_RNCNvMNtNtCsjDzxbYtLkYp_16soroban_debugger8debugger6engineNtB4_14DebuggerEngine24enable_instruction_debug0B8_
FNDA:0,_RNvMNtNtCsjDzxbYtLkYp_16soroban_debugger8debugger6engineNtB2_14DebuggerEngine10step_block
FNDA:0,_RNvMNtNtCsjDzxbYtLkYp_16soroban_debugger8debugger6engineNtB2_14DebuggerEngine12executor_mut
FNDA:0,_RNvMNtNtCsjDzxbYtLkYp_16soroban_debugger8debugger6engineNtB2_14DebuggerEngine15breakpoints_mut
FNDA:0,_RNvMNtNtCsjDzxbYtLkYp_16soroban_debugger8debugger6engineNtB2_14DebuggerEngine17pause_at_function
FNDA:0,_RNvMNtNtCsjDzxbYtLkYp_16soroban_debugger8debugger6engineNtB2_14DebuggerEngine17update_call_stack
FNDA:0,_RNvMNtNtCsjDzxbYtLkYp_16soroban_debugger8debugger6engineNtB2_14DebuggerEngine18continue_execution
FNDA:0,_RNvMNtNtCsjDzxbYtLkYp_16soroban_debugger8debugger6engineNtB2_14DebuggerEngine19current_instruction
FNDA:0,_RNvMNtNtCsjDzxbYtLkYp_16soroban_debugger8debugger6engineNtB2_14DebuggerEngine23get_instruction_context
FNDA:0,_RNvMNtNtCsjDzxbYtLkYp_16soroban_debugger8debugger6engineNtB2_14DebuggerEngine24enable_instruction_debug
FNDA:0,_RNvMNtNtCsjDzxbYtLkYp_16soroban_debugger8debugger6engineNtB2_14DebuggerEngine25disable_instruction_debug
FNDA:0,_RNvMNtNtCsjDzxbYtLkYp_16soroban_debugger8debugger6engineNtB2_14DebuggerEngine26start_instruction_stepping
FNDA:0,_RNvMNtNtCsjDzxbYtLkYp_16soroban_debugger8debugger6engineNtB2_14DebuggerEngine28is_instruction_debug_enabled
FNDA:0,_RNvMNtNtCsjDzxbYtLkYp_16soroban_debugger8debugger6engineNtB2_14DebuggerEngine3new
FNDA:0,_RNvMNtNtCsjDzxbYtLkYp_16soroban_debugger8debugger6engineNtB2_14DebuggerEngine4step
FNDA:0,_RNvMNtNtCsjDzxbYtLkYp_16soroban_debugger8debugger6engineNtB2_14DebuggerEngine5state
FNDA:0,_RNvMNtNtCsjDzxbYtLkYp_16soroban_debugger8debugger6engineNtB2_14DebuggerEngine7execute
FNDA:0,_RNvMNtNtCsjDzxbYtLkYp_16soroban_debugger8debugger6engineNtB2_14DebuggerEngine8executor
FNDA:0,_RNvMNtNtCsjDzxbYtLkYp_16soroban_debugger8debugger6engineNtB2_14DebuggerEngine8step_out
FNDA:0,_RNvMNtNtCsjDzxbYtLkYp_16soroban_debugger8debugger6engineNtB2_14DebuggerEngine9is_paused
FNDA:0,_RNvMNtNtCsjDzxbYtLkYp_16soroban_debugger8debugger6engineNtB2_14DebuggerEngine9step_back
FNDA:0,_RNvMNtNtCsjDzxbYtLkYp_16soroban_debugger8debugger6engineNtB2_14DebuggerEngine9step_into
FNDA:0,_RNvMNtNtCsjDzxbYtLkYp_16soroban_debugger8debugger6engineNtB2_14DebuggerEngine9step_over
FNDA:0,_RNCNvMNtNtCs2jO2QXn3WZ6_16soroban_debugger8debugger6engineNtB4_14DebuggerEngine17update_call_stack0B8_
FNDA:0,_RNCNvMNtNtCs2jO2QXn3WZ6_16soroban_debugger8debugger6engineNtB4_14DebuggerEngine19current_instruction0B8_
FNDA:0,_RNCNvMNtNtCs2jO2QXn3WZ6_16soroban_debugger8debugger6engineNtB4_14DebuggerEngine23get_instruction_context0B8_
FNDA:0,_RNCNvMNtNtCs2jO2QXn3WZ6_16soroban_debugger8debugger6engineNtB4_14DebuggerEngine24enable_instruction_debug0B8_
FNDA:0,_RNvMNtNtCs2jO2QXn3WZ6_16soroban_debugger8debugger6engineNtB2_14DebuggerEngine10step_block
FNDA:0,_RNvMNtNtCs2jO2QXn3WZ6_16soroban_debugger8debugger6engineNtB2_14DebuggerEngine12executor_mut
FNDA:0,_RNvMNtNtCs2jO2QXn3WZ6_16soroban_debugger8debugger6engineNtB2_14DebuggerEngine15breakpoints_mut
FNDA:0,_RNvMNtNtCs2jO2QXn3WZ6_16soroban_debugger8debugger6engineNtB2_14DebuggerEngine17pause_at_function
FNDA:0,_RNvMNtNtCs2jO2QXn3WZ6_16soroban_debugger8debugger6engineNtB2_14DebuggerEngine17update_call_stack
FNDA:0,_RNvMNtNtCs2jO2QXn3WZ6_16soroban_debugger8debugger6engineNtB2_14DebuggerEngine18continue_execution
FNDA:0,_RNvMNtNtCs2jO2QXn3WZ6_16soroban_debugger8debugger6engineNtB2_14DebuggerEngine19current_instruction
FNDA:0,_RNvMNtNtCs2jO2QXn3WZ6_16soroban_debugger8debugger6engineNtB2_14DebuggerEngine23get_instruction_context
FNDA:0,_RNvMNtNtCs2jO2QXn3WZ6_16soroban_debugger8debugger6engineNtB2_14DebuggerEngine24enable_instruction_debug
FNDA:0,_RNvMNtNtCs2jO2QXn3WZ6_16soroban_debugger8debugger6engineNtB2_14DebuggerEngine25disable_instruction_debug
FNDA:0,_RNvMNtNtCs2jO2QXn3WZ6_16soroban_debugger8debugger6engineNtB2_14DebuggerEngine26start_instruction_stepping
FNDA:0,_RNvMNtNtCs2jO2QXn3WZ6_16soroban_debugger8debugger6engineNtB2_14DebuggerEngine28is_instruction_debug_enabled
FNDA:0,_RNvMNtNtCs2jO2QXn3WZ6_16soroban_debugger8debugger6engineNtB2_14DebuggerEngine3new
FNDA:0,_RNvMNtNtCs2jO2QXn3WZ6_16soroban_debugger8debugger6engineNtB2_14DebuggerEngine4step
FNDA:0,_RNvMNtNtCs2jO2QXn3WZ6_16soroban_debugger8debugger6engineNtB2_14DebuggerEngine5state
FNDA:0,_RNvMNtNtCs2jO2QXn3WZ6_16soroban_debugger8debugger6engineNtB2_14DebuggerEngine7execute
FNDA:0,_RNvMNtNtCs2jO2QXn3WZ6_16soroban_debugger8debugger6engineNtB2_14DebuggerEngine8executor
FNDA:0,_RNvMNtNtCs2jO2QXn3WZ6_16soroban_debugger8debugger6engineNtB2_14DebuggerEngine8step_out
FNDA:0,_RNvMNtNtCs2jO2QXn3WZ6_16soroban_debugger8debugger6engineNtB2_14DebuggerEngine9is_paused
FNDA:0,_RNvMNtNtCs2jO2QXn3WZ6_16soroban_debugger8debugger6engineNtB2_14DebuggerEngine9step_back
FNDA:0,_RNvMNtNtCs2jO2QXn3WZ6_16soroban_debugger8debugger6engineNtB2_14DebuggerEngine9step_into
FNDA:0,_RNvMNtNtCs2jO2QXn3WZ6_16soroban_debugger8debugger6engineNtB2_14DebuggerEngine9step_over
FNF:26
FNH:0
DA:26,0
DA:27,0
DA:29,0
DA:30,0
DA:31,0
DA:34,0
DA:35,0
DA:36,0
DA:37,0
DA:38,0
DA:39,0
DA:40,0
DA:41,0
DA:42,0
DA:43,0
DA:46,0
DA:47,0
DA:48,0
DA:49,0
DA:50,0
DA:51,0
DA:53,0
DA:54,0
DA:55,0
DA:56,0
DA:58,0
DA:59,0
DA:60,0
DA:61,0
DA:64,0
DA:65,0
DA:66,0
DA:67,0
DA:68,0
DA:69,0
DA:70,0
DA:71,0
DA:74,0
DA:75,0
DA:76,0
DA:80,0
DA:81,0
DA:83,0
DA:84,0
DA:85,0
DA:86,0
DA:87,0
DA:89,0
DA:90,0
DA:91,0
DA:93,0
DA:94,0
DA:95,0
DA:97,0
DA:99,0
DA:100,0
DA:101,0
DA:102,0
DA:103,0
DA:104,0
DA:105,0
DA:106,0
DA:107,0
DA:108,0
DA:110,0
DA:111,0
DA:113,0
DA:114,0
DA:116,0
DA:117,0
DA:119,0
DA:122,0
DA:123,0
DA:124,0
DA:125,0
DA:127,0
DA:128,0
DA:129,0
DA:130,0
DA:132,0
DA:133,0
DA:134,0
DA:135,0
DA:136,0
DA:137,0
DA:138,0
DA:141,0
DA:142,0
DA:143,0
DA:144,0
DA:145,0
DA:147,0
DA:148,0
DA:151,0
DA:152,0
DA:153,0
DA:154,0
DA:156,0
DA:157,0
DA:159,0
DA:161,0
DA:162,0
DA:163,0
DA:166,0
DA:167,0
DA:168,0
DA:169,0
DA:171,0
DA:172,0
DA:174,0
DA:176,0
DA:177,0
DA:178,0
DA:181,0
DA:182,0
DA:183,0
DA:184,0
DA:186,0
DA:187,0
DA:189,0
DA:191,0
DA:192,0
DA:193,0
DA:196,0
DA:197,0
DA:198,0
DA:199,0
DA:201,0
DA:202,0
DA:204,0
DA:206,0
DA:207,0
DA:208,0
DA:211,0
DA:212,0
DA:213,0
DA:214,0
DA:216,0
DA:217,0
DA:219,0
DA:221,0
DA:222,0
DA:223,0
DA:226,0
DA:227,0
DA:228,0
DA:229,0
DA:231,0
DA:232,0
DA:233,0
DA:234,0
DA:236,0
DA:237,0
DA:240,0
DA:241,0
DA:242,0
DA:243,0
DA:244,0
DA:245,0
DA:246,0
DA:248,0
DA:249,0
DA:250,0
DA:252,0
DA:253,0
DA:254,0
DA:255,0
DA:256,0
DA:258,0
DA:259,0
DA:260,0
DA:262,0
DA:263,0
DA:264,0
DA:266,0
DA:267,0
DA:268,0
DA:269,0
DA:270,0
DA:271,0
DA:273,0
DA:274,0
DA:275,0
DA:276,0
DA:277,0
DA:278,0
DA:279,0
DA:281,0
DA:283,0
DA:285,0
DA:286,0
DA:287,0
DA:289,0
DA:290,0
DA:291,0
DA:293,0
DA:294,0
DA:295,0
DA:298,0
DA:299,0
DA:300,0
DA:301,0
DA:302,0
DA:303,0
DA:304,0
DA:305,0
DA:306,0
BRF:0
BRH:0
LF:211
LH:0
end_of_record
SF:/home/admin/Desktop/opensource/soroban-debugger/src/debugger/error_db.rs
FN:128,_RNCNvMNtNtCsjDzxbYtLkYp_16soroban_debugger8debugger8error_dbNtB4_13ErrorDatabase28load_custom_errors_from_wasm0B8_
FN:119,_RNCNvMNtNtCsjDzxbYtLkYp_16soroban_debugger8debugger8error_dbNtB4_13ErrorDatabase6lookup0B8_
FN:142,_RNvMNtNtCsjDzxbYtLkYp_16soroban_debugger8debugger8error_dbNtB2_13ErrorDatabase13display_error
FN:122,_RNvMNtNtCsjDzxbYtLkYp_16soroban_debugger8debugger8error_dbNtB2_13ErrorDatabase16add_custom_error
FN:28,_RNvMNtNtCsjDzxbYtLkYp_16soroban_debugger8debugger8error_dbNtB2_13ErrorDatabase20init_standard_errors
FN:126,_RNvMNtNtCsjDzxbYtLkYp_16soroban_debugger8debugger8error_dbNtB2_13ErrorDatabase28load_custom_errors_from_wasm
FN:19,_RNvMNtNtCsjDzxbYtLkYp_16soroban_debugger8debugger8error_dbNtB2_13ErrorDatabase3new
FN:116,_RNvMNtNtCsjDzxbYtLkYp_16soroban_debugger8debugger8error_dbNtB2_13ErrorDatabase6lookup
FN:191,_RNvXs_NtNtCsjDzxbYtLkYp_16soroban_debugger8debugger8error_dbNtB4_13ErrorDatabaseNtNtCslH02haMvknO_4core7default7Default7default
FN:191,_RNvXs_NtNtCs2jO2QXn3WZ6_16soroban_debugger8debugger8error_dbNtB4_13ErrorDatabaseNtNtCslH02haMvknO_4core7default7Default7default
FN:212,_RNvNtNtNtCs2jO2QXn3WZ6_16soroban_debugger8debugger8error_db5testss_26test_custom_error_addition
FN:201,_RNvNtNtNtCs2jO2QXn3WZ6_16soroban_debugger8debugger8error_db5testss_26test_standard_error_lookup
FN:128,_RNCNvMNtNtCs2jO2QXn3WZ6_16soroban_debugger8debugger8error_dbNtB4_13ErrorDatabase28load_custom_errors_from_wasm0B8_
FN:119,_RNCNvMNtNtCs2jO2QXn3WZ6_16soroban_debugger8debugger8error_dbNtB4_13ErrorDatabase6lookup0B8_
FN:142,_RNvMNtNtCs2jO2QXn3WZ6_16soroban_debugger8debugger8error_dbNtB2_13ErrorDatabase13display_error
FN:122,_RNvMNtNtCs2jO2QXn3WZ6_16soroban_debugger8debugger8error_dbNtB2_13ErrorDatabase16add_custom_error
FN:28,_RNvMNtNtCs2jO2QXn3WZ6_16soroban_debugger8debugger8error_dbNtB2_13ErrorDatabase20init_standard_errors
FN:126,_RNvMNtNtCs2jO2QXn3WZ6_16soroban_debugger8debugger8error_dbNtB2_13ErrorDatabase28load_custom_errors_from_wasm
FN:19,_RNvMNtNtCs2jO2QXn3WZ6_16soroban_debugger8debugger8error_dbNtB2_13ErrorDatabase3new
FN:116,_RNvMNtNtCs2jO2QXn3WZ6_16soroban_debugger8debugger8error_dbNtB2_13ErrorDatabase6lookup
FNDA:0,_RNCNvMNtNtCsjDzxbYtLkYp_16soroban_debugger8debugger8error_dbNtB4_13ErrorDatabase28load_custom_errors_from_wasm0B8_
FNDA:0,_RNCNvMNtNtCsjDzxbYtLkYp_16soroban_debugger8debugger8error_dbNtB4_13ErrorDatabase6lookup0B8_
FNDA:0,_RNvMNtNtCsjDzxbYtLkYp_16soroban_debugger8debugger8error_dbNtB2_13ErrorDatabase13display_error
FNDA:0,_RNvMNtNtCsjDzxbYtLkYp_16soroban_debugger8debugger8error_dbNtB2_13ErrorDatabase16add_custom_error
FNDA:0,_RNvMNtNtCsjDzxbYtLkYp_16soroban_debugger8debugger8error_dbNtB2_13ErrorDatabase20init_standard_errors
FNDA:0,_RNvMNtNtCsjDzxbYtLkYp_16soroban_debugger8debugger8error_dbNtB2_13ErrorDatabase28load_custom_errors_from_wasm
FNDA:0,_RNvMNtNtCsjDzxbYtLkYp_16soroban_debugger8debugger8error_dbNtB2_13ErrorDatabase3new
FNDA:0,_RNvMNtNtCsjDzxbYtLkYp_16soroban_debugger8debugger8error_dbNtB2_13ErrorDatabase6lookup
FNDA:0,_RNvXs_NtNtCsjDzxbYtLkYp_16soroban_debugger8debugger8error_dbNtB4_13ErrorDatabaseNtNtCslH02haMvknO_4core7default7Default7default
FNDA:0,_RNvXs_NtNtCs2jO2QXn3WZ6_16soroban_debugger8debugger8error_dbNtB4_13ErrorDatabaseNtNtCslH02haMvknO_4core7default7Default7default
FNDA:1,_RNvNtNtNtCs2jO2QXn3WZ6_16soroban_debugger8debugger8error_db5testss_26test_custom_error_addition
FNDA:1,_RNvNtNtNtCs2jO2QXn3WZ6_16soroban_debugger8debugger8error_db5testss_26test_standard_error_lookup
FNDA:0,_RNCNvMNtNtCs2jO2QXn3WZ6_16soroban_debugger8debugger8error_dbNtB4_13ErrorDatabase28load_custom_errors_from_wasm0B8_
FNDA:2,_RNCNvMNtNtCs2jO2QXn3WZ6_16soroban_debugger8debugger8error_dbNtB4_13ErrorDatabase6lookup0B8_
FNDA:0,_RNvMNtNtCs2jO2QXn3WZ6_16soroban_debugger8debugger8error_dbNtB2_13ErrorDatabase13display_error
FNDA:1,_RNvMNtNtCs2jO2QXn3WZ6_16soroban_debugger8debugger8error_dbNtB2_13ErrorDatabase16add_custom_error
FNDA:2,_RNvMNtNtCs2jO2QXn3WZ6_16soroban_debugger8debugger8error_dbNtB2_13ErrorDatabase20init_standard_errors
FNDA:0,_RNvMNtNtCs2jO2QXn3WZ6_16soroban_debugger8debugger8error_dbNtB2_13ErrorDatabase28load_custom_errors_from_wasm
FNDA:2,_RNvMNtNtCs2jO2QXn3WZ6_16soroban_debugger8debugger8error_dbNtB2_13ErrorDatabase3new
FNDA:3,_RNvMNtNtCs2jO2QXn3WZ6_16soroban_debugger8debugger8error_dbNtB2_13ErrorDatabase6lookup
FNF:11
FNH:7
DA:19,2
DA:20,2
DA:21,2
DA:22,2
DA:23,2
DA:24,2
DA:25,2
DA:26,2
DA:28,2
DA:29,2
DA:30,2
DA:31,2
DA:32,2
DA:33,2
DA:34,2
DA:35,2
DA:36,2
DA:37,2
DA:38,2
DA:39,2
DA:40,2
DA:41,2
DA:42,2
DA:43,2
DA:44,2
DA:45,2
DA:46,2
DA:47,2
DA:48,2
DA:49,2
DA:50,2
DA:51,2
DA:52,2
DA:53,2
DA:54,2
DA:55,2
DA:56,2
DA:57,2
DA:58,2
DA:59,2
DA:60,2
DA:61,2
DA:62,2
DA:63,2
DA:64,2
DA:65,2
DA:66,2
DA:67,2
DA:68,2
DA:69,2
DA:70,2
DA:71,2
DA:72,2
DA:73,2
DA:74,2
DA:75,2
DA:76,2
DA:77,2
DA:78,2
DA:79,2
DA:80,2
DA:81,2
DA:82,2
DA:83,2
DA:84,2
DA:85,2
DA:86,2
DA:87,2
DA:88,2
DA:89,2
DA:90,2
DA:91,2
DA:92,2
DA:93,2
DA:94,2
DA:95,2
DA:96,2
DA:97,2
DA:98,2
DA:99,2
DA:100,2
DA:102,20
DA:103,20
DA:104,20
DA:105,20
DA:106,20
DA:107,20
DA:108,20
DA:109,20
DA:110,20
DA:111,20
DA:112,20
DA:113,20
DA:114,2
DA:116,3
DA:117,3
DA:118,3
DA:119,3
DA:120,3
DA:122,1
DA:123,1
DA:124,1
DA:126,0
DA:127,0
DA:128,0
DA:130,0
DA:131,0
DA:132,0
DA:133,0
DA:134,0
DA:135,0
DA:136,0
DA:137,0
DA:138,0
DA:139,0
DA:140,0
DA:142,0
DA:143,0
DA:144,0
DA:145,0
DA:146,0
DA:147,0
DA:148,0
DA:149,0
DA:150,0
DA:151,0
DA:152,0
DA:153,0
DA:154,0
DA:155,0
DA:156,0
DA:157,0
DA:158,0
DA:159,0
DA:160,0
DA:161,0
DA:162,0
DA:163,0
DA:164,0
DA:165,0
DA:166,0
DA:167,0
DA:168,0
DA:169,0
DA:170,0
DA:171,0
DA:172,0
DA:173,0
DA:174,0
DA:175,0
DA:176,0
DA:177,0
DA:178,0
DA:179,0
DA:180,0
DA:181,0
DA:182,0
DA:183,0
DA:184,0
DA:185,0
DA:186,0
DA:187,0
DA:191,0
DA:192,0
DA:193,0
DA:201,1
DA:202,1
DA:203,1
DA:204,1
DA:205,1
DA:207,1
DA:208,1
DA:209,1
DA:212,1
DA:213,1
DA:214,1
DA:215,1
DA:216,1
DA:217,1
DA:218,1
DA:219,1
DA:220,1
DA:222,1
DA:223,1
DA:224,1
BRF:0
BRH:0
LF:187
LH:123
end_of_record
SF:/home/admin/Desktop/opensource/soroban-debugger/src/debugger/instruction_pointer.rs
FN:143,_RNCNvMNtNtCsjDzxbYtLkYp_16soroban_debugger8debugger19instruction_pointerNtB4_18InstructionPointer15should_pause_at0B8_
FN:101,_RNvMNtNtCsjDzxbYtLkYp_16soroban_debugger8debugger19instruction_pointerNtB2_18InstructionPointer10advance_to
FN:63,_RNvMNtNtCsjDzxbYtLkYp_16soroban_debugger8debugger19instruction_pointerNtB2_18InstructionPointer11is_stepping
FN:171,_RNvMNtNtCsjDzxbYtLkYp_16soroban_debugger8debugger19instruction_pointerNtB2_18InstructionPointer12history_size
FN:176,_RNvMNtNtCsjDzxbYtLkYp_16soroban_debugger8debugger19instruction_pointerNtB2_18InstructionPointer13clear_history
FN:53,_RNvMNtNtCsjDzxbYtLkYp_16soroban_debugger8debugger19instruction_pointerNtB2_18InstructionPointer13current_index
FN:95,_RNvMNtNtCsjDzxbYtLkYp_16soroban_debugger8debugger19instruction_pointerNtB2_18InstructionPointer13stop_stepping
FN:73,_RNvMNtNtCsjDzxbYtLkYp_16soroban_debugger8debugger19instruction_pointerNtB2_18InstructionPointer14start_stepping
FN:181,_RNvMNtNtCsjDzxbYtLkYp_16soroban_debugger8debugger19instruction_pointerNtB2_18InstructionPointer15set_max_history
FN:133,_RNvMNtNtCsjDzxbYtLkYp_16soroban_debugger8debugger19instruction_pointerNtB2_18InstructionPointer15should_pause_at
FN:58,_RNvMNtNtCsjDzxbYtLkYp_16soroban_debugger8debugger19instruction_pointerNtB2_18InstructionPointer16call_stack_depth
FN:122,_RNvMNtNtCsjDzxbYtLkYp_16soroban_debugger8debugger19instruction_pointerNtB2_18InstructionPointer17update_call_stack
FN:40,_RNvMNtNtCsjDzxbYtLkYp_16soroban_debugger8debugger19instruction_pointerNtB2_18InstructionPointer3new
FN:162,_RNvMNtNtCsjDzxbYtLkYp_16soroban_debugger8debugger19instruction_pointerNtB2_18InstructionPointer5reset
FN:112,_RNvMNtNtCsjDzxbYtLkYp_16soroban_debugger8debugger19instruction_pointerNtB2_18InstructionPointer9step_back
FN:68,_RNvMNtNtCsjDzxbYtLkYp_16soroban_debugger8debugger19instruction_pointerNtB2_18InstructionPointer9step_mode
FN:208,_RNvMs0_NtNtCsjDzxbYtLkYp_16soroban_debugger8debugger19instruction_pointerNtB5_18InstructionContext3new
FN:190,_RNvXs_NtNtCsjDzxbYtLkYp_16soroban_debugger8debugger19instruction_pointerNtB4_18InstructionPointerNtNtCslH02haMvknO_4core7default7Default7default
FN:143,_RNCNvMNtNtCs2jO2QXn3WZ6_16soroban_debugger8debugger19instruction_pointerNtB4_18InstructionPointer15should_pause_at0B8_
FN:176,_RNvMNtNtCs2jO2QXn3WZ6_16soroban_debugger8debugger19instruction_pointerNtB2_18InstructionPointer13clear_history
FN:181,_RNvMNtNtCs2jO2QXn3WZ6_16soroban_debugger8debugger19instruction_pointerNtB2_18InstructionPointer15set_max_history
FN:133,_RNvMNtNtCs2jO2QXn3WZ6_16soroban_debugger8debugger19instruction_pointerNtB2_18InstructionPointer15should_pause_at
FN:162,_RNvMNtNtCs2jO2QXn3WZ6_16soroban_debugger8debugger19instruction_pointerNtB2_18InstructionPointer5reset
FN:208,_RNvMs0_NtNtCs2jO2QXn3WZ6_16soroban_debugger8debugger19instruction_pointerNtB5_18InstructionContext3new
FN:190,_RNvXs_NtNtCs2jO2QXn3WZ6_16soroban_debugger8debugger19instruction_pointerNtB4_18InstructionPointerNtNtCslH02haMvknO_4core7default7Default7default
FN:235,_RNvNtNtNtCs2jO2QXn3WZ6_16soroban_debugger8debugger19instruction_pointer5testss_14test_step_back
FN:248,_RNvNtNtNtCs2jO2QXn3WZ6_16soroban_debugger8debugger19instruction_pointer5testss_19test_stepping_modes
FN:262,_RNvNtNtNtCs2jO2QXn3WZ6_16soroban_debugger8debugger19instruction_pointer5testss_24test_call_stack_tracking
FN:225,_RNvNtNtNtCs2jO2QXn3WZ6_16soroban_debugger8debugger19instruction_pointer5testss_32test_instruction_pointer_advance
FN:101,_RNvMNtNtCs2jO2QXn3WZ6_16soroban_debugger8debugger19instruction_pointerNtB2_18InstructionPointer10advance_to
FN:63,_RNvMNtNtCs2jO2QXn3WZ6_16soroban_debugger8debugger19instruction_pointerNtB2_18InstructionPointer11is_stepping
FN:171,_RNvMNtNtCs2jO2QXn3WZ6_16soroban_debugger8debugger19instruction_pointerNtB2_18InstructionPointer12history_size
FN:53,_RNvMNtNtCs2jO2QXn3WZ6_16soroban_debugger8debugger19instruction_pointerNtB2_18InstructionPointer13current_index
FN:95,_RNvMNtNtCs2jO2QXn3WZ6_16soroban_debugger8debugger19instruction_pointerNtB2_18InstructionPointer13stop_stepping
FN:73,_RNvMNtNtCs2jO2QXn3WZ6_16soroban_debugger8debugger19instruction_pointerNtB2_18InstructionPointer14start_stepping
FN:58,_RNvMNtNtCs2jO2QXn3WZ6_16soroban_debugger8debugger19instruction_pointerNtB2_18InstructionPointer16call_stack_depth
FN:122,_RNvMNtNtCs2jO2QXn3WZ6_16soroban_debugger8debugger19instruction_pointerNtB2_18InstructionPointer17update_call_stack
FN:40,_RNvMNtNtCs2jO2QXn3WZ6_16soroban_debugger8debugger19instruction_pointerNtB2_18InstructionPointer3new
FN:112,_RNvMNtNtCs2jO2QXn3WZ6_16soroban_debugger8debugger19instruction_pointerNtB2_18InstructionPointer9step_back
FN:68,_RNvMNtNtCs2jO2QXn3WZ6_16soroban_debugger8debugger19instruction_pointerNtB2_18InstructionPointer9step_mode
FNDA:0,_RNCNvMNtNtCsjDzxbYtLkYp_16soroban_debugger8debugger19instruction_pointerNtB4_18InstructionPointer15should_pause_at0B8_
FNDA:6,_RNvMNtNtCsjDzxbYtLkYp_16soroban_debugger8debugger19instruction_pointerNtB2_18InstructionPointer10advance_to
FNDA:2,_RNvMNtNtCsjDzxbYtLkYp_16soroban_debugger8debugger19instruction_pointerNtB2_18InstructionPointer11is_stepping
FNDA:6,_RNvMNtNtCsjDzxbYtLkYp_16soroban_debugger8debugger19instruction_pointerNtB2_18InstructionPointer12history_size
FNDA:0,_RNvMNtNtCsjDzxbYtLkYp_16soroban_debugger8debugger19instruction_pointerNtB2_18InstructionPointer13clear_history
FNDA:12,_RNvMNtNtCsjDzxbYtLkYp_16soroban_debugger8debugger19instruction_pointerNtB2_18InstructionPointer13current_index
FNDA:4,_RNvMNtNtCsjDzxbYtLkYp_16soroban_debugger8debugger19instruction_pointerNtB2_18InstructionPointer13stop_stepping
FNDA:12,_RNvMNtNtCsjDzxbYtLkYp_16soroban_debugger8debugger19instruction_pointerNtB2_18InstructionPointer14start_stepping
FNDA:0,_RNvMNtNtCsjDzxbYtLkYp_16soroban_debugger8debugger19instruction_pointerNtB2_18InstructionPointer15set_max_history
FNDA:4,_RNvMNtNtCsjDzxbYtLkYp_16soroban_debugger8debugger19instruction_pointerNtB2_18InstructionPointer15should_pause_at
FNDA:4,_RNvMNtNtCsjDzxbYtLkYp_16soroban_debugger8debugger19instruction_pointerNtB2_18InstructionPointer16call_stack_depth
FNDA:6,_RNvMNtNtCsjDzxbYtLkYp_16soroban_debugger8debugger19instruction_pointerNtB2_18InstructionPointer17update_call_stack
FNDA:12,_RNvMNtNtCsjDzxbYtLkYp_16soroban_debugger8debugger19instruction_pointerNtB2_18InstructionPointer3new
FNDA:2,_RNvMNtNtCsjDzxbYtLkYp_16soroban_debugger8debugger19instruction_pointerNtB2_18InstructionPointer5reset
FNDA:6,_RNvMNtNtCsjDzxbYtLkYp_16soroban_debugger8debugger19instruction_pointerNtB2_18InstructionPointer9step_back
FNDA:8,_RNvMNtNtCsjDzxbYtLkYp_16soroban_debugger8debugger19instruction_pointerNtB2_18InstructionPointer9step_mode
FNDA:0,_RNvMs0_NtNtCsjDzxbYtLkYp_16soroban_debugger8debugger19instruction_pointerNtB5_18InstructionContext3new
FNDA:0,_RNvXs_NtNtCsjDzxbYtLkYp_16soroban_debugger8debugger19instruction_pointerNtB4_18InstructionPointerNtNtCslH02haMvknO_4core7default7Default7default
FNDA:0,_RNCNvMNtNtCs2jO2QXn3WZ6_16soroban_debugger8debugger19instruction_pointerNtB4_18InstructionPointer15should_pause_at0B8_
FNDA:0,_RNvMNtNtCs2jO2QXn3WZ6_16soroban_debugger8debugger19instruction_pointerNtB2_18InstructionPointer13clear_history
FNDA:0,_RNvMNtNtCs2jO2QXn3WZ6_16soroban_debugger8debugger19instruction_pointerNtB2_18InstructionPointer15set_max_history
FNDA:0,_RNvMNtNtCs2jO2QXn3WZ6_16soroban_debugger8debugger19instruction_pointerNtB2_18InstructionPointer15should_pause_at
FNDA:0,_RNvMNtNtCs2jO2QXn3WZ6_16soroban_debugger8debugger19instruction_pointerNtB2_18InstructionPointer5reset
FNDA:0,_RNvMs0_NtNtCs2jO2QXn3WZ6_16soroban_debugger8debugger19instruction_pointerNtB5_18InstructionContext3new
FNDA:0,_RNvXs_NtNtCs2jO2QXn3WZ6_16soroban_debugger8debugger19instruction_pointerNtB4_18InstructionPointerNtNtCslH02haMvknO_4core7default7Default7default
FNDA:1,_RNvNtNtNtCs2jO2QXn3WZ6_16soroban_debugger8debugger19instruction_pointer5testss_14test_step_back
FNDA:1,_RNvNtNtNtCs2jO2QXn3WZ6_16soroban_debugger8debugger19instruction_pointer5testss_19test_stepping_modes
FNDA:1,_RNvNtNtNtCs2jO2QXn3WZ6_16soroban_debugger8debugger19instruction_pointer5testss_24test_call_stack_tracking
FNDA:1,_RNvNtNtNtCs2jO2QXn3WZ6_16soroban_debugger8debugger19instruction_pointer5testss_32test_instruction_pointer_advance
FNDA:3,_RNvMNtNtCs2jO2QXn3WZ6_16soroban_debugger8debugger19instruction_pointerNtB2_18InstructionPointer10advance_to
FNDA:3,_RNvMNtNtCs2jO2QXn3WZ6_16soroban_debugger8debugger19instruction_pointerNtB2_18InstructionPointer11is_stepping
FNDA:1,_RNvMNtNtCs2jO2QXn3WZ6_16soroban_debugger8debugger19instruction_pointerNtB2_18InstructionPointer12history_size
FNDA:4,_RNvMNtNtCs2jO2QXn3WZ6_16soroban_debugger8debugger19instruction_pointerNtB2_18InstructionPointer13current_index
FNDA:1,_RNvMNtNtCs2jO2QXn3WZ6_16soroban_debugger8debugger19instruction_pointerNtB2_18InstructionPointer13stop_stepping
FNDA:1,_RNvMNtNtCs2jO2QXn3WZ6_16soroban_debugger8debugger19instruction_pointerNtB2_18InstructionPointer14start_stepping
FNDA:2,_RNvMNtNtCs2jO2QXn3WZ6_16soroban_debugger8debugger19instruction_pointerNtB2_18InstructionPointer16call_stack_depth
FNDA:2,_RNvMNtNtCs2jO2QXn3WZ6_16soroban_debugger8debugger19instruction_pointerNtB2_18InstructionPointer17update_call_stack
FNDA:4,_RNvMNtNtCs2jO2QXn3WZ6_16soroban_debugger8debugger19instruction_pointerNtB2_18InstructionPointer3new
FNDA:3,_RNvMNtNtCs2jO2QXn3WZ6_16soroban_debugger8debugger19instruction_pointerNtB2_18InstructionPointer9step_back
FNDA:1,_RNvMNtNtCs2jO2QXn3WZ6_16soroban_debugger8debugger19instruction_pointerNtB2_18InstructionPointer9step_mode
FNF:22
FNH:17
DA:40,16
DA:41,16
DA:42,16
DA:43,16
DA:44,16
DA:45,16
DA:46,16
DA:47,16
DA:48,16
DA:49,16
DA:50,16
DA:53,16
DA:54,16
DA:55,16
DA:58,6
DA:59,6
DA:60,6
DA:63,5
DA:64,5
DA:65,5
DA:68,9
DA:69,9
DA:70,9
DA:73,13
DA:74,13
DA:75,13
DA:77,13
DA:78,2
DA:79,2
DA:80,2
DA:82,2
DA:83,0
DA:85,2
DA:88,9
DA:89,9
DA:90,9
DA:92,13
DA:95,5
DA:96,5
DA:97,5
DA:98,5
DA:101,9
DA:103,9
DA:104,0
DA:105,9
DA:106,9
DA:108,9
DA:109,9
DA:112,9
DA:113,9
DA:114,6
DA:115,6
DA:117,3
DA:119,9
DA:122,8
DA:123,8
DA:124,3
DA:125,5
DA:126,3
DA:127,3
DA:128,3
DA:129,3
DA:130,8
DA:133,4
DA:134,4
DA:135,2
DA:136,2
DA:138,2
DA:139,2
DA:142,0
DA:143,0
DA:144,0
DA:148,0
DA:149,0
DA:151,0
DA:156,0
DA:159,4
DA:162,2
DA:163,2
DA:164,2
DA:165,2
DA:166,2
DA:167,2
DA:168,2
DA:171,7
DA:172,7
DA:173,7
DA:176,0
DA:177,0
DA:178,0
DA:181,0
DA:182,0
DA:183,0
DA:184,0
DA:185,0
DA:186,0
DA:190,0
DA:191,0
DA:192,0
DA:208,0
DA:209,0
DA:210,0
DA:211,0
DA:212,0
DA:213,0
DA:214,0
DA:215,0
DA:225,1
DA:226,1
DA:227,1
DA:229,1
DA:230,1
DA:231,1
DA:232,1
DA:235,1
DA:236,1
DA:237,1
DA:238,1
DA:240,1
DA:241,1
DA:242,1
DA:243,1
DA:244,1
DA:245,1
DA:248,1
DA:249,1
DA:251,1
DA:253,1
DA:254,1
DA:255,1
DA:257,1
DA:258,1
DA:259,1
DA:262,1
DA:263,1
DA:265,1
DA:267,1
DA:268,1
DA:270,1
DA:272,1
DA:273,1
DA:274,1
BRF:0
BRH:0
LF:143
LH:113
end_of_record
SF:/home/admin/Desktop/opensource/soroban-debugger/src/debugger/state.rs
FN:142,_RNvMNtNtCsjDzxbYtLkYp_16soroban_debugger8debugger5stateNtB2_10DebugState10call_stack
FN:56,_RNvMNtNtCsjDzxbYtLkYp_16soroban_debugger8debugger5stateNtB2_10DebugState10step_count
FN:47,_RNvMNtNtCsjDzxbYtLkYp_16soroban_debugger8debugger5stateNtB2_10DebugState12current_args
FN:66,_RNvMNtNtCsjDzxbYtLkYp_16soroban_debugger8debugger5stateNtB2_10DebugState12instructions
FN:146,_RNvMNtNtCsjDzxbYtLkYp_16soroban_debugger8debugger5stateNtB2_10DebugState14call_stack_mut
FN:52,_RNvMNtNtCsjDzxbYtLkYp_16soroban_debugger8debugger5stateNtB2_10DebugState14increment_step
FN:42,_RNvMNtNtCsjDzxbYtLkYp_16soroban_debugger8debugger5stateNtB2_10DebugState16current_function
FN:120,_RNvMNtNtCsjDzxbYtLkYp_16soroban_debugger8debugger5stateNtB2_10DebugState16next_instruction
FN:60,_RNvMNtNtCsjDzxbYtLkYp_16soroban_debugger8debugger5stateNtB2_10DebugState16set_instructions
FN:70,_RNvMNtNtCsjDzxbYtLkYp_16soroban_debugger8debugger5stateNtB2_10DebugState19current_instruction
FN:74,_RNvMNtNtCsjDzxbYtLkYp_16soroban_debugger8debugger5stateNtB2_10DebugState19instruction_pointer
FN:125,_RNvMNtNtCsjDzxbYtLkYp_16soroban_debugger8debugger5stateNtB2_10DebugState20previous_instruction
FN:37,_RNvMNtNtCsjDzxbYtLkYp_16soroban_debugger8debugger5stateNtB2_10DebugState20set_current_function
FN:105,_RNvMNtNtCsjDzxbYtLkYp_16soroban_debugger8debugger5stateNtB2_10DebugState22advance_to_instruction
FN:131,_RNvMNtNtCsjDzxbYtLkYp_16soroban_debugger8debugger5stateNtB2_10DebugState22should_pause_execution
FN:159,_RNvMNtNtCsjDzxbYtLkYp_16soroban_debugger8debugger5stateNtB2_10DebugState23get_instruction_context
FN:78,_RNvMNtNtCsjDzxbYtLkYp_16soroban_debugger8debugger5stateNtB2_10DebugState23instruction_pointer_mut
FN:82,_RNvMNtNtCsjDzxbYtLkYp_16soroban_debugger8debugger5stateNtB2_10DebugState24enable_instruction_debug
FN:86,_RNvMNtNtCsjDzxbYtLkYp_16soroban_debugger8debugger5stateNtB2_10DebugState25disable_instruction_debug
FN:101,_RNvMNtNtCsjDzxbYtLkYp_16soroban_debugger8debugger5stateNtB2_10DebugState25stop_instruction_stepping
FN:95,_RNvMNtNtCsjDzxbYtLkYp_16soroban_debugger8debugger5stateNtB2_10DebugState26start_instruction_stepping
FN:91,_RNvMNtNtCsjDzxbYtLkYp_16soroban_debugger8debugger5stateNtB2_10DebugState28is_instruction_debug_enabled
FN:23,_RNvMNtNtCsjDzxbYtLkYp_16soroban_debugger8debugger5stateNtB2_10DebugState3new
FN:150,_RNvMNtNtCsjDzxbYtLkYp_16soroban_debugger8debugger5stateNtB2_10DebugState5reset
FN:175,_RNvXs_NtNtCsjDzxbYtLkYp_16soroban_debugger8debugger5stateNtB4_10DebugStateNtNtCslH02haMvknO_4core7default7Default7default
FN:168,_RNCNCNvMNtNtCsjDzxbYtLkYp_16soroban_debugger8debugger5stateNtB6_10DebugState23get_instruction_context00Ba_
FN:138,_RNCNvMNtNtCsjDzxbYtLkYp_16soroban_debugger8debugger5stateNtB4_10DebugState22should_pause_execution0B8_
FN:165,_RNCNvMNtNtCsjDzxbYtLkYp_16soroban_debugger8debugger5stateNtB4_10DebugState23get_instruction_context0B8_
FN:168,_RNCNCNvMNtNtCs2jO2QXn3WZ6_16soroban_debugger8debugger5stateNtB6_10DebugState23get_instruction_context00Ba_
FN:138,_RNCNvMNtNtCs2jO2QXn3WZ6_16soroban_debugger8debugger5stateNtB4_10DebugState22should_pause_execution0B8_
FN:165,_RNCNvMNtNtCs2jO2QXn3WZ6_16soroban_debugger8debugger5stateNtB4_10DebugState23get_instruction_context0B8_
FN:142,_RNvMNtNtCs2jO2QXn3WZ6_16soroban_debugger8debugger5stateNtB2_10DebugState10call_stack
FN:56,_RNvMNtNtCs2jO2QXn3WZ6_16soroban_debugger8debugger5stateNtB2_10DebugState10step_count
FN:47,_RNvMNtNtCs2jO2QXn3WZ6_16soroban_debugger8debugger5stateNtB2_10DebugState12current_args
FN:66,_RNvMNtNtCs2jO2QXn3WZ6_16soroban_debugger8debugger5stateNtB2_10DebugState12instructions
FN:146,_RNvMNtNtCs2jO2QXn3WZ6_16soroban_debugger8debugger5stateNtB2_10DebugState14call_stack_mut
FN:52,_RNvMNtNtCs2jO2QXn3WZ6_16soroban_debugger8debugger5stateNtB2_10DebugState14increment_step
FN:42,_RNvMNtNtCs2jO2QXn3WZ6_16soroban_debugger8debugger5stateNtB2_10DebugState16current_function
FN:120,_RNvMNtNtCs2jO2QXn3WZ6_16soroban_debugger8debugger5stateNtB2_10DebugState16next_instruction
FN:60,_RNvMNtNtCs2jO2QXn3WZ6_16soroban_debugger8debugger5stateNtB2_10DebugState16set_instructions
FN:70,_RNvMNtNtCs2jO2QXn3WZ6_16soroban_debugger8debugger5stateNtB2_10DebugState19current_instruction
FN:74,_RNvMNtNtCs2jO2QXn3WZ6_16soroban_debugger8debugger5stateNtB2_10DebugState19instruction_pointer
FN:125,_RNvMNtNtCs2jO2QXn3WZ6_16soroban_debugger8debugger5stateNtB2_10DebugState20previous_instruction
FN:37,_RNvMNtNtCs2jO2QXn3WZ6_16soroban_debugger8debugger5stateNtB2_10DebugState20set_current_function
FN:105,_RNvMNtNtCs2jO2QXn3WZ6_16soroban_debugger8debugger5stateNtB2_10DebugState22advance_to_instruction
FN:131,_RNvMNtNtCs2jO2QXn3WZ6_16soroban_debugger8debugger5stateNtB2_10DebugState22should_pause_execution
FN:159,_RNvMNtNtCs2jO2QXn3WZ6_16soroban_debugger8debugger5stateNtB2_10DebugState23get_instruction_context
FN:78,_RNvMNtNtCs2jO2QXn3WZ6_16soroban_debugger8debugger5stateNtB2_10DebugState23instruction_pointer_mut
FN:82,_RNvMNtNtCs2jO2QXn3WZ6_16soroban_debugger8debugger5stateNtB2_10DebugState24enable_instruction_debug
FN:86,_RNvMNtNtCs2jO2QXn3WZ6_16soroban_debugger8debugger5stateNtB2_10DebugState25disable_instruction_debug
FN:101,_RNvMNtNtCs2jO2QXn3WZ6_16soroban_debugger8debugger5stateNtB2_10DebugState25stop_instruction_stepping
FN:95,_RNvMNtNtCs2jO2QXn3WZ6_16soroban_debugger8debugger5stateNtB2_10DebugState26start_instruction_stepping
FN:91,_RNvMNtNtCs2jO2QXn3WZ6_16soroban_debugger8debugger5stateNtB2_10DebugState28is_instruction_debug_enabled
FN:23,_RNvMNtNtCs2jO2QXn3WZ6_16soroban_debugger8debugger5stateNtB2_10DebugState3new
FN:150,_RNvMNtNtCs2jO2QXn3WZ6_16soroban_debugger8debugger5stateNtB2_10DebugState5reset
FN:175,_RNvXs_NtNtCs2jO2QXn3WZ6_16soroban_debugger8debugger5stateNtB4_10DebugStateNtNtCslH02haMvknO_4core7default7Default7default
FNDA:0,_RNvMNtNtCsjDzxbYtLkYp_16soroban_debugger8debugger5stateNtB2_10DebugState10call_stack
FNDA:0,_RNvMNtNtCsjDzxbYtLkYp_16soroban_debugger8debugger5stateNtB2_10DebugState10step_count
FNDA:0,_RNvMNtNtCsjDzxbYtLkYp_16soroban_debugger8debugger5stateNtB2_10DebugState12current_args
FNDA:2,_RNvMNtNtCsjDzxbYtLkYp_16soroban_debugger8debugger5stateNtB2_10DebugState12instructions
FNDA:0,_RNvMNtNtCsjDzxbYtLkYp_16soroban_debugger8debugger5stateNtB2_10DebugState14call_stack_mut
FNDA:0,_RNvMNtNtCsjDzxbYtLkYp_16soroban_debugger8debugger5stateNtB2_10DebugState14increment_step
FNDA:0,_RNvMNtNtCsjDzxbYtLkYp_16soroban_debugger8debugger5stateNtB2_10DebugState16current_function
FNDA:2,_RNvMNtNtCsjDzxbYtLkYp_16soroban_debugger8debugger5stateNtB2_10DebugState16next_instruction
FNDA:2,_RNvMNtNtCsjDzxbYtLkYp_16soroban_debugger8debugger5stateNtB2_10DebugState16set_instructions
FNDA:2,_RNvMNtNtCsjDzxbYtLkYp_16soroban_debugger8debugger5stateNtB2_10DebugState19current_instruction
FNDA:2,_RNvMNtNtCsjDzxbYtLkYp_16soroban_debugger8debugger5stateNtB2_10DebugState19instruction_pointer
FNDA:0,_RNvMNtNtCsjDzxbYtLkYp_16soroban_debugger8debugger5stateNtB2_10DebugState20previous_instruction
FNDA:0,_RNvMNtNtCsjDzxbYtLkYp_16soroban_debugger8debugger5stateNtB2_10DebugState20set_current_function
FNDA:2,_RNvMNtNtCsjDzxbYtLkYp_16soroban_debugger8debugger5stateNtB2_10DebugState22advance_to_instruction
FNDA:0,_RNvMNtNtCsjDzxbYtLkYp_16soroban_debugger8debugger5stateNtB2_10DebugState22should_pause_execution
FNDA:0,_RNvMNtNtCsjDzxbYtLkYp_16soroban_debugger8debugger5stateNtB2_10DebugState23get_instruction_context
FNDA:0,_RNvMNtNtCsjDzxbYtLkYp_16soroban_debugger8debugger5stateNtB2_10DebugState23instruction_pointer_mut
FNDA:2,_RNvMNtNtCsjDzxbYtLkYp_16soroban_debugger8debugger5stateNtB2_10DebugState24enable_instruction_debug
FNDA:0,_RNvMNtNtCsjDzxbYtLkYp_16soroban_debugger8debugger5stateNtB2_10DebugState25disable_instruction_debug
FNDA:2,_RNvMNtNtCsjDzxbYtLkYp_16soroban_debugger8debugger5stateNtB2_10DebugState25stop_instruction_stepping
FNDA:4,_RNvMNtNtCsjDzxbYtLkYp_16soroban_debugger8debugger5stateNtB2_10DebugState26start_instruction_stepping
FNDA:2,_RNvMNtNtCsjDzxbYtLkYp_16soroban_debugger8debugger5stateNtB2_10DebugState28is_instruction_debug_enabled
FNDA:4,_RNvMNtNtCsjDzxbYtLkYp_16soroban_debugger8debugger5stateNtB2_10DebugState3new
FNDA:0,_RNvMNtNtCsjDzxbYtLkYp_16soroban_debugger8debugger5stateNtB2_10DebugState5reset
FNDA:0,_RNvXs_NtNtCsjDzxbYtLkYp_16soroban_debugger8debugger5stateNtB4_10DebugStateNtNtCslH02haMvknO_4core7default7Default7default
FNDA:0,_RNCNCNvMNtNtCsjDzxbYtLkYp_16soroban_debugger8debugger5stateNtB6_10DebugState23get_instruction_context00Ba_
FNDA:0,_RNCNvMNtNtCsjDzxbYtLkYp_16soroban_debugger8debugger5stateNtB4_10DebugState22should_pause_execution0B8_
FNDA:0,_RNCNvMNtNtCsjDzxbYtLkYp_16soroban_debugger8debugger5stateNtB4_10DebugState23get_instruction_context0B8_
FNDA:0,_RNCNCNvMNtNtCs2jO2QXn3WZ6_16soroban_debugger8debugger5stateNtB6_10DebugState23get_instruction_context00Ba_
FNDA:0,_RNCNvMNtNtCs2jO2QXn3WZ6_16soroban_debugger8debugger5stateNtB4_10DebugState22should_pause_execution0B8_
FNDA:0,_RNCNvMNtNtCs2jO2QXn3WZ6_16soroban_debugger8debugger5stateNtB4_10DebugState23get_instruction_context0B8_
FNDA:0,_RNvMNtNtCs2jO2QXn3WZ6_16soroban_debugger8debugger5stateNtB2_10DebugState10call_stack
FNDA:0,_RNvMNtNtCs2jO2QXn3WZ6_16soroban_debugger8debugger5stateNtB2_10DebugState10step_count
FNDA:0,_RNvMNtNtCs2jO2QXn3WZ6_16soroban_debugger8debugger5stateNtB2_10DebugState12current_args
FNDA:0,_RNvMNtNtCs2jO2QXn3WZ6_16soroban_debugger8debugger5stateNtB2_10DebugState12instructions
FNDA:0,_RNvMNtNtCs2jO2QXn3WZ6_16soroban_debugger8debugger5stateNtB2_10DebugState14call_stack_mut
FNDA:0,_RNvMNtNtCs2jO2QXn3WZ6_16soroban_debugger8debugger5stateNtB2_10DebugState14increment_step
FNDA:0,_RNvMNtNtCs2jO2QXn3WZ6_16soroban_debugger8debugger5stateNtB2_10DebugState16current_function
FNDA:0,_RNvMNtNtCs2jO2QXn3WZ6_16soroban_debugger8debugger5stateNtB2_10DebugState16next_instruction
FNDA:0,_RNvMNtNtCs2jO2QXn3WZ6_16soroban_debugger8debugger5stateNtB2_10DebugState16set_instructions
FNDA:0,_RNvMNtNtCs2jO2QXn3WZ6_16soroban_debugger8debugger5stateNtB2_10DebugState19current_instruction
FNDA:0,_RNvMNtNtCs2jO2QXn3WZ6_16soroban_debugger8debugger5stateNtB2_10DebugState19instruction_pointer
FNDA:0,_RNvMNtNtCs2jO2QXn3WZ6_16soroban_debugger8debugger5stateNtB2_10DebugState20previous_instruction
FNDA:0,_RNvMNtNtCs2jO2QXn3WZ6_16soroban_debugger8debugger5stateNtB2_10DebugState20set_current_function
FNDA:0,_RNvMNtNtCs2jO2QXn3WZ6_16soroban_debugger8debugger5stateNtB2_10DebugState22advance_to_instruction
FNDA:0,_RNvMNtNtCs2jO2QXn3WZ6_16soroban_debugger8debugger5stateNtB2_10DebugState22should_pause_execution
FNDA:0,_RNvMNtNtCs2jO2QXn3WZ6_16soroban_debugger8debugger5stateNtB2_10DebugState23get_instruction_context
FNDA:0,_RNvMNtNtCs2jO2QXn3WZ6_16soroban_debugger8debugger5stateNtB2_10DebugState23instruction_pointer_mut
FNDA:0,_RNvMNtNtCs2jO2QXn3WZ6_16soroban_debugger8debugger5stateNtB2_10DebugState24enable_instruction_debug
FNDA:0,_RNvMNtNtCs2jO2QXn3WZ6_16soroban_debugger8debugger5stateNtB2_10DebugState25disable_instruction_debug
FNDA:0,_RNvMNtNtCs2jO2QXn3WZ6_16soroban_debugger8debugger5stateNtB2_10DebugState25stop_instruction_stepping
FNDA:0,_RNvMNtNtCs2jO2QXn3WZ6_16soroban_debugger8debugger5stateNtB2_10DebugState26start_instruction_stepping
FNDA:0,_RNvMNtNtCs2jO2QXn3WZ6_16soroban_debugger8debugger5stateNtB2_10DebugState28is_instruction_debug_enabled
FNDA:0,_RNvMNtNtCs2jO2QXn3WZ6_16soroban_debugger8debugger5stateNtB2_10DebugState3new
FNDA:0,_RNvMNtNtCs2jO2QXn3WZ6_16soroban_debugger8debugger5stateNtB2_10DebugState5reset
FNDA:0,_RNvXs_NtNtCs2jO2QXn3WZ6_16soroban_debugger8debugger5stateNtB4_10DebugStateNtNtCslH02haMvknO_4core7default7Default7default
FNF:28
FNH:11
DA:23,4
DA:24,4
DA:25,4
DA:26,4
DA:27,4
DA:28,4
DA:29,4
DA:30,4
DA:31,4
DA:32,4
DA:33,4
DA:34,4
DA:37,0
DA:38,0
DA:39,0
DA:40,0
DA:42,0
DA:43,0
DA:44,0
DA:47,0
DA:48,0
DA:49,0
DA:52,0
DA:53,0
DA:54,0
DA:56,0
DA:57,0
DA:58,0
DA:60,2
DA:61,2
DA:62,2
DA:63,2
DA:64,2
DA:66,2
DA:67,2
DA:68,2
DA:70,2
DA:71,2
DA:72,2
DA:74,2
DA:75,2
DA:76,2
DA:78,0
DA:79,0
DA:80,0
DA:82,2
DA:83,2
DA:84,2
DA:86,0
DA:87,0
DA:88,0
DA:89,0
DA:91,2
DA:92,2
DA:93,2
DA:95,4
DA:96,4
DA:97,2
DA:98,2
DA:99,4
DA:101,2
DA:102,2
DA:103,2
DA:105,2
DA:106,2
DA:107,0
DA:108,2
DA:110,2
DA:111,2
DA:113,2
DA:114,2
DA:115,2
DA:117,2
DA:118,2
DA:120,2
DA:121,2
DA:122,2
DA:123,2
DA:125,0
DA:126,0
DA:127,0
DA:128,0
DA:129,0
DA:131,0
DA:132,0
DA:133,0
DA:134,0
DA:136,0
DA:137,0
DA:138,0
DA:139,0
DA:140,0
DA:142,0
DA:143,0
DA:144,0
DA:146,0
DA:147,0
DA:148,0
DA:150,0
DA:151,0
DA:152,0
DA:153,0
DA:154,0
DA:155,0
DA:156,0
DA:157,0
DA:159,0
DA:160,0
DA:161,0
DA:162,0
DA:164,0
DA:165,0
DA:166,0
DA:167,0
DA:168,0
DA:169,0
DA:170,0
DA:171,0
DA:175,0
DA:176,0
DA:177,0
BRF:0
BRH:0
LF:124
LH:54
end_of_record
SF:/home/admin/Desktop/opensource/soroban-debugger/src/debugger/stepper.rs
FN:88,_RNvMNtNtCsjDzxbYtLkYp_16soroban_debugger8debugger7stepperNtB2_7Stepper10step_block
FN:116,_RNvMNtNtCsjDzxbYtLkYp_16soroban_debugger8debugger7stepperNtB2_7Stepper12should_pause
FN:147,_RNvMNtNtCsjDzxbYtLkYp_16soroban_debugger8debugger7stepperNtB2_7Stepper14on_instruction
FN:110,_RNvMNtNtCsjDzxbYtLkYp_16soroban_debugger8debugger7stepperNtB2_7Stepper18continue_execution
FN:167,_RNvMNtNtCsjDzxbYtLkYp_16soroban_debugger8debugger7stepperNtB2_7Stepper30find_next_instruction_at_depth
FN:202,_RNvMNtNtCsjDzxbYtLkYp_16soroban_debugger8debugger7stepperNtB2_7Stepper34find_next_control_flow_instruction
FN:185,_RNvMNtNtCsjDzxbYtLkYp_16soroban_debugger8debugger7stepperNtB2_7Stepper36find_next_instruction_at_lower_depth
FN:17,_RNvMNtNtCsjDzxbYtLkYp_16soroban_debugger8debugger7stepperNtB2_7Stepper3new
FN:34,_RNvMNtNtCsjDzxbYtLkYp_16soroban_debugger8debugger7stepperNtB2_7Stepper4stop
FN:218,_RNvMNtNtCsjDzxbYtLkYp_16soroban_debugger8debugger7stepperNtB2_7Stepper5reset
FN:26,_RNvMNtNtCsjDzxbYtLkYp_16soroban_debugger8debugger7stepperNtB2_7Stepper5start
FN:75,_RNvMNtNtCsjDzxbYtLkYp_16soroban_debugger8debugger7stepperNtB2_7Stepper8step_out
FN:41,_RNvMNtNtCsjDzxbYtLkYp_16soroban_debugger8debugger7stepperNtB2_7Stepper9is_active
FN:101,_RNvMNtNtCsjDzxbYtLkYp_16soroban_debugger8debugger7stepperNtB2_7Stepper9step_back
FN:51,_RNvMNtNtCsjDzxbYtLkYp_16soroban_debugger8debugger7stepperNtB2_7Stepper9step_into
FN:46,_RNvMNtNtCsjDzxbYtLkYp_16soroban_debugger8debugger7stepperNtB2_7Stepper9step_mode
FN:62,_RNvMNtNtCsjDzxbYtLkYp_16soroban_debugger8debugger7stepperNtB2_7Stepper9step_over
FN:225,_RNvXs_NtNtCsjDzxbYtLkYp_16soroban_debugger8debugger7stepperNtB4_7StepperNtNtCslH02haMvknO_4core7default7Default7default
FN:88,_RNvMNtNtCs2jO2QXn3WZ6_16soroban_debugger8debugger7stepperNtB2_7Stepper10step_block
FN:116,_RNvMNtNtCs2jO2QXn3WZ6_16soroban_debugger8debugger7stepperNtB2_7Stepper12should_pause
FN:147,_RNvMNtNtCs2jO2QXn3WZ6_16soroban_debugger8debugger7stepperNtB2_7Stepper14on_instruction
FN:110,_RNvMNtNtCs2jO2QXn3WZ6_16soroban_debugger8debugger7stepperNtB2_7Stepper18continue_execution
FN:167,_RNvMNtNtCs2jO2QXn3WZ6_16soroban_debugger8debugger7stepperNtB2_7Stepper30find_next_instruction_at_depth
FN:202,_RNvMNtNtCs2jO2QXn3WZ6_16soroban_debugger8debugger7stepperNtB2_7Stepper34find_next_control_flow_instruction
FN:185,_RNvMNtNtCs2jO2QXn3WZ6_16soroban_debugger8debugger7stepperNtB2_7Stepper36find_next_instruction_at_lower_depth
FN:17,_RNvMNtNtCs2jO2QXn3WZ6_16soroban_debugger8debugger7stepperNtB2_7Stepper3new
FN:34,_RNvMNtNtCs2jO2QXn3WZ6_16soroban_debugger8debugger7stepperNtB2_7Stepper4stop
FN:218,_RNvMNtNtCs2jO2QXn3WZ6_16soroban_debugger8debugger7stepperNtB2_7Stepper5reset
FN:26,_RNvMNtNtCs2jO2QXn3WZ6_16soroban_debugger8debugger7stepperNtB2_7Stepper5start
FN:75,_RNvMNtNtCs2jO2QXn3WZ6_16soroban_debugger8debugger7stepperNtB2_7Stepper8step_out
FN:41,_RNvMNtNtCs2jO2QXn3WZ6_16soroban_debugger8debugger7stepperNtB2_7Stepper9is_active
FN:101,_RNvMNtNtCs2jO2QXn3WZ6_16soroban_debugger8debugger7stepperNtB2_7Stepper9step_back
FN:51,_RNvMNtNtCs2jO2QXn3WZ6_16soroban_debugger8debugger7stepperNtB2_7Stepper9step_into
FN:46,_RNvMNtNtCs2jO2QXn3WZ6_16soroban_debugger8debugger7stepperNtB2_7Stepper9step_mode
FN:62,_RNvMNtNtCs2jO2QXn3WZ6_16soroban_debugger8debugger7stepperNtB2_7Stepper9step_over
FN:225,_RNvXs_NtNtCs2jO2QXn3WZ6_16soroban_debugger8debugger7stepperNtB4_7StepperNtNtCslH02haMvknO_4core7default7Default7default
FNDA:0,_RNvMNtNtCsjDzxbYtLkYp_16soroban_debugger8debugger7stepperNtB2_7Stepper10step_block
FNDA:0,_RNvMNtNtCsjDzxbYtLkYp_16soroban_debugger8debugger7stepperNtB2_7Stepper12should_pause
FNDA:0,_RNvMNtNtCsjDzxbYtLkYp_16soroban_debugger8debugger7stepperNtB2_7Stepper14on_instruction
FNDA:0,_RNvMNtNtCsjDzxbYtLkYp_16soroban_debugger8debugger7stepperNtB2_7Stepper18continue_execution
FNDA:0,_RNvMNtNtCsjDzxbYtLkYp_16soroban_debugger8debugger7stepperNtB2_7Stepper30find_next_instruction_at_depth
FNDA:0,_RNvMNtNtCsjDzxbYtLkYp_16soroban_debugger8debugger7stepperNtB2_7Stepper34find_next_control_flow_instruction
FNDA:0,_RNvMNtNtCsjDzxbYtLkYp_16soroban_debugger8debugger7stepperNtB2_7Stepper36find_next_instruction_at_lower_depth
FNDA:2,_RNvMNtNtCsjDzxbYtLkYp_16soroban_debugger8debugger7stepperNtB2_7Stepper3new
FNDA:2,_RNvMNtNtCsjDzxbYtLkYp_16soroban_debugger8debugger7stepperNtB2_7Stepper4stop
FNDA:0,_RNvMNtNtCsjDzxbYtLkYp_16soroban_debugger8debugger7stepperNtB2_7Stepper5reset
FNDA:2,_RNvMNtNtCsjDzxbYtLkYp_16soroban_debugger8debugger7stepperNtB2_7Stepper5start
FNDA:0,_RNvMNtNtCsjDzxbYtLkYp_16soroban_debugger8debugger7stepperNtB2_7Stepper8step_out
FNDA:6,_RNvMNtNtCsjDzxbYtLkYp_16soroban_debugger8debugger7stepperNtB2_7Stepper9is_active
FNDA:0,_RNvMNtNtCsjDzxbYtLkYp_16soroban_debugger8debugger7stepperNtB2_7Stepper9step_back
FNDA:0,_RNvMNtNtCsjDzxbYtLkYp_16soroban_debugger8debugger7stepperNtB2_7Stepper9step_into
FNDA:2,_RNvMNtNtCsjDzxbYtLkYp_16soroban_debugger8debugger7stepperNtB2_7Stepper9step_mode
FNDA:0,_RNvMNtNtCsjDzxbYtLkYp_16soroban_debugger8debugger7stepperNtB2_7Stepper9step_over
FNDA:0,_RNvXs_NtNtCsjDzxbYtLkYp_16soroban_debugger8debugger7stepperNtB4_7StepperNtNtCslH02haMvknO_4core7default7Default7default
FNDA:0,_RNvMNtNtCs2jO2QXn3WZ6_16soroban_debugger8debugger7stepperNtB2_7Stepper10step_block
FNDA:0,_RNvMNtNtCs2jO2QXn3WZ6_16soroban_debugger8debugger7stepperNtB2_7Stepper12should_pause
FNDA:0,_RNvMNtNtCs2jO2QXn3WZ6_16soroban_debugger8debugger7stepperNtB2_7Stepper14on_instruction
FNDA:0,_RNvMNtNtCs2jO2QXn3WZ6_16soroban_debugger8debugger7stepperNtB2_7Stepper18continue_execution
FNDA:0,_RNvMNtNtCs2jO2QXn3WZ6_16soroban_debugger8debugger7stepperNtB2_7Stepper30find_next_instruction_at_depth
FNDA:0,_RNvMNtNtCs2jO2QXn3WZ6_16soroban_debugger8debugger7stepperNtB2_7Stepper34find_next_control_flow_instruction
FNDA:0,_RNvMNtNtCs2jO2QXn3WZ6_16soroban_debugger8debugger7stepperNtB2_7Stepper36find_next_instruction_at_lower_depth
FNDA:0,_RNvMNtNtCs2jO2QXn3WZ6_16soroban_debugger8debugger7stepperNtB2_7Stepper3new
FNDA:0,_RNvMNtNtCs2jO2QXn3WZ6_16soroban_debugger8debugger7stepperNtB2_7Stepper4stop
FNDA:0,_RNvMNtNtCs2jO2QXn3WZ6_16soroban_debugger8debugger7stepperNtB2_7Stepper5reset
FNDA:0,_RNvMNtNtCs2jO2QXn3WZ6_16soroban_debugger8debugger7stepperNtB2_7Stepper5start
FNDA:0,_RNvMNtNtCs2jO2QXn3WZ6_16soroban_debugger8debugger7stepperNtB2_7Stepper8step_out
FNDA:0,_RNvMNtNtCs2jO2QXn3WZ6_16soroban_debugger8debugger7stepperNtB2_7Stepper9is_active
FNDA:0,_RNvMNtNtCs2jO2QXn3WZ6_16soroban_debugger8debugger7stepperNtB2_7Stepper9step_back
FNDA:0,_RNvMNtNtCs2jO2QXn3WZ6_16soroban_debugger8debugger7stepperNtB2_7Stepper9step_into
FNDA:0,_RNvMNtNtCs2jO2QXn3WZ6_16soroban_debugger8debugger7stepperNtB2_7Stepper9step_mode
FNDA:0,_RNvMNtNtCs2jO2QXn3WZ6_16soroban_debugger8debugger7stepperNtB2_7Stepper9step_over
FNDA:0,_RNvXs_NtNtCs2jO2QXn3WZ6_16soroban_debugger8debugger7stepperNtB4_7StepperNtNtCslH02haMvknO_4core7default7Default7default
FNF:18
FNH:5
DA:17,2
DA:18,2
DA:19,2
DA:20,2
DA:21,2
DA:22,2
DA:23,2
DA:26,2
DA:27,2
DA:28,2
DA:29,2
DA:30,2
DA:31,2
DA:34,2
DA:35,2
DA:36,2
DA:37,2
DA:38,2
DA:41,6
DA:42,6
DA:43,6
DA:46,2
DA:47,2
DA:48,2
DA:51,0
DA:52,0
DA:53,0
DA:54,0
DA:56,0
DA:57,0
DA:58,0
DA:59,0
DA:62,0
DA:63,0
DA:64,0
DA:65,0
DA:67,0
DA:68,0
DA:71,0
DA:72,0
DA:75,0
DA:76,0
DA:77,0
DA:78,0
DA:80,0
DA:81,0
DA:84,0
DA:85,0
DA:88,0
DA:89,0
DA:90,0
DA:91,0
DA:93,0
DA:94,0
DA:97,0
DA:98,0
DA:101,0
DA:102,0
DA:103,0
DA:104,0
DA:106,0
DA:107,0
DA:110,0
DA:111,0
DA:112,0
DA:113,0
DA:116,0
DA:117,0
DA:118,0
DA:119,0
DA:122,0
DA:123,0
DA:124,0
DA:127,0
DA:128,0
DA:131,0
DA:132,0
DA:136,0
DA:137,0
DA:141,0
DA:144,0
DA:147,0
DA:148,0
DA:149,0
DA:150,0
DA:151,0
DA:152,0
DA:153,0
DA:154,0
DA:156,0
DA:158,0
DA:159,0
DA:160,0
DA:161,0
DA:163,0
DA:164,0
DA:167,0
DA:168,0
DA:171,0
DA:173,0
DA:174,0
DA:175,0
DA:176,0
DA:177,0
DA:178,0
DA:181,0
DA:182,0
DA:185,0
DA:186,0
DA:188,0
DA:190,0
DA:191,0
DA:192,0
DA:193,0
DA:194,0
DA:195,0
DA:198,0
DA:199,0
DA:202,0
DA:203,0
DA:205,0
DA:206,0
DA:207,0
DA:208,0
DA:210,0
DA:214,0
DA:215,0
DA:218,0
DA:219,0
DA:220,0
DA:221,0
DA:225,0
DA:226,0
DA:227,0
BRF:0
BRH:0
LF:134
LH:24
end_of_record
SF:/home/admin/Desktop/opensource/soroban-debugger/src/history/mod.rs
FN:48,_RNvMNtCsjDzxbYtLkYp_16soroban_debugger7historyNtB2_14HistoryManager12load_history
FN:65,_RNvMNtCsjDzxbYtLkYp_16soroban_debugger7historyNtB2_14HistoryManager13append_record
FN:85,_RNvMNtCsjDzxbYtLkYp_16soroban_debugger7historyNtB2_14HistoryManager14filter_history
FN:22,_RNvMNtCsjDzxbYtLkYp_16soroban_debugger7historyNtB2_14HistoryManager3new
FN:43,_RNvMNtCsjDzxbYtLkYp_16soroban_debugger7historyNtB2_14HistoryManager9with_path
FN:110,_RNvNtCsjDzxbYtLkYp_16soroban_debugger7history16check_regression
FN:52,_RNCNvMNtCsjDzxbYtLkYp_16soroban_debugger7historyNtB4_14HistoryManager12load_history0B6_
FN:60,_RNCNvMNtCsjDzxbYtLkYp_16soroban_debugger7historyNtB4_14HistoryManager12load_historys_0B6_
FN:68,_RNCNvMNtCsjDzxbYtLkYp_16soroban_debugger7historyNtB4_14HistoryManager13append_record0B6_
FN:75,_RNCNvMNtCsjDzxbYtLkYp_16soroban_debugger7historyNtB4_14HistoryManager13append_records_0B6_
FN:93,_RNCNvMNtCsjDzxbYtLkYp_16soroban_debugger7historyNtB4_14HistoryManager14filter_history0B6_
FN:24,_RNCNvMNtCsjDzxbYtLkYp_16soroban_debugger7historyNtB4_14HistoryManager3new0B6_
FN:30,_RNCNvMNtCsjDzxbYtLkYp_16soroban_debugger7historyNtB4_14HistoryManager3news0_0B6_
FN:25,_RNCNvMNtCsjDzxbYtLkYp_16soroban_debugger7historyNtB4_14HistoryManager3news_0B6_
FN:93,_RNCNvMNtCs2jO2QXn3WZ6_16soroban_debugger7historyNtB4_14HistoryManager14filter_history0B6_
FN:24,_RNCNvMNtCs2jO2QXn3WZ6_16soroban_debugger7historyNtB4_14HistoryManager3new0B6_
FN:30,_RNCNvMNtCs2jO2QXn3WZ6_16soroban_debugger7historyNtB4_14HistoryManager3news0_0B6_
FN:25,_RNCNvMNtCs2jO2QXn3WZ6_16soroban_debugger7historyNtB4_14HistoryManager3news_0B6_
FN:85,_RNvMNtCs2jO2QXn3WZ6_16soroban_debugger7historyNtB2_14HistoryManager14filter_history
FN:22,_RNvMNtCs2jO2QXn3WZ6_16soroban_debugger7historyNtB2_14HistoryManager3new
FN:52,_RNCNvMNtCs2jO2QXn3WZ6_16soroban_debugger7historyNtB4_14HistoryManager12load_history0B6_
FN:60,_RNCNvMNtCs2jO2QXn3WZ6_16soroban_debugger7historyNtB4_14HistoryManager12load_historys_0B6_
FN:68,_RNCNvMNtCs2jO2QXn3WZ6_16soroban_debugger7historyNtB4_14HistoryManager13append_record0B6_
FN:75,_RNCNvMNtCs2jO2QXn3WZ6_16soroban_debugger7historyNtB4_14HistoryManager13append_records_0B6_
FN:48,_RNvMNtCs2jO2QXn3WZ6_16soroban_debugger7historyNtB2_14HistoryManager12load_history
FN:65,_RNvMNtCs2jO2QXn3WZ6_16soroban_debugger7historyNtB2_14HistoryManager13append_record
FN:43,_RNvMNtCs2jO2QXn3WZ6_16soroban_debugger7historyNtB2_14HistoryManager9with_path
FN:110,_RNvNtCs2jO2QXn3WZ6_16soroban_debugger7history16check_regression
FN:174,_RNvNtNtCs2jO2QXn3WZ6_16soroban_debugger7history5testss_22test_persistence_logic
FN:149,_RNvNtNtCs2jO2QXn3WZ6_16soroban_debugger7history5testss_25test_regression_detection
FNDA:0,_RNvMNtCsjDzxbYtLkYp_16soroban_debugger7historyNtB2_14HistoryManager12load_history
FNDA:0,_RNvMNtCsjDzxbYtLkYp_16soroban_debugger7historyNtB2_14HistoryManager13append_record
FNDA:0,_RNvMNtCsjDzxbYtLkYp_16soroban_debugger7historyNtB2_14HistoryManager14filter_history
FNDA:0,_RNvMNtCsjDzxbYtLkYp_16soroban_debugger7historyNtB2_14HistoryManager3new
FNDA:0,_RNvMNtCsjDzxbYtLkYp_16soroban_debugger7historyNtB2_14HistoryManager9with_path
FNDA:0,_RNvNtCsjDzxbYtLkYp_16soroban_debugger7history16check_regression
FNDA:0,_RNCNvMNtCsjDzxbYtLkYp_16soroban_debugger7historyNtB4_14HistoryManager12load_history0B6_
FNDA:0,_RNCNvMNtCsjDzxbYtLkYp_16soroban_debugger7historyNtB4_14HistoryManager12load_historys_0B6_
FNDA:0,_RNCNvMNtCsjDzxbYtLkYp_16soroban_debugger7historyNtB4_14HistoryManager13append_record0B6_
FNDA:0,_RNCNvMNtCsjDzxbYtLkYp_16soroban_debugger7historyNtB4_14HistoryManager13append_records_0B6_
FNDA:0,_RNCNvMNtCsjDzxbYtLkYp_16soroban_debugger7historyNtB4_14HistoryManager14filter_history0B6_
FNDA:0,_RNCNvMNtCsjDzxbYtLkYp_16soroban_debugger7historyNtB4_14HistoryManager3new0B6_
FNDA:0,_RNCNvMNtCsjDzxbYtLkYp_16soroban_debugger7historyNtB4_14HistoryManager3news0_0B6_
FNDA:0,_RNCNvMNtCsjDzxbYtLkYp_16soroban_debugger7historyNtB4_14HistoryManager3news_0B6_
FNDA:0,_RNCNvMNtCs2jO2QXn3WZ6_16soroban_debugger7historyNtB4_14HistoryManager14filter_history0B6_
FNDA:0,_RNCNvMNtCs2jO2QXn3WZ6_16soroban_debugger7historyNtB4_14HistoryManager3new0B6_
FNDA:0,_RNCNvMNtCs2jO2QXn3WZ6_16soroban_debugger7historyNtB4_14HistoryManager3news0_0B6_
FNDA:0,_RNCNvMNtCs2jO2QXn3WZ6_16soroban_debugger7historyNtB4_14HistoryManager3news_0B6_
FNDA:0,_RNvMNtCs2jO2QXn3WZ6_16soroban_debugger7historyNtB2_14HistoryManager14filter_history
FNDA:0,_RNvMNtCs2jO2QXn3WZ6_16soroban_debugger7historyNtB2_14HistoryManager3new
FNDA:0,_RNCNvMNtCs2jO2QXn3WZ6_16soroban_debugger7historyNtB4_14HistoryManager12load_history0B6_
FNDA:1,_RNCNvMNtCs2jO2QXn3WZ6_16soroban_debugger7historyNtB4_14HistoryManager12load_historys_0B6_
FNDA:0,_RNCNvMNtCs2jO2QXn3WZ6_16soroban_debugger7historyNtB4_14HistoryManager13append_record0B6_
FNDA:0,_RNCNvMNtCs2jO2QXn3WZ6_16soroban_debugger7historyNtB4_14HistoryManager13append_records_0B6_
FNDA:2,_RNvMNtCs2jO2QXn3WZ6_16soroban_debugger7historyNtB2_14HistoryManager12load_history
FNDA:1,_RNvMNtCs2jO2QXn3WZ6_16soroban_debugger7historyNtB2_14HistoryManager13append_record
FNDA:1,_RNvMNtCs2jO2QXn3WZ6_16soroban_debugger7historyNtB2_14HistoryManager9with_path
FNDA:1,_RNvNtCs2jO2QXn3WZ6_16soroban_debugger7history16check_regression
FNDA:1,_RNvNtNtCs2jO2QXn3WZ6_16soroban_debugger7history5testss_22test_persistence_logic
FNDA:1,_RNvNtNtCs2jO2QXn3WZ6_16soroban_debugger7history5testss_25test_regression_detection
FNF:16
FNH:7
DA:22,0
DA:23,0
DA:24,0
DA:25,0
DA:26,0
DA:27,0
DA:28,0
DA:29,0
DA:30,0
DA:31,0
DA:32,0
DA:33,0
DA:34,0
DA:35,0
DA:36,0
DA:37,0
DA:38,0
DA:39,0
DA:40,0
DA:43,1
DA:44,1
DA:45,1
DA:48,2
DA:49,2
DA:50,0
DA:51,2
DA:52,2
DA:53,0
DA:54,0
DA:55,0
DA:56,0
DA:57,0
DA:58,2
DA:59,2
DA:60,2
DA:61,2
DA:62,2
DA:65,1
DA:66,1
DA:67,1
DA:68,1
DA:69,0
DA:70,0
DA:71,0
DA:72,0
DA:73,0
DA:74,1
DA:75,1
DA:76,0
DA:77,0
DA:78,0
DA:79,0
DA:80,0
DA:81,1
DA:82,1
DA:85,0
DA:86,0
DA:87,0
DA:88,0
DA:89,0
DA:90,0
DA:91,0
DA:92,0
DA:93,0
DA:94,0
DA:95,0
DA:96,0
DA:98,0
DA:99,0
DA:100,0
DA:102,0
DA:103,0
DA:104,0
DA:105,0
DA:106,0
DA:110,1
DA:111,1
DA:112,0
DA:113,1
DA:114,1
DA:115,1
DA:117,1
DA:118,1
DA:120,1
DA:121,1
DA:122,1
DA:123,1
DA:124,1
DA:125,1
DA:126,0
DA:128,1
DA:129,1
DA:130,1
DA:131,1
DA:132,0
DA:133,1
DA:134,0
DA:136,1
DA:137,1
DA:139,0
DA:141,1
DA:149,1
DA:150,1
DA:151,1
DA:152,1
DA:153,1
DA:154,1
DA:155,1
DA:156,1
DA:157,1
DA:158,1
DA:159,1
DA:160,1
DA:161,1
DA:162,1
DA:163,1
DA:165,1
DA:166,1
DA:167,1
DA:168,1
DA:169,1
DA:170,1
DA:171,1
DA:174,1
DA:175,1
DA:176,1
DA:178,1
DA:179,1
DA:180,1
DA:181,1
DA:182,1
DA:183,1
DA:184,1
DA:186,1
DA:187,1
DA:188,1
DA:189,1
DA:190,1
BRF:0
BRH:0
LF:151
LH:79
end_of_record
SF:/home/admin/Desktop/opensource/soroban-debugger/src/inspector/auth.rs
FN:21,_RNvMNtNtCsjDzxbYtLkYp_16soroban_debugger9inspector4authNtB2_10AuthStatus6as_str
FN:167,_RNvMs0_NtNtCsjDzxbYtLkYp_16soroban_debugger9inspector4authNtB5_13AuthInspector10print_node
FN:201,_RNvMs0_NtNtCsjDzxbYtLkYp_16soroban_debugger9inspector4authNtB5_13AuthInspector11count_nodes
FN:208,_RNvMs0_NtNtCsjDzxbYtLkYp_16soroban_debugger9inspector4authNtB5_13AuthInspector12count_failed
FN:59,_RNvMs0_NtNtCsjDzxbYtLkYp_16soroban_debugger9inspector4authNtB5_13AuthInspector13get_auth_tree
FN:262,_RNvMs0_NtNtCsjDzxbYtLkYp_16soroban_debugger9inspector4authNtB5_13AuthInspector13to_json_value
FN:248,_RNvMs0_NtNtCsjDzxbYtLkYp_16soroban_debugger9inspector4authNtB5_13AuthInspector14colors_enabled
FN:108,_RNvMs0_NtNtCsjDzxbYtLkYp_16soroban_debugger9inspector4authNtB5_13AuthInspector18build_failed_nodes
FN:71,_RNvMs0_NtNtCsjDzxbYtLkYp_16soroban_debugger9inspector4authNtB5_13AuthInspector18convert_invocation
FN:137,_RNvMs0_NtNtCsjDzxbYtLkYp_16soroban_debugger9inspector4authNtB5_13AuthInspector20display_with_summary
FN:240,_RNvMs0_NtNtCsjDzxbYtLkYp_16soroban_debugger9inspector4authNtB5_13AuthInspector3dim
FN:232,_RNvMs0_NtNtCsjDzxbYtLkYp_16soroban_debugger9inspector4authNtB5_13AuthInspector3red
FN:224,_RNvMs0_NtNtCsjDzxbYtLkYp_16soroban_debugger9inspector4authNtB5_13AuthInspector5green
FN:125,_RNvMs0_NtNtCsjDzxbYtLkYp_16soroban_debugger9inspector4authNtB5_13AuthInspector7display
FN:254,_RNvMs0_NtNtCsjDzxbYtLkYp_16soroban_debugger9inspector4authNtB5_13AuthInspector7to_json
FN:47,_RNvMs_NtNtCsjDzxbYtLkYp_16soroban_debugger9inspector4authNtB4_8AuthNode12has_failures
FN:204,_RNCNvMs0_NtNtCsjDzxbYtLkYp_16soroban_debugger9inspector4authNtB7_13AuthInspector11count_nodes0Bb_
FN:211,_RNCNvMs0_NtNtCsjDzxbYtLkYp_16soroban_debugger9inspector4authNtB7_13AuthInspector12count_failed0Bb_
FN:112,_RNCNvMs0_NtNtCsjDzxbYtLkYp_16soroban_debugger9inspector4authNtB7_13AuthInspector18build_failed_nodes0Bb_
FN:94,_RNCNvMs0_NtNtCsjDzxbYtLkYp_16soroban_debugger9inspector4authNtB7_13AuthInspector18convert_invocation0Bb_
FN:255,_RNCNvMs0_NtNtCsjDzxbYtLkYp_16soroban_debugger9inspector4authNtB7_13AuthInspector7to_json0Bb_
FN:51,_RNCNvMs_NtNtCsjDzxbYtLkYp_16soroban_debugger9inspector4authNtB6_8AuthNode12has_failures0Ba_
FN:204,_RNCNvMs0_NtNtCs2jO2QXn3WZ6_16soroban_debugger9inspector4authNtB7_13AuthInspector11count_nodes0Bb_
FN:211,_RNCNvMs0_NtNtCs2jO2QXn3WZ6_16soroban_debugger9inspector4authNtB7_13AuthInspector12count_failed0Bb_
FN:112,_RNCNvMs0_NtNtCs2jO2QXn3WZ6_16soroban_debugger9inspector4authNtB7_13AuthInspector18build_failed_nodes0Bb_
FN:94,_RNCNvMs0_NtNtCs2jO2QXn3WZ6_16soroban_debugger9inspector4authNtB7_13AuthInspector18convert_invocation0Bb_
FN:255,_RNCNvMs0_NtNtCs2jO2QXn3WZ6_16soroban_debugger9inspector4authNtB7_13AuthInspector7to_json0Bb_
FN:51,_RNCNvMs_NtNtCs2jO2QXn3WZ6_16soroban_debugger9inspector4authNtB6_8AuthNode12has_failures0Ba_
FN:21,_RNvMNtNtCs2jO2QXn3WZ6_16soroban_debugger9inspector4authNtB2_10AuthStatus6as_str
FN:167,_RNvMs0_NtNtCs2jO2QXn3WZ6_16soroban_debugger9inspector4authNtB5_13AuthInspector10print_node
FN:201,_RNvMs0_NtNtCs2jO2QXn3WZ6_16soroban_debugger9inspector4authNtB5_13AuthInspector11count_nodes
FN:208,_RNvMs0_NtNtCs2jO2QXn3WZ6_16soroban_debugger9inspector4authNtB5_13AuthInspector12count_failed
FN:59,_RNvMs0_NtNtCs2jO2QXn3WZ6_16soroban_debugger9inspector4authNtB5_13AuthInspector13get_auth_tree
FN:262,_RNvMs0_NtNtCs2jO2QXn3WZ6_16soroban_debugger9inspector4authNtB5_13AuthInspector13to_json_value
FN:248,_RNvMs0_NtNtCs2jO2QXn3WZ6_16soroban_debugger9inspector4authNtB5_13AuthInspector14colors_enabled
FN:108,_RNvMs0_NtNtCs2jO2QXn3WZ6_16soroban_debugger9inspector4authNtB5_13AuthInspector18build_failed_nodes
FN:71,_RNvMs0_NtNtCs2jO2QXn3WZ6_16soroban_debugger9inspector4authNtB5_13AuthInspector18convert_invocation
FN:137,_RNvMs0_NtNtCs2jO2QXn3WZ6_16soroban_debugger9inspector4authNtB5_13AuthInspector20display_with_summary
FN:240,_RNvMs0_NtNtCs2jO2QXn3WZ6_16soroban_debugger9inspector4authNtB5_13AuthInspector3dim
FN:232,_RNvMs0_NtNtCs2jO2QXn3WZ6_16soroban_debugger9inspector4authNtB5_13AuthInspector3red
FN:224,_RNvMs0_NtNtCs2jO2QXn3WZ6_16soroban_debugger9inspector4authNtB5_13AuthInspector5green
FN:125,_RNvMs0_NtNtCs2jO2QXn3WZ6_16soroban_debugger9inspector4authNtB5_13AuthInspector7display
FN:254,_RNvMs0_NtNtCs2jO2QXn3WZ6_16soroban_debugger9inspector4authNtB5_13AuthInspector7to_json
FN:47,_RNvMs_NtNtCs2jO2QXn3WZ6_16soroban_debugger9inspector4authNtB4_8AuthNode12has_failures
FNDA:3,_RNvMNtNtCsjDzxbYtLkYp_16soroban_debugger9inspector4authNtB2_10AuthStatus6as_str
FNDA:10,_RNvMs0_NtNtCsjDzxbYtLkYp_16soroban_debugger9inspector4authNtB5_13AuthInspector10print_node
FNDA:10,_RNvMs0_NtNtCsjDzxbYtLkYp_16soroban_debugger9inspector4authNtB5_13AuthInspector11count_nodes
FNDA:10,_RNvMs0_NtNtCsjDzxbYtLkYp_16soroban_debugger9inspector4authNtB5_13AuthInspector12count_failed
FNDA:1,_RNvMs0_NtNtCsjDzxbYtLkYp_16soroban_debugger9inspector4authNtB5_13AuthInspector13get_auth_tree
FNDA:1,_RNvMs0_NtNtCsjDzxbYtLkYp_16soroban_debugger9inspector4authNtB5_13AuthInspector13to_json_value
FNDA:19,_RNvMs0_NtNtCsjDzxbYtLkYp_16soroban_debugger9inspector4authNtB5_13AuthInspector14colors_enabled
FNDA:2,_RNvMs0_NtNtCsjDzxbYtLkYp_16soroban_debugger9inspector4authNtB5_13AuthInspector18build_failed_nodes
FNDA:0,_RNvMs0_NtNtCsjDzxbYtLkYp_16soroban_debugger9inspector4authNtB5_13AuthInspector18convert_invocation
FNDA:3,_RNvMs0_NtNtCsjDzxbYtLkYp_16soroban_debugger9inspector4authNtB5_13AuthInspector20display_with_summary
FNDA:6,_RNvMs0_NtNtCsjDzxbYtLkYp_16soroban_debugger9inspector4authNtB5_13AuthInspector3dim
FNDA:5,_RNvMs0_NtNtCsjDzxbYtLkYp_16soroban_debugger9inspector4authNtB5_13AuthInspector3red
FNDA:8,_RNvMs0_NtNtCsjDzxbYtLkYp_16soroban_debugger9inspector4authNtB5_13AuthInspector5green
FNDA:4,_RNvMs0_NtNtCsjDzxbYtLkYp_16soroban_debugger9inspector4authNtB5_13AuthInspector7display
FNDA:8,_RNvMs0_NtNtCsjDzxbYtLkYp_16soroban_debugger9inspector4authNtB5_13AuthInspector7to_json
FNDA:9,_RNvMs_NtNtCsjDzxbYtLkYp_16soroban_debugger9inspector4authNtB4_8AuthNode12has_failures
FNDA:7,_RNCNvMs0_NtNtCsjDzxbYtLkYp_16soroban_debugger9inspector4authNtB7_13AuthInspector11count_nodes0Bb_
FNDA:7,_RNCNvMs0_NtNtCsjDzxbYtLkYp_16soroban_debugger9inspector4authNtB7_13AuthInspector12count_failed0Bb_
FNDA:3,_RNCNvMs0_NtNtCsjDzxbYtLkYp_16soroban_debugger9inspector4authNtB7_13AuthInspector18build_failed_nodes0Bb_
FNDA:0,_RNCNvMs0_NtNtCsjDzxbYtLkYp_16soroban_debugger9inspector4authNtB7_13AuthInspector18convert_invocation0Bb_
FNDA:0,_RNCNvMs0_NtNtCsjDzxbYtLkYp_16soroban_debugger9inspector4authNtB7_13AuthInspector7to_json0Bb_
FNDA:4,_RNCNvMs_NtNtCsjDzxbYtLkYp_16soroban_debugger9inspector4authNtB6_8AuthNode12has_failures0Ba_
FNDA:0,_RNCNvMs0_NtNtCs2jO2QXn3WZ6_16soroban_debugger9inspector4authNtB7_13AuthInspector11count_nodes0Bb_
FNDA:0,_RNCNvMs0_NtNtCs2jO2QXn3WZ6_16soroban_debugger9inspector4authNtB7_13AuthInspector12count_failed0Bb_
FNDA:0,_RNCNvMs0_NtNtCs2jO2QXn3WZ6_16soroban_debugger9inspector4authNtB7_13AuthInspector18build_failed_nodes0Bb_
FNDA:0,_RNCNvMs0_NtNtCs2jO2QXn3WZ6_16soroban_debugger9inspector4authNtB7_13AuthInspector18convert_invocation0Bb_
FNDA:0,_RNCNvMs0_NtNtCs2jO2QXn3WZ6_16soroban_debugger9inspector4authNtB7_13AuthInspector7to_json0Bb_
FNDA:0,_RNCNvMs_NtNtCs2jO2QXn3WZ6_16soroban_debugger9inspector4authNtB6_8AuthNode12has_failures0Ba_
FNDA:0,_RNvMNtNtCs2jO2QXn3WZ6_16soroban_debugger9inspector4authNtB2_10AuthStatus6as_str
FNDA:0,_RNvMs0_NtNtCs2jO2QXn3WZ6_16soroban_debugger9inspector4authNtB5_13AuthInspector10print_node
FNDA:0,_RNvMs0_NtNtCs2jO2QXn3WZ6_16soroban_debugger9inspector4authNtB5_13AuthInspector11count_nodes
FNDA:0,_RNvMs0_NtNtCs2jO2QXn3WZ6_16soroban_debugger9inspector4authNtB5_13AuthInspector12count_failed
FNDA:0,_RNvMs0_NtNtCs2jO2QXn3WZ6_16soroban_debugger9inspector4authNtB5_13AuthInspector13get_auth_tree
FNDA:0,_RNvMs0_NtNtCs2jO2QXn3WZ6_16soroban_debugger9inspector4authNtB5_13AuthInspector13to_json_value
FNDA:0,_RNvMs0_NtNtCs2jO2QXn3WZ6_16soroban_debugger9inspector4authNtB5_13AuthInspector14colors_enabled
FNDA:0,_RNvMs0_NtNtCs2jO2QXn3WZ6_16soroban_debugger9inspector4authNtB5_13AuthInspector18build_failed_nodes
FNDA:0,_RNvMs0_NtNtCs2jO2QXn3WZ6_16soroban_debugger9inspector4authNtB5_13AuthInspector18convert_invocation
FNDA:0,_RNvMs0_NtNtCs2jO2QXn3WZ6_16soroban_debugger9inspector4authNtB5_13AuthInspector20display_with_summary
FNDA:0,_RNvMs0_NtNtCs2jO2QXn3WZ6_16soroban_debugger9inspector4authNtB5_13AuthInspector3dim
FNDA:0,_RNvMs0_NtNtCs2jO2QXn3WZ6_16soroban_debugger9inspector4authNtB5_13AuthInspector3red
FNDA:0,_RNvMs0_NtNtCs2jO2QXn3WZ6_16soroban_debugger9inspector4authNtB5_13AuthInspector5green
FNDA:0,_RNvMs0_NtNtCs2jO2QXn3WZ6_16soroban_debugger9inspector4authNtB5_13AuthInspector7display
FNDA:0,_RNvMs0_NtNtCs2jO2QXn3WZ6_16soroban_debugger9inspector4authNtB5_13AuthInspector7to_json
FNDA:0,_RNvMs_NtNtCs2jO2QXn3WZ6_16soroban_debugger9inspector4authNtB4_8AuthNode12has_failures
FNF:22
FNH:19
DA:21,3
DA:22,3
DA:23,1
DA:24,1
DA:25,1
DA:27,3
DA:47,9
DA:48,9
DA:49,4
DA:50,5
DA:51,5
DA:52,9
DA:59,1
DA:60,1
DA:61,1
DA:63,1
DA:64,0
DA:65,0
DA:66,0
DA:68,1
DA:69,1
DA:71,0
DA:72,0
DA:73,0
DA:74,0
DA:75,0
DA:76,0
DA:78,0
DA:79,0
DA:80,0
DA:81,0
DA:83,0
DA:84,0
DA:85,0
DA:86,0
DA:91,0
DA:92,0
DA:93,0
DA:94,0
DA:95,0
DA:97,0
DA:98,0
DA:99,0
DA:100,0
DA:101,0
DA:102,0
DA:103,0
DA:104,0
DA:108,2
DA:109,2
DA:110,2
DA:111,2
DA:112,3
DA:113,3
DA:114,3
DA:115,3
DA:116,3
DA:117,3
DA:118,2
DA:119,2
DA:125,4
DA:126,4
DA:127,1
DA:128,1
DA:129,3
DA:131,3
DA:132,3
DA:133,3
DA:134,4
DA:137,3
DA:138,3
DA:139,0
DA:140,0
DA:141,3
DA:143,3
DA:144,3
DA:146,3
DA:147,3
DA:148,3
DA:150,3
DA:151,3
DA:152,1
DA:153,1
DA:154,1
DA:155,1
DA:156,2
DA:157,2
DA:158,2
DA:159,2
DA:160,2
DA:161,2
DA:162,2
DA:163,2
DA:164,2
DA:165,3
DA:167,10
DA:168,10
DA:169,10
DA:170,6
DA:171,4
DA:172,4
DA:174,0
DA:177,10
DA:178,7
DA:179,2
DA:180,1
DA:184,10
DA:185,6
DA:186,6
DA:188,10
DA:193,10
DA:195,10
DA:196,10
DA:197,4
DA:198,4
DA:199,10
DA:201,10
DA:202,10
DA:203,10
DA:204,10
DA:205,10
DA:206,10
DA:208,10
DA:209,10
DA:210,10
DA:211,10
DA:212,7
DA:213,2
DA:215,5
DA:217,7
DA:218,7
DA:219,10
DA:220,10
DA:224,8
DA:225,8
DA:226,8
DA:228,0
DA:230,8
DA:232,5
DA:233,5
DA:234,5
DA:236,0
DA:238,5
DA:240,6
DA:241,6
DA:242,6
DA:244,0
DA:246,6
DA:248,19
DA:250,19
DA:251,19
DA:254,8
DA:255,8
DA:256,0
DA:257,0
DA:258,8
DA:262,1
DA:263,1
DA:264,1
BRF:0
BRH:0
LF:164
LH:124
end_of_record
SF:/home/admin/Desktop/opensource/soroban-debugger/src/inspector/budget.rs
FN:353,_RNCNvMs0_NtNtCsjDzxbYtLkYp_16soroban_debugger9inspector6budgetNtB7_13MemoryTracker19get_top_allocations0Bb_
FN:11,_RNvMNtNtCsjDzxbYtLkYp_16soroban_debugger9inspector6budgetNtB2_15BudgetInspector13get_cpu_usage
FN:103,_RNvMNtNtCsjDzxbYtLkYp_16soroban_debugger9inspector6budgetNtB2_15BudgetInspector14create_warning
FN:77,_RNvMNtNtCsjDzxbYtLkYp_16soroban_debugger9inspector6budgetNtB2_15BudgetInspector16check_thresholds
FN:27,_RNvMNtNtCsjDzxbYtLkYp_16soroban_debugger9inspector6budgetNtB2_15BudgetInspector7display
FN:357,_RNvMs0_NtNtCsjDzxbYtLkYp_16soroban_debugger9inspector6budgetNtB5_13MemoryTracker11peak_memory
FN:274,_RNvMs0_NtNtCsjDzxbYtLkYp_16soroban_debugger9inspector6budgetNtB5_13MemoryTracker15record_snapshot
FN:361,_RNvMs0_NtNtCsjDzxbYtLkYp_16soroban_debugger9inspector6budgetNtB5_13MemoryTracker16allocation_count
FN:351,_RNvMs0_NtNtCsjDzxbYtLkYp_16soroban_debugger9inspector6budgetNtB5_13MemoryTracker19get_top_allocations
FN:321,_RNvMs0_NtNtCsjDzxbYtLkYp_16soroban_debugger9inspector6budgetNtB5_13MemoryTracker20record_memory_change
FN:365,_RNvMs0_NtNtCsjDzxbYtLkYp_16soroban_debugger9inspector6budgetNtB5_13MemoryTracker21total_allocated_bytes
FN:264,_RNvMs0_NtNtCsjDzxbYtLkYp_16soroban_debugger9inspector6budgetNtB5_13MemoryTracker3new
FN:369,_RNvMs0_NtNtCsjDzxbYtLkYp_16soroban_debugger9inspector6budgetNtB5_13MemoryTracker8finalize
FN:400,_RNvMs1_NtNtCsjDzxbYtLkYp_16soroban_debugger9inspector6budgetNtB5_13MemorySummary7display
FN:451,_RNvMs1_NtNtCsjDzxbYtLkYp_16soroban_debugger9inspector6budgetNtB5_13MemorySummary7to_json
FN:160,_RNvMs_NtNtCsjDzxbYtLkYp_16soroban_debugger9inspector6budgetNtB4_10BudgetInfo14cpu_percentage
FN:169,_RNvMs_NtNtCsjDzxbYtLkYp_16soroban_debugger9inspector6budgetNtB4_10BudgetInfo17memory_percentage
FN:451,_RNvMs1_NtNtCs2jO2QXn3WZ6_16soroban_debugger9inspector6budgetNtB5_13MemorySummary7to_json
FN:461,_RNvNtNtNtCs2jO2QXn3WZ6_16soroban_debugger9inspector6budget12memory_testss_42memory_tracker_tracks_count_peak_and_total
FN:475,_RNvNtNtNtCs2jO2QXn3WZ6_16soroban_debugger9inspector6budget12memory_testss_58memory_tracker_returns_top_five_largest_allocations_sorted
FN:353,_RNCNvMs0_NtNtCs2jO2QXn3WZ6_16soroban_debugger9inspector6budgetNtB7_13MemoryTracker19get_top_allocations0Bb_
FN:220,_RNvNtNtNtCs2jO2QXn3WZ6_16soroban_debugger9inspector6budget5testss_25test_check_thresholds_red
FN:195,_RNvNtNtNtCs2jO2QXn3WZ6_16soroban_debugger9inspector6budget5testss_26test_check_thresholds_none
FN:207,_RNvNtNtNtCs2jO2QXn3WZ6_16soroban_debugger9inspector6budget5testss_28test_check_thresholds_yellow
FN:233,_RNvNtNtNtCs2jO2QXn3WZ6_16soroban_debugger9inspector6budget5testss_30test_check_thresholds_critical
FN:183,_RNvNtNtNtCs2jO2QXn3WZ6_16soroban_debugger9inspector6budget5testss_34test_budget_percentage_calculation
FN:11,_RNvMNtNtCs2jO2QXn3WZ6_16soroban_debugger9inspector6budgetNtB2_15BudgetInspector13get_cpu_usage
FN:103,_RNvMNtNtCs2jO2QXn3WZ6_16soroban_debugger9inspector6budgetNtB2_15BudgetInspector14create_warning
FN:77,_RNvMNtNtCs2jO2QXn3WZ6_16soroban_debugger9inspector6budgetNtB2_15BudgetInspector16check_thresholds
FN:27,_RNvMNtNtCs2jO2QXn3WZ6_16soroban_debugger9inspector6budgetNtB2_15BudgetInspector7display
FN:357,_RNvMs0_NtNtCs2jO2QXn3WZ6_16soroban_debugger9inspector6budgetNtB5_13MemoryTracker11peak_memory
FN:274,_RNvMs0_NtNtCs2jO2QXn3WZ6_16soroban_debugger9inspector6budgetNtB5_13MemoryTracker15record_snapshot
FN:361,_RNvMs0_NtNtCs2jO2QXn3WZ6_16soroban_debugger9inspector6budgetNtB5_13MemoryTracker16allocation_count
FN:351,_RNvMs0_NtNtCs2jO2QXn3WZ6_16soroban_debugger9inspector6budgetNtB5_13MemoryTracker19get_top_allocations
FN:321,_RNvMs0_NtNtCs2jO2QXn3WZ6_16soroban_debugger9inspector6budgetNtB5_13MemoryTracker20record_memory_change
FN:365,_RNvMs0_NtNtCs2jO2QXn3WZ6_16soroban_debugger9inspector6budgetNtB5_13MemoryTracker21total_allocated_bytes
FN:264,_RNvMs0_NtNtCs2jO2QXn3WZ6_16soroban_debugger9inspector6budgetNtB5_13MemoryTracker3new
FN:369,_RNvMs0_NtNtCs2jO2QXn3WZ6_16soroban_debugger9inspector6budgetNtB5_13MemoryTracker8finalize
FN:400,_RNvMs1_NtNtCs2jO2QXn3WZ6_16soroban_debugger9inspector6budgetNtB5_13MemorySummary7display
FN:160,_RNvMs_NtNtCs2jO2QXn3WZ6_16soroban_debugger9inspector6budgetNtB4_10BudgetInfo14cpu_percentage
FN:169,_RNvMs_NtNtCs2jO2QXn3WZ6_16soroban_debugger9inspector6budgetNtB4_10BudgetInfo17memory_percentage
FNDA:0,_RNCNvMs0_NtNtCsjDzxbYtLkYp_16soroban_debugger9inspector6budgetNtB7_13MemoryTracker19get_top_allocations0Bb_
FNDA:0,_RNvMNtNtCsjDzxbYtLkYp_16soroban_debugger9inspector6budgetNtB2_15BudgetInspector13get_cpu_usage
FNDA:10,_RNvMNtNtCsjDzxbYtLkYp_16soroban_debugger9inspector6budgetNtB2_15BudgetInspector14create_warning
FNDA:5,_RNvMNtNtCsjDzxbYtLkYp_16soroban_debugger9inspector6budgetNtB2_15BudgetInspector16check_thresholds
FNDA:0,_RNvMNtNtCsjDzxbYtLkYp_16soroban_debugger9inspector6budgetNtB2_15BudgetInspector7display
FNDA:0,_RNvMs0_NtNtCsjDzxbYtLkYp_16soroban_debugger9inspector6budgetNtB5_13MemoryTracker11peak_memory
FNDA:0,_RNvMs0_NtNtCsjDzxbYtLkYp_16soroban_debugger9inspector6budgetNtB5_13MemoryTracker15record_snapshot
FNDA:0,_RNvMs0_NtNtCsjDzxbYtLkYp_16soroban_debugger9inspector6budgetNtB5_13MemoryTracker16allocation_count
FNDA:0,_RNvMs0_NtNtCsjDzxbYtLkYp_16soroban_debugger9inspector6budgetNtB5_13MemoryTracker19get_top_allocations
FNDA:0,_RNvMs0_NtNtCsjDzxbYtLkYp_16soroban_debugger9inspector6budgetNtB5_13MemoryTracker20record_memory_change
FNDA:0,_RNvMs0_NtNtCsjDzxbYtLkYp_16soroban_debugger9inspector6budgetNtB5_13MemoryTracker21total_allocated_bytes
FNDA:0,_RNvMs0_NtNtCsjDzxbYtLkYp_16soroban_debugger9inspector6budgetNtB5_13MemoryTracker3new
FNDA:0,_RNvMs0_NtNtCsjDzxbYtLkYp_16soroban_debugger9inspector6budgetNtB5_13MemoryTracker8finalize
FNDA:0,_RNvMs1_NtNtCsjDzxbYtLkYp_16soroban_debugger9inspector6budgetNtB5_13MemorySummary7display
FNDA:0,_RNvMs1_NtNtCsjDzxbYtLkYp_16soroban_debugger9inspector6budgetNtB5_13MemorySummary7to_json
FNDA:261,_RNvMs_NtNtCsjDzxbYtLkYp_16soroban_debugger9inspector6budgetNtB4_10BudgetInfo14cpu_percentage
FNDA:261,_RNvMs_NtNtCsjDzxbYtLkYp_16soroban_debugger9inspector6budgetNtB4_10BudgetInfo17memory_percentage
FNDA:0,_RNvMs1_NtNtCs2jO2QXn3WZ6_16soroban_debugger9inspector6budgetNtB5_13MemorySummary7to_json
FNDA:1,_RNvNtNtNtCs2jO2QXn3WZ6_16soroban_debugger9inspector6budget12memory_testss_42memory_tracker_tracks_count_peak_and_total
FNDA:1,_RNvNtNtNtCs2jO2QXn3WZ6_16soroban_debugger9inspector6budget12memory_testss_58memory_tracker_returns_top_five_largest_allocations_sorted
FNDA:17,_RNCNvMs0_NtNtCs2jO2QXn3WZ6_16soroban_debugger9inspector6budgetNtB7_13MemoryTracker19get_top_allocations0Bb_
FNDA:1,_RNvNtNtNtCs2jO2QXn3WZ6_16soroban_debugger9inspector6budget5testss_25test_check_thresholds_red
FNDA:1,_RNvNtNtNtCs2jO2QXn3WZ6_16soroban_debugger9inspector6budget5testss_26test_check_thresholds_none
FNDA:1,_RNvNtNtNtCs2jO2QXn3WZ6_16soroban_debugger9inspector6budget5testss_28test_check_thresholds_yellow
FNDA:1,_RNvNtNtNtCs2jO2QXn3WZ6_16soroban_debugger9inspector6budget5testss_30test_check_thresholds_critical
FNDA:1,_RNvNtNtNtCs2jO2QXn3WZ6_16soroban_debugger9inspector6budget5testss_34test_budget_percentage_calculation
FNDA:0,_RNvMNtNtCs2jO2QXn3WZ6_16soroban_debugger9inspector6budgetNtB2_15BudgetInspector13get_cpu_usage
FNDA:8,_RNvMNtNtCs2jO2QXn3WZ6_16soroban_debugger9inspector6budgetNtB2_15BudgetInspector14create_warning
FNDA:4,_RNvMNtNtCs2jO2QXn3WZ6_16soroban_debugger9inspector6budgetNtB2_15BudgetInspector16check_thresholds
FNDA:0,_RNvMNtNtCs2jO2QXn3WZ6_16soroban_debugger9inspector6budgetNtB2_15BudgetInspector7display
FNDA:1,_RNvMs0_NtNtCs2jO2QXn3WZ6_16soroban_debugger9inspector6budgetNtB5_13MemoryTracker11peak_memory
FNDA:0,_RNvMs0_NtNtCs2jO2QXn3WZ6_16soroban_debugger9inspector6budgetNtB5_13MemoryTracker15record_snapshot
FNDA:1,_RNvMs0_NtNtCs2jO2QXn3WZ6_16soroban_debugger9inspector6budgetNtB5_13MemoryTracker16allocation_count
FNDA:1,_RNvMs0_NtNtCs2jO2QXn3WZ6_16soroban_debugger9inspector6budgetNtB5_13MemoryTracker19get_top_allocations
FNDA:11,_RNvMs0_NtNtCs2jO2QXn3WZ6_16soroban_debugger9inspector6budgetNtB5_13MemoryTracker20record_memory_change
FNDA:1,_RNvMs0_NtNtCs2jO2QXn3WZ6_16soroban_debugger9inspector6budgetNtB5_13MemoryTracker21total_allocated_bytes
FNDA:2,_RNvMs0_NtNtCs2jO2QXn3WZ6_16soroban_debugger9inspector6budgetNtB5_13MemoryTracker3new
FNDA:0,_RNvMs0_NtNtCs2jO2QXn3WZ6_16soroban_debugger9inspector6budgetNtB5_13MemoryTracker8finalize
FNDA:0,_RNvMs1_NtNtCs2jO2QXn3WZ6_16soroban_debugger9inspector6budgetNtB5_13MemorySummary7display
FNDA:5,_RNvMs_NtNtCs2jO2QXn3WZ6_16soroban_debugger9inspector6budgetNtB4_10BudgetInfo14cpu_percentage
FNDA:5,_RNvMs_NtNtCs2jO2QXn3WZ6_16soroban_debugger9inspector6budgetNtB4_10BudgetInfo17memory_percentage
FNF:24
FNH:18
DA:11,0
DA:12,0
DA:13,0
DA:14,0
DA:15,0
DA:16,0
DA:18,0
DA:19,0
DA:20,0
DA:21,0
DA:22,0
DA:23,0
DA:24,0
DA:27,0
DA:28,0
DA:30,0
DA:31,0
DA:33,0
DA:43,0
DA:44,0
DA:45,0
DA:46,0
DA:47,0
DA:48,0
DA:51,0
DA:52,0
DA:53,0
DA:54,0
DA:57,0
DA:58,0
DA:60,0
DA:64,0
DA:67,0
DA:68,0
DA:69,0
DA:70,0
DA:71,0
DA:72,0
DA:74,0
DA:77,9
DA:78,9
DA:81,9
DA:82,9
DA:83,7
DA:84,7
DA:87,9
DA:88,9
DA:89,1
DA:90,8
DA:93,9
DA:94,5
DA:95,5
DA:96,9
DA:97,1
DA:98,8
DA:100,9
DA:101,9
DA:103,18
DA:104,18
DA:105,4
DA:106,4
DA:107,4
DA:108,4
DA:109,4
DA:110,4
DA:111,4
DA:112,4
DA:113,4
DA:114,14
DA:115,2
DA:116,2
DA:117,2
DA:118,2
DA:119,2
DA:120,2
DA:121,12
DA:122,2
DA:123,2
DA:124,2
DA:125,2
DA:126,2
DA:127,2
DA:129,10
DA:131,18
DA:160,266
DA:161,266
DA:162,0
DA:164,266
DA:166,266
DA:169,266
DA:170,266
DA:171,0
DA:173,266
DA:175,266
DA:183,1
DA:184,1
DA:185,1
DA:186,1
DA:187,1
DA:188,1
DA:189,1
DA:190,1
DA:191,1
DA:192,1
DA:195,1
DA:196,1
DA:197,1
DA:198,1
DA:199,1
DA:200,1
DA:201,1
DA:202,1
DA:203,1
DA:204,1
DA:207,1
DA:208,1
DA:209,1
DA:210,1
DA:211,1
DA:212,1
DA:213,1
DA:214,1
DA:215,1
DA:216,1
DA:217,1
DA:220,1
DA:221,1
DA:222,1
DA:223,1
DA:224,1
DA:225,1
DA:226,1
DA:227,1
DA:228,1
DA:229,1
DA:230,1
DA:233,1
DA:234,1
DA:235,1
DA:236,1
DA:237,1
DA:238,1
DA:239,1
DA:240,1
DA:241,1
DA:242,1
DA:243,1
DA:244,1
DA:264,2
DA:265,2
DA:266,2
DA:267,2
DA:268,2
DA:269,2
DA:270,2
DA:271,2
DA:272,2
DA:274,0
DA:275,0
DA:276,0
DA:278,0
DA:279,0
DA:280,0
DA:282,0
DA:283,0
DA:284,0
DA:285,0
DA:286,0
DA:287,0
DA:288,0
DA:289,0
DA:290,0
DA:291,0
DA:292,0
DA:293,0
DA:295,0
DA:296,0
DA:297,0
DA:298,0
DA:299,0
DA:300,0
DA:301,0
DA:303,0
DA:304,0
DA:305,0
DA:306,0
DA:307,0
DA:308,0
DA:309,0
DA:310,0
DA:311,0
DA:312,0
DA:313,0
DA:314,0
DA:315,0
DA:316,0
DA:317,0
DA:319,0
DA:321,11
DA:322,11
DA:323,11
DA:324,11
DA:325,11
DA:326,11
DA:327,11
DA:328,10
DA:329,10
DA:331,11
DA:332,10
DA:333,10
DA:334,10
DA:335,10
DA:336,10
DA:337,10
DA:338,10
DA:339,10
DA:340,10
DA:342,10
DA:343,0
DA:344,10
DA:345,10
DA:346,10
DA:347,10
DA:348,1
DA:349,11
DA:351,1
DA:352,1
DA:353,17
DA:354,1
DA:355,1
DA:357,1
DA:358,1
DA:359,1
DA:361,1
DA:362,1
DA:363,1
DA:365,1
DA:366,1
DA:367,1
DA:369,0
DA:370,0
DA:371,0
DA:373,0
DA:374,0
DA:375,0
DA:377,0
DA:378,0
DA:379,0
DA:380,0
DA:381,0
DA:382,0
DA:383,0
DA:384,0
DA:385,0
DA:400,0
DA:401,0
DA:403,0
DA:405,0
DA:406,0
DA:407,0
DA:409,0
DA:410,0
DA:411,0
DA:413,0
DA:414,0
DA:418,0
DA:420,0
DA:421,0
DA:422,0
DA:424,0
DA:425,0
DA:426,0
DA:428,0
DA:429,0
DA:431,0
DA:433,0
DA:436,0
DA:437,0
DA:439,0
DA:441,0
DA:442,0
DA:443,0
DA:444,0
DA:445,0
DA:446,0
DA:447,0
DA:448,0
DA:449,0
DA:451,0
DA:452,0
DA:453,0
DA:461,1
DA:462,1
DA:464,1
DA:465,1
DA:466,1
DA:467,1
DA:469,1
DA:470,1
DA:471,1
DA:472,1
DA:475,1
DA:476,1
DA:477,1
DA:478,1
DA:480,7
DA:481,7
DA:482,7
DA:483,7
DA:484,7
DA:486,1
DA:487,1
DA:488,1
DA:489,1
BRF:0
BRH:0
LF:315
LH:180
end_of_record
SF:/home/admin/Desktop/opensource/soroban-debugger/src/inspector/events.rs
FN:71,_RNCNCNvMNtNtCsjDzxbYtLkYp_16soroban_debugger9inspector6eventsNtB6_14EventInspector13filter_events00Ba_
FN:25,_RNCNvMNtNtCsjDzxbYtLkYp_16soroban_debugger9inspector6eventsNtB4_14EventInspector10get_events0B8_
FN:46,_RNCNvMNtNtCsjDzxbYtLkYp_16soroban_debugger9inspector6eventsNtB4_14EventInspector10get_eventss_0B8_
FN:67,_RNCNvMNtNtCsjDzxbYtLkYp_16soroban_debugger9inspector6eventsNtB4_14EventInspector13filter_events0B8_
FN:99,_RNCNvMNtNtCsjDzxbYtLkYp_16soroban_debugger9inspector6eventsNtB4_14EventInspector13to_json_value0B8_
FN:22,_RNvMNtNtCsjDzxbYtLkYp_16soroban_debugger9inspector6eventsNtB2_14EventInspector10get_events
FN:60,_RNvMNtNtCsjDzxbYtLkYp_16soroban_debugger9inspector6eventsNtB2_14EventInspector13filter_events
FN:81,_RNvMNtNtCsjDzxbYtLkYp_16soroban_debugger9inspector6eventsNtB2_14EventInspector13format_events
FN:96,_RNvMNtNtCsjDzxbYtLkYp_16soroban_debugger9inspector6eventsNtB2_14EventInspector13to_json_value
FN:25,_RNCNvMNtNtCs2jO2QXn3WZ6_16soroban_debugger9inspector6eventsNtB4_14EventInspector10get_events0B8_
FN:46,_RNCNvMNtNtCs2jO2QXn3WZ6_16soroban_debugger9inspector6eventsNtB4_14EventInspector10get_eventss_0B8_
FN:99,_RNCNvMNtNtCs2jO2QXn3WZ6_16soroban_debugger9inspector6eventsNtB4_14EventInspector13to_json_value0B8_
FN:22,_RNvMNtNtCs2jO2QXn3WZ6_16soroban_debugger9inspector6eventsNtB2_14EventInspector10get_events
FN:81,_RNvMNtNtCs2jO2QXn3WZ6_16soroban_debugger9inspector6eventsNtB2_14EventInspector13format_events
FN:96,_RNvMNtNtCs2jO2QXn3WZ6_16soroban_debugger9inspector6eventsNtB2_14EventInspector13to_json_value
FN:116,_RNvNtNtNtCs2jO2QXn3WZ6_16soroban_debugger9inspector6events5testss_18test_filter_events
FN:60,_RNvMNtNtCs2jO2QXn3WZ6_16soroban_debugger9inspector6eventsNtB2_14EventInspector13filter_events
FN:71,_RNCNCNvMNtNtCs2jO2QXn3WZ6_16soroban_debugger9inspector6eventsNtB6_14EventInspector13filter_events00Ba_
FN:67,_RNCNvMNtNtCs2jO2QXn3WZ6_16soroban_debugger9inspector6eventsNtB4_14EventInspector13filter_events0B8_
FNDA:0,_RNCNCNvMNtNtCsjDzxbYtLkYp_16soroban_debugger9inspector6eventsNtB6_14EventInspector13filter_events00Ba_
FNDA:0,_RNCNvMNtNtCsjDzxbYtLkYp_16soroban_debugger9inspector6eventsNtB4_14EventInspector10get_events0B8_
FNDA:0,_RNCNvMNtNtCsjDzxbYtLkYp_16soroban_debugger9inspector6eventsNtB4_14EventInspector10get_eventss_0B8_
FNDA:0,_RNCNvMNtNtCsjDzxbYtLkYp_16soroban_debugger9inspector6eventsNtB4_14EventInspector13filter_events0B8_
FNDA:0,_RNCNvMNtNtCsjDzxbYtLkYp_16soroban_debugger9inspector6eventsNtB4_14EventInspector13to_json_value0B8_
FNDA:0,_RNvMNtNtCsjDzxbYtLkYp_16soroban_debugger9inspector6eventsNtB2_14EventInspector10get_events
FNDA:0,_RNvMNtNtCsjDzxbYtLkYp_16soroban_debugger9inspector6eventsNtB2_14EventInspector13filter_events
FNDA:0,_RNvMNtNtCsjDzxbYtLkYp_16soroban_debugger9inspector6eventsNtB2_14EventInspector13format_events
FNDA:0,_RNvMNtNtCsjDzxbYtLkYp_16soroban_debugger9inspector6eventsNtB2_14EventInspector13to_json_value
FNDA:0,_RNCNvMNtNtCs2jO2QXn3WZ6_16soroban_debugger9inspector6eventsNtB4_14EventInspector10get_events0B8_
FNDA:0,_RNCNvMNtNtCs2jO2QXn3WZ6_16soroban_debugger9inspector6eventsNtB4_14EventInspector10get_eventss_0B8_
FNDA:0,_RNCNvMNtNtCs2jO2QXn3WZ6_16soroban_debugger9inspector6eventsNtB4_14EventInspector13to_json_value0B8_
FNDA:0,_RNvMNtNtCs2jO2QXn3WZ6_16soroban_debugger9inspector6eventsNtB2_14EventInspector10get_events
FNDA:0,_RNvMNtNtCs2jO2QXn3WZ6_16soroban_debugger9inspector6eventsNtB2_14EventInspector13format_events
FNDA:0,_RNvMNtNtCs2jO2QXn3WZ6_16soroban_debugger9inspector6eventsNtB2_14EventInspector13to_json_value
FNDA:1,_RNvNtNtNtCs2jO2QXn3WZ6_16soroban_debugger9inspector6events5testss_18test_filter_events
FNDA:3,_RNvMNtNtCs2jO2QXn3WZ6_16soroban_debugger9inspector6eventsNtB2_14EventInspector13filter_events
FNDA:14,_RNCNCNvMNtNtCs2jO2QXn3WZ6_16soroban_debugger9inspector6eventsNtB6_14EventInspector13filter_events00Ba_
FNDA:9,_RNCNvMNtNtCs2jO2QXn3WZ6_16soroban_debugger9inspector6eventsNtB4_14EventInspector13filter_events0B8_
FNF:10
FNH:4
DA:22,0
DA:23,0
DA:24,0
DA:25,0
DA:27,0
DA:29,0
DA:30,0
DA:33,0
DA:34,0
DA:35,0
DA:36,0
DA:37,0
DA:38,0
DA:39,0
DA:40,0
DA:46,0
DA:48,0
DA:49,0
DA:50,0
DA:51,0
DA:52,0
DA:55,0
DA:56,0
DA:60,3
DA:61,3
DA:62,0
DA:63,3
DA:64,3
DA:65,3
DA:66,3
DA:67,9
DA:69,9
DA:70,9
DA:71,14
DA:73,6
DA:74,9
DA:75,3
DA:76,3
DA:77,3
DA:81,0
DA:82,0
DA:83,0
DA:84,0
DA:85,0
DA:86,0
DA:87,0
DA:88,0
DA:89,0
DA:90,0
DA:91,0
DA:92,0
DA:93,0
DA:96,0
DA:97,0
DA:98,0
DA:99,0
DA:100,0
DA:101,0
DA:102,0
DA:103,0
DA:105,0
DA:106,0
DA:107,0
DA:108,0
DA:116,1
DA:117,1
DA:118,1
DA:119,1
DA:120,1
DA:121,1
DA:122,1
DA:123,1
DA:124,1
DA:125,1
DA:126,1
DA:127,1
DA:128,1
DA:129,1
DA:130,1
DA:131,1
DA:132,1
DA:135,1
DA:136,1
DA:137,1
DA:139,1
DA:140,1
DA:142,1
DA:143,1
DA:144,1
BRF:0
BRH:0
LF:94
LH:42
end_of_record
SF:/home/admin/Desktop/opensource/soroban-debugger/src/inspector/instructions.rs
FN:56,_RNCNvMNtNtCsjDzxbYtLkYp_16soroban_debugger9inspector12instructionsNtB4_18InstructionCounter10get_counts0B8_
FN:43,_RNCNvMNtNtCsjDzxbYtLkYp_16soroban_debugger9inspector12instructionsNtB4_18InstructionCounter12end_function0B8_
FN:53,_RNvMNtNtCsjDzxbYtLkYp_16soroban_debugger9inspector12instructionsNtB2_18InstructionCounter10get_counts
FN:33,_RNvMNtNtCsjDzxbYtLkYp_16soroban_debugger9inspector12instructionsNtB2_18InstructionCounter12end_function
FN:27,_RNvMNtNtCsjDzxbYtLkYp_16soroban_debugger9inspector12instructionsNtB2_18InstructionCounter14start_function
FN:60,_RNvMNtNtCsjDzxbYtLkYp_16soroban_debugger9inspector12instructionsNtB2_18InstructionCounter22get_total_instructions
FN:20,_RNvMNtNtCsjDzxbYtLkYp_16soroban_debugger9inspector12instructionsNtB2_18InstructionCounter3new
FN:67,_RNvMNtNtCsjDzxbYtLkYp_16soroban_debugger9inspector12instructionsNtB2_18InstructionCounter7display
FN:113,_RNvXs_NtNtCsjDzxbYtLkYp_16soroban_debugger9inspector12instructionsNtB4_18InstructionCounterNtNtCslH02haMvknO_4core7default7Default7default
FN:56,_RNCNvMNtNtCs2jO2QXn3WZ6_16soroban_debugger9inspector12instructionsNtB4_18InstructionCounter10get_counts0B8_
FN:43,_RNCNvMNtNtCs2jO2QXn3WZ6_16soroban_debugger9inspector12instructionsNtB4_18InstructionCounter12end_function0B8_
FN:53,_RNvMNtNtCs2jO2QXn3WZ6_16soroban_debugger9inspector12instructionsNtB2_18InstructionCounter10get_counts
FN:33,_RNvMNtNtCs2jO2QXn3WZ6_16soroban_debugger9inspector12instructionsNtB2_18InstructionCounter12end_function
FN:27,_RNvMNtNtCs2jO2QXn3WZ6_16soroban_debugger9inspector12instructionsNtB2_18InstructionCounter14start_function
FN:60,_RNvMNtNtCs2jO2QXn3WZ6_16soroban_debugger9inspector12instructionsNtB2_18InstructionCounter22get_total_instructions
FN:20,_RNvMNtNtCs2jO2QXn3WZ6_16soroban_debugger9inspector12instructionsNtB2_18InstructionCounter3new
FN:67,_RNvMNtNtCs2jO2QXn3WZ6_16soroban_debugger9inspector12instructionsNtB2_18InstructionCounter7display
FN:113,_RNvXs_NtNtCs2jO2QXn3WZ6_16soroban_debugger9inspector12instructionsNtB4_18InstructionCounterNtNtCslH02haMvknO_4core7default7Default7default
FNDA:0,_RNCNvMNtNtCsjDzxbYtLkYp_16soroban_debugger9inspector12instructionsNtB4_18InstructionCounter10get_counts0B8_
FNDA:0,_RNCNvMNtNtCsjDzxbYtLkYp_16soroban_debugger9inspector12instructionsNtB4_18InstructionCounter12end_function0B8_
FNDA:0,_RNvMNtNtCsjDzxbYtLkYp_16soroban_debugger9inspector12instructionsNtB2_18InstructionCounter10get_counts
FNDA:0,_RNvMNtNtCsjDzxbYtLkYp_16soroban_debugger9inspector12instructionsNtB2_18InstructionCounter12end_function
FNDA:0,_RNvMNtNtCsjDzxbYtLkYp_16soroban_debugger9inspector12instructionsNtB2_18InstructionCounter14start_function
FNDA:0,_RNvMNtNtCsjDzxbYtLkYp_16soroban_debugger9inspector12instructionsNtB2_18InstructionCounter22get_total_instructions
FNDA:0,_RNvMNtNtCsjDzxbYtLkYp_16soroban_debugger9inspector12instructionsNtB2_18InstructionCounter3new
FNDA:0,_RNvMNtNtCsjDzxbYtLkYp_16soroban_debugger9inspector12instructionsNtB2_18InstructionCounter7display
FNDA:0,_RNvXs_NtNtCsjDzxbYtLkYp_16soroban_debugger9inspector12instructionsNtB4_18InstructionCounterNtNtCslH02haMvknO_4core7default7Default7default
FNDA:0,_RNCNvMNtNtCs2jO2QXn3WZ6_16soroban_debugger9inspector12instructionsNtB4_18InstructionCounter10get_counts0B8_
FNDA:0,_RNCNvMNtNtCs2jO2QXn3WZ6_16soroban_debugger9inspector12instructionsNtB4_18InstructionCounter12end_function0B8_
FNDA:0,_RNvMNtNtCs2jO2QXn3WZ6_16soroban_debugger9inspector12instructionsNtB2_18InstructionCounter10get_counts
FNDA:0,_RNvMNtNtCs2jO2QXn3WZ6_16soroban_debugger9inspector12instructionsNtB2_18InstructionCounter12end_function
FNDA:0,_RNvMNtNtCs2jO2QXn3WZ6_16soroban_debugger9inspector12instructionsNtB2_18InstructionCounter14start_function
FNDA:0,_RNvMNtNtCs2jO2QXn3WZ6_16soroban_debugger9inspector12instructionsNtB2_18InstructionCounter22get_total_instructions
FNDA:0,_RNvMNtNtCs2jO2QXn3WZ6_16soroban_debugger9inspector12instructionsNtB2_18InstructionCounter3new
FNDA:0,_RNvMNtNtCs2jO2QXn3WZ6_16soroban_debugger9inspector12instructionsNtB2_18InstructionCounter7display
FNDA:0,_RNvXs_NtNtCs2jO2QXn3WZ6_16soroban_debugger9inspector12instructionsNtB4_18InstructionCounterNtNtCslH02haMvknO_4core7default7Default7default
FNF:9
FNH:0
DA:20,0
DA:21,0
DA:22,0
DA:23,0
DA:24,0
DA:25,0
DA:27,0
DA:28,0
DA:29,0
DA:30,0
DA:31,0
DA:33,0
DA:34,0
DA:35,0
DA:36,0
DA:37,0
DA:39,0
DA:40,0
DA:41,0
DA:42,0
DA:43,0
DA:46,0
DA:48,0
DA:49,0
DA:50,0
DA:51,0
DA:53,0
DA:54,0
DA:55,0
DA:56,0
DA:57,0
DA:58,0
DA:60,0
DA:61,0
DA:62,0
DA:63,0
DA:64,0
DA:65,0
DA:67,0
DA:68,0
DA:70,0
DA:71,0
DA:73,0
DA:75,0
DA:77,0
DA:79,0
DA:80,0
DA:82,0
DA:84,0
DA:86,0
DA:87,0
DA:88,0
DA:90,0
DA:92,0
DA:93,0
DA:94,0
DA:95,0
DA:96,0
DA:97,0
DA:98,0
DA:99,0
DA:100,0
DA:102,0
DA:103,0
DA:104,0
DA:105,0
DA:106,0
DA:108,0
DA:109,0
DA:113,0
DA:114,0
DA:115,0
BRF:0
BRH:0
LF:73
LH:0
end_of_record
SF:/home/admin/Desktop/opensource/soroban-debugger/src/inspector/ledger.rs
FN:79,_RINvMs0_NtNtCsjDzxbYtLkYp_16soroban_debugger9inspector6ledgerNtB6_20LedgerEntryInspector9add_entryNtNtCshQKOepsJxml_5alloc6string6StringB1y_EBa_
FN:107,_RNCNvMs0_NtNtCsjDzxbYtLkYp_16soroban_debugger9inspector6ledgerNtB7_20LedgerEntryInspector19get_entries_by_type0Bb_
FN:115,_RNCNvMs0_NtNtCsjDzxbYtLkYp_16soroban_debugger9inspector6ledgerNtB7_20LedgerEntryInspector23get_near_expiry_entries0Bb_
FN:268,_RNCNvMs0_NtNtCsjDzxbYtLkYp_16soroban_debugger9inspector6ledgerNtB7_20LedgerEntryInspector7to_json0Bb_
FN:314,_RNCNvMs0_NtNtCsjDzxbYtLkYp_16soroban_debugger9inspector6ledgerNtB7_20LedgerEntryInspector7to_jsons0_0Bb_
FN:294,_RNCNvMs0_NtNtCsjDzxbYtLkYp_16soroban_debugger9inspector6ledgerNtB7_20LedgerEntryInspector7to_jsons_0Bb_
FN:99,_RNvMs0_NtNtCsjDzxbYtLkYp_16soroban_debugger9inspector6ledgerNtB5_20LedgerEntryInspector11get_entries
FN:220,_RNvMs0_NtNtCsjDzxbYtLkYp_16soroban_debugger9inspector6ledgerNtB5_20LedgerEntryInspector16display_warnings
FN:104,_RNvMs0_NtNtCsjDzxbYtLkYp_16soroban_debugger9inspector6ledgerNtB5_20LedgerEntryInspector19get_entries_by_type
FN:74,_RNvMs0_NtNtCsjDzxbYtLkYp_16soroban_debugger9inspector6ledgerNtB5_20LedgerEntryInspector21ttl_warning_threshold
FN:112,_RNvMs0_NtNtCsjDzxbYtLkYp_16soroban_debugger9inspector6ledgerNtB5_20LedgerEntryInspector23get_near_expiry_entries
FN:69,_RNvMs0_NtNtCsjDzxbYtLkYp_16soroban_debugger9inspector6ledgerNtB5_20LedgerEntryInspector25set_ttl_warning_threshold
FN:61,_RNvMs0_NtNtCsjDzxbYtLkYp_16soroban_debugger9inspector6ledgerNtB5_20LedgerEntryInspector3new
FN:125,_RNvMs0_NtNtCsjDzxbYtLkYp_16soroban_debugger9inspector6ledgerNtB5_20LedgerEntryInspector7display
FN:264,_RNvMs0_NtNtCsjDzxbYtLkYp_16soroban_debugger9inspector6ledgerNtB5_20LedgerEntryInspector7to_json
FN:120,_RNvMs0_NtNtCsjDzxbYtLkYp_16soroban_debugger9inspector6ledgerNtB5_20LedgerEntryInspector8is_empty
FN:45,_RNvMs_NtNtCsjDzxbYtLkYp_16soroban_debugger9inspector6ledgerNtB4_15LedgerEntryInfo14is_near_expiry
FN:17,_RNvXNtNtCsjDzxbYtLkYp_16soroban_debugger9inspector6ledgerNtB2_11StorageTypeNtNtCslH02haMvknO_4core3fmt7Display3fmt
FN:324,_RNvXs1_NtNtCsjDzxbYtLkYp_16soroban_debugger9inspector6ledgerNtB5_20LedgerEntryInspectorNtNtCslH02haMvknO_4core7default7Default7default
FN:390,_RNCNvNtNtNtCs2jO2QXn3WZ6_16soroban_debugger9inspector6ledger5testss_24test_get_entries_by_type0B9_
FN:99,_RNvMs0_NtNtCs2jO2QXn3WZ6_16soroban_debugger9inspector6ledgerNtB5_20LedgerEntryInspector11get_entries
FN:220,_RNvMs0_NtNtCs2jO2QXn3WZ6_16soroban_debugger9inspector6ledgerNtB5_20LedgerEntryInspector16display_warnings
FN:104,_RNvMs0_NtNtCs2jO2QXn3WZ6_16soroban_debugger9inspector6ledgerNtB5_20LedgerEntryInspector19get_entries_by_type
FN:74,_RNvMs0_NtNtCs2jO2QXn3WZ6_16soroban_debugger9inspector6ledgerNtB5_20LedgerEntryInspector21ttl_warning_threshold
FN:112,_RNvMs0_NtNtCs2jO2QXn3WZ6_16soroban_debugger9inspector6ledgerNtB5_20LedgerEntryInspector23get_near_expiry_entries
FN:69,_RNvMs0_NtNtCs2jO2QXn3WZ6_16soroban_debugger9inspector6ledgerNtB5_20LedgerEntryInspector25set_ttl_warning_threshold
FN:61,_RNvMs0_NtNtCs2jO2QXn3WZ6_16soroban_debugger9inspector6ledgerNtB5_20LedgerEntryInspector3new
FN:125,_RNvMs0_NtNtCs2jO2QXn3WZ6_16soroban_debugger9inspector6ledgerNtB5_20LedgerEntryInspector7display
FN:264,_RNvMs0_NtNtCs2jO2QXn3WZ6_16soroban_debugger9inspector6ledgerNtB5_20LedgerEntryInspector7to_json
FN:120,_RNvMs0_NtNtCs2jO2QXn3WZ6_16soroban_debugger9inspector6ledgerNtB5_20LedgerEntryInspector8is_empty
FN:45,_RNvMs_NtNtCs2jO2QXn3WZ6_16soroban_debugger9inspector6ledgerNtB4_15LedgerEntryInfo14is_near_expiry
FN:17,_RNvXNtNtCs2jO2QXn3WZ6_16soroban_debugger9inspector6ledgerNtB2_11StorageTypeNtNtCslH02haMvknO_4core3fmt7Display3fmt
FN:324,_RNvXs1_NtNtCs2jO2QXn3WZ6_16soroban_debugger9inspector6ledgerNtB5_20LedgerEntryInspectorNtNtCslH02haMvknO_4core7default7Default7default
FN:79,_RINvMs0_NtNtCs2jO2QXn3WZ6_16soroban_debugger9inspector6ledgerNtB6_20LedgerEntryInspector9add_entryReB1y_EBa_
FN:107,_RNCNvMs0_NtNtCs2jO2QXn3WZ6_16soroban_debugger9inspector6ledgerNtB7_20LedgerEntryInspector19get_entries_by_type0Bb_
FN:115,_RNCNvMs0_NtNtCs2jO2QXn3WZ6_16soroban_debugger9inspector6ledgerNtB7_20LedgerEntryInspector23get_near_expiry_entries0Bb_
FN:268,_RNCNvMs0_NtNtCs2jO2QXn3WZ6_16soroban_debugger9inspector6ledgerNtB7_20LedgerEntryInspector7to_json0Bb_
FN:314,_RNCNvMs0_NtNtCs2jO2QXn3WZ6_16soroban_debugger9inspector6ledgerNtB7_20LedgerEntryInspector7to_jsons0_0Bb_
FN:294,_RNCNvMs0_NtNtCs2jO2QXn3WZ6_16soroban_debugger9inspector6ledgerNtB7_20LedgerEntryInspector7to_jsons_0Bb_
FN:333,_RNvNtNtNtCs2jO2QXn3WZ6_16soroban_debugger9inspector6ledger5tests16sample_inspector
FN:467,_RNvNtNtNtCs2jO2QXn3WZ6_16soroban_debugger9inspector6ledger5testss_12test_to_json
FN:504,_RNvNtNtNtCs2jO2QXn3WZ6_16soroban_debugger9inspector6ledger5testss_17test_default_impl
FN:495,_RNvNtNtNtCs2jO2QXn3WZ6_16soroban_debugger9inspector6ledger5testss_18test_to_json_empty
FN:376,_RNvNtNtNtCs2jO2QXn3WZ6_16soroban_debugger9inspector6ledger5testss_24test_add_and_get_entries
FN:383,_RNvNtNtNtCs2jO2QXn3WZ6_16soroban_debugger9inspector6ledger5testss_24test_get_entries_by_type
FN:459,_RNvNtNtNtCs2jO2QXn3WZ6_16soroban_debugger9inspector6ledger5testss_25test_display_with_entries
FN:428,_RNvNtNtNtCs2jO2QXn3WZ6_16soroban_debugger9inspector6ledger5testss_25test_entry_is_near_expiry
FN:444,_RNvNtNtNtCs2jO2QXn3WZ6_16soroban_debugger9inspector6ledger5testss_25test_storage_type_display
FN:365,_RNvNtNtNtCs2jO2QXn3WZ6_16soroban_debugger9inspector6ledger5testss_27test_new_inspector_is_empty
FN:451,_RNvNtNtNtCs2jO2QXn3WZ6_16soroban_debugger9inspector6ledger5testss_28test_display_empty_inspector
FN:420,_RNvNtNtNtCs2jO2QXn3WZ6_16soroban_debugger9inspector6ledger5testss_31test_near_expiry_zero_threshold
FN:410,_RNvNtNtNtCs2jO2QXn3WZ6_16soroban_debugger9inspector6ledger5testss_33test_near_expiry_custom_threshold
FN:401,_RNvNtNtNtCs2jO2QXn3WZ6_16soroban_debugger9inspector6ledger5testss_34test_near_expiry_default_threshold
FNDA:0,_RINvMs0_NtNtCsjDzxbYtLkYp_16soroban_debugger9inspector6ledgerNtB6_20LedgerEntryInspector9add_entryNtNtCshQKOepsJxml_5alloc6string6StringB1y_EBa_
FNDA:0,_RNCNvMs0_NtNtCsjDzxbYtLkYp_16soroban_debugger9inspector6ledgerNtB7_20LedgerEntryInspector19get_entries_by_type0Bb_
FNDA:0,_RNCNvMs0_NtNtCsjDzxbYtLkYp_16soroban_debugger9inspector6ledgerNtB7_20LedgerEntryInspector23get_near_expiry_entries0Bb_
FNDA:0,_RNCNvMs0_NtNtCsjDzxbYtLkYp_16soroban_debugger9inspector6ledgerNtB7_20LedgerEntryInspector7to_json0Bb_
FNDA:0,_RNCNvMs0_NtNtCsjDzxbYtLkYp_16soroban_debugger9inspector6ledgerNtB7_20LedgerEntryInspector7to_jsons0_0Bb_
FNDA:0,_RNCNvMs0_NtNtCsjDzxbYtLkYp_16soroban_debugger9inspector6ledgerNtB7_20LedgerEntryInspector7to_jsons_0Bb_
FNDA:0,_RNvMs0_NtNtCsjDzxbYtLkYp_16soroban_debugger9inspector6ledgerNtB5_20LedgerEntryInspector11get_entries
FNDA:0,_RNvMs0_NtNtCsjDzxbYtLkYp_16soroban_debugger9inspector6ledgerNtB5_20LedgerEntryInspector16display_warnings
FNDA:0,_RNvMs0_NtNtCsjDzxbYtLkYp_16soroban_debugger9inspector6ledgerNtB5_20LedgerEntryInspector19get_entries_by_type
FNDA:0,_RNvMs0_NtNtCsjDzxbYtLkYp_16soroban_debugger9inspector6ledgerNtB5_20LedgerEntryInspector21ttl_warning_threshold
FNDA:0,_RNvMs0_NtNtCsjDzxbYtLkYp_16soroban_debugger9inspector6ledgerNtB5_20LedgerEntryInspector23get_near_expiry_entries
FNDA:0,_RNvMs0_NtNtCsjDzxbYtLkYp_16soroban_debugger9inspector6ledgerNtB5_20LedgerEntryInspector25set_ttl_warning_threshold
FNDA:0,_RNvMs0_NtNtCsjDzxbYtLkYp_16soroban_debugger9inspector6ledgerNtB5_20LedgerEntryInspector3new
FNDA:0,_RNvMs0_NtNtCsjDzxbYtLkYp_16soroban_debugger9inspector6ledgerNtB5_20LedgerEntryInspector7display
FNDA:0,_RNvMs0_NtNtCsjDzxbYtLkYp_16soroban_debugger9inspector6ledgerNtB5_20LedgerEntryInspector7to_json
FNDA:0,_RNvMs0_NtNtCsjDzxbYtLkYp_16soroban_debugger9inspector6ledgerNtB5_20LedgerEntryInspector8is_empty
FNDA:0,_RNvMs_NtNtCsjDzxbYtLkYp_16soroban_debugger9inspector6ledgerNtB4_15LedgerEntryInfo14is_near_expiry
FNDA:0,_RNvXNtNtCsjDzxbYtLkYp_16soroban_debugger9inspector6ledgerNtB2_11StorageTypeNtNtCslH02haMvknO_4core3fmt7Display3fmt
FNDA:0,_RNvXs1_NtNtCsjDzxbYtLkYp_16soroban_debugger9inspector6ledgerNtB5_20LedgerEntryInspectorNtNtCslH02haMvknO_4core7default7Default7default
FNDA:2,_RNCNvNtNtNtCs2jO2QXn3WZ6_16soroban_debugger9inspector6ledger5testss_24test_get_entries_by_type0B9_
FNDA:2,_RNvMs0_NtNtCs2jO2QXn3WZ6_16soroban_debugger9inspector6ledgerNtB5_20LedgerEntryInspector11get_entries
FNDA:2,_RNvMs0_NtNtCs2jO2QXn3WZ6_16soroban_debugger9inspector6ledgerNtB5_20LedgerEntryInspector16display_warnings
FNDA:6,_RNvMs0_NtNtCs2jO2QXn3WZ6_16soroban_debugger9inspector6ledgerNtB5_20LedgerEntryInspector19get_entries_by_type
FNDA:2,_RNvMs0_NtNtCs2jO2QXn3WZ6_16soroban_debugger9inspector6ledgerNtB5_20LedgerEntryInspector21ttl_warning_threshold
FNDA:7,_RNvMs0_NtNtCs2jO2QXn3WZ6_16soroban_debugger9inspector6ledgerNtB5_20LedgerEntryInspector23get_near_expiry_entries
FNDA:2,_RNvMs0_NtNtCs2jO2QXn3WZ6_16soroban_debugger9inspector6ledgerNtB5_20LedgerEntryInspector25set_ttl_warning_threshold
FNDA:11,_RNvMs0_NtNtCs2jO2QXn3WZ6_16soroban_debugger9inspector6ledgerNtB5_20LedgerEntryInspector3new
FNDA:2,_RNvMs0_NtNtCs2jO2QXn3WZ6_16soroban_debugger9inspector6ledgerNtB5_20LedgerEntryInspector7display
FNDA:2,_RNvMs0_NtNtCs2jO2QXn3WZ6_16soroban_debugger9inspector6ledgerNtB5_20LedgerEntryInspector7to_json
FNDA:3,_RNvMs0_NtNtCs2jO2QXn3WZ6_16soroban_debugger9inspector6ledgerNtB5_20LedgerEntryInspector8is_empty
FNDA:38,_RNvMs_NtNtCs2jO2QXn3WZ6_16soroban_debugger9inspector6ledgerNtB4_15LedgerEntryInfo14is_near_expiry
FNDA:19,_RNvXNtNtCs2jO2QXn3WZ6_16soroban_debugger9inspector6ledgerNtB2_11StorageTypeNtNtCslH02haMvknO_4core3fmt7Display3fmt
FNDA:1,_RNvXs1_NtNtCs2jO2QXn3WZ6_16soroban_debugger9inspector6ledgerNtB5_20LedgerEntryInspectorNtNtCslH02haMvknO_4core7default7Default7default
FNDA:35,_RINvMs0_NtNtCs2jO2QXn3WZ6_16soroban_debugger9inspector6ledgerNtB6_20LedgerEntryInspector9add_entryReB1y_EBa_
FNDA:30,_RNCNvMs0_NtNtCs2jO2QXn3WZ6_16soroban_debugger9inspector6ledgerNtB7_20LedgerEntryInspector19get_entries_by_type0Bb_
FNDA:25,_RNCNvMs0_NtNtCs2jO2QXn3WZ6_16soroban_debugger9inspector6ledgerNtB7_20LedgerEntryInspector23get_near_expiry_entries0Bb_
FNDA:5,_RNCNvMs0_NtNtCs2jO2QXn3WZ6_16soroban_debugger9inspector6ledgerNtB7_20LedgerEntryInspector7to_json0Bb_
FNDA:3,_RNCNvMs0_NtNtCs2jO2QXn3WZ6_16soroban_debugger9inspector6ledgerNtB7_20LedgerEntryInspector7to_jsons0_0Bb_
FNDA:5,_RNCNvMs0_NtNtCs2jO2QXn3WZ6_16soroban_debugger9inspector6ledgerNtB7_20LedgerEntryInspector7to_jsons_0Bb_
FNDA:7,_RNvNtNtNtCs2jO2QXn3WZ6_16soroban_debugger9inspector6ledger5tests16sample_inspector
FNDA:1,_RNvNtNtNtCs2jO2QXn3WZ6_16soroban_debugger9inspector6ledger5testss_12test_to_json
FNDA:1,_RNvNtNtNtCs2jO2QXn3WZ6_16soroban_debugger9inspector6ledger5testss_17test_default_impl
FNDA:1,_RNvNtNtNtCs2jO2QXn3WZ6_16soroban_debugger9inspector6ledger5testss_18test_to_json_empty
FNDA:1,_RNvNtNtNtCs2jO2QXn3WZ6_16soroban_debugger9inspector6ledger5testss_24test_add_and_get_entries
FNDA:1,_RNvNtNtNtCs2jO2QXn3WZ6_16soroban_debugger9inspector6ledger5testss_24test_get_entries_by_type
FNDA:1,_RNvNtNtNtCs2jO2QXn3WZ6_16soroban_debugger9inspector6ledger5testss_25test_display_with_entries
FNDA:1,_RNvNtNtNtCs2jO2QXn3WZ6_16soroban_debugger9inspector6ledger5testss_25test_entry_is_near_expiry
FNDA:1,_RNvNtNtNtCs2jO2QXn3WZ6_16soroban_debugger9inspector6ledger5testss_25test_storage_type_display
FNDA:1,_RNvNtNtNtCs2jO2QXn3WZ6_16soroban_debugger9inspector6ledger5testss_27test_new_inspector_is_empty
FNDA:1,_RNvNtNtNtCs2jO2QXn3WZ6_16soroban_debugger9inspector6ledger5testss_28test_display_empty_inspector
FNDA:1,_RNvNtNtNtCs2jO2QXn3WZ6_16soroban_debugger9inspector6ledger5testss_31test_near_expiry_zero_threshold
FNDA:1,_RNvNtNtNtCs2jO2QXn3WZ6_16soroban_debugger9inspector6ledger5testss_33test_near_expiry_custom_threshold
FNDA:1,_RNvNtNtNtCs2jO2QXn3WZ6_16soroban_debugger9inspector6ledger5testss_34test_near_expiry_default_threshold
FNF:34
FNH:34
DA:17,19
DA:18,19
DA:19,4
DA:20,7
DA:21,8
DA:23,19
DA:45,38
DA:46,38
DA:47,38
DA:61,11
DA:62,11
DA:63,11
DA:64,11
DA:65,11
DA:66,11
DA:69,2
DA:70,2
DA:71,2
DA:74,2
DA:75,2
DA:76,2
DA:79,35
DA:80,35
DA:81,35
DA:82,35
DA:83,35
DA:84,35
DA:85,35
DA:86,35
DA:87,35
DA:88,35
DA:89,35
DA:90,35
DA:91,35
DA:92,35
DA:93,35
DA:94,35
DA:95,35
DA:96,35
DA:99,2
DA:100,2
DA:101,2
DA:104,6
DA:105,6
DA:106,6
DA:107,30
DA:108,6
DA:109,6
DA:112,7
DA:113,7
DA:114,7
DA:115,25
DA:116,7
DA:117,7
DA:120,3
DA:121,3
DA:122,3
DA:125,2
DA:126,2
DA:127,1
DA:129,1
DA:131,1
DA:132,1
DA:134,1
DA:135,1
DA:137,1
DA:139,1
DA:143,3
DA:144,1
DA:145,1
DA:146,1
DA:147,1
DA:148,3
DA:149,3
DA:150,0
DA:151,3
DA:153,3
DA:154,1
DA:155,1
DA:156,1
DA:159,3
DA:160,3
DA:162,3
DA:163,3
DA:165,3
DA:169,3
DA:170,3
DA:171,3
DA:173,3
DA:174,3
DA:175,3
DA:178,5
DA:179,5
DA:180,1
DA:181,3
DA:182,1
DA:183,0
DA:186,5
DA:187,0
DA:189,5
DA:192,5
DA:193,0
DA:195,5
DA:198,5
DA:199,3
DA:201,2
DA:204,5
DA:205,5
DA:207,5
DA:208,5
DA:209,5
DA:210,5
DA:212,5
DA:215,3
DA:217,2
DA:220,2
DA:221,2
DA:222,2
DA:223,1
DA:224,1
DA:226,1
DA:227,1
DA:229,1
DA:231,1
DA:234,1
DA:235,1
DA:237,1
DA:240,3
DA:241,3
DA:242,0
DA:243,3
DA:244,2
DA:246,1
DA:249,3
DA:250,3
DA:254,3
DA:255,3
DA:257,3
DA:260,1
DA:261,2
DA:264,2
DA:265,2
DA:266,2
DA:267,2
DA:268,5
DA:269,5
DA:270,5
DA:271,5
DA:272,5
DA:273,5
DA:275,2
DA:276,2
DA:277,2
DA:278,2
DA:280,2
DA:281,2
DA:282,2
DA:285,2
DA:286,2
DA:287,2
DA:288,2
DA:291,2
DA:292,2
DA:293,2
DA:294,5
DA:295,5
DA:296,5
DA:297,5
DA:298,5
DA:299,5
DA:300,5
DA:301,5
DA:302,5
DA:304,5
DA:305,2
DA:307,2
DA:308,2
DA:309,2
DA:312,2
DA:313,2
DA:314,3
DA:315,2
DA:317,2
DA:319,2
DA:320,2
DA:324,1
DA:325,1
DA:326,1
DA:333,7
DA:334,7
DA:335,7
DA:338,7
DA:343,7
DA:346,7
DA:351,7
DA:352,7
DA:355,7
DA:360,7
DA:361,7
DA:362,7
DA:365,1
DA:366,1
DA:367,1
DA:368,1
DA:369,1
DA:370,1
DA:373,1
DA:376,1
DA:377,1
DA:378,1
DA:379,1
DA:380,1
DA:383,1
DA:384,1
DA:386,1
DA:387,1
DA:388,1
DA:389,1
DA:390,2
DA:392,1
DA:393,1
DA:394,1
DA:396,1
DA:397,1
DA:398,1
DA:401,1
DA:402,1
DA:404,1
DA:406,1
DA:407,1
DA:410,1
DA:411,1
DA:412,1
DA:413,1
DA:415,1
DA:416,1
DA:417,1
DA:420,1
DA:421,1
DA:422,1
DA:423,1
DA:424,1
DA:425,1
DA:428,1
DA:429,1
DA:430,1
DA:431,1
DA:432,1
DA:433,1
DA:434,1
DA:435,1
DA:436,1
DA:438,1
DA:439,1
DA:440,1
DA:441,1
DA:444,1
DA:445,1
DA:446,1
DA:447,1
DA:448,1
DA:451,1
DA:452,1
DA:454,1
DA:455,1
DA:456,1
DA:459,1
DA:460,1
DA:462,1
DA:463,1
DA:464,1
DA:467,1
DA:468,1
DA:469,1
DA:471,1
DA:472,1
DA:473,1
DA:475,1
DA:476,1
DA:479,1
DA:480,1
DA:481,1
DA:482,1
DA:483,1
DA:484,1
DA:485,1
DA:488,1
DA:489,1
DA:490,1
DA:491,1
DA:492,1
DA:495,1
DA:496,1
DA:497,1
DA:498,1
DA:499,1
DA:500,1
DA:501,1
DA:504,1
DA:505,1
DA:506,1
DA:507,1
DA:508,1
DA:511,1
BRF:0
BRH:0
LF:310
LH:305
end_of_record
SF:/home/admin/Desktop/opensource/soroban-debugger/src/inspector/stack.rs
FN:32,_RNvMNtNtCsjDzxbYtLkYp_16soroban_debugger9inspector5stackNtB2_18CallStackInspector10push_frame
FN:18,_RNvMNtNtCsjDzxbYtLkYp_16soroban_debugger9inspector5stackNtB2_18CallStackInspector3new
FN:37,_RNvMNtNtCsjDzxbYtLkYp_16soroban_debugger9inspector5stackNtB2_18CallStackInspector3pop
FN:23,_RNvMNtNtCsjDzxbYtLkYp_16soroban_debugger9inspector5stackNtB2_18CallStackInspector4push
FN:89,_RNvMNtNtCsjDzxbYtLkYp_16soroban_debugger9inspector5stackNtB2_18CallStackInspector5clear
FN:47,_RNvMNtNtCsjDzxbYtLkYp_16soroban_debugger9inspector5stackNtB2_18CallStackInspector7display
FN:42,_RNvMNtNtCsjDzxbYtLkYp_16soroban_debugger9inspector5stackNtB2_18CallStackInspector9get_stack
FN:32,_RNvMNtNtCs2jO2QXn3WZ6_16soroban_debugger9inspector5stackNtB2_18CallStackInspector10push_frame
FN:18,_RNvMNtNtCs2jO2QXn3WZ6_16soroban_debugger9inspector5stackNtB2_18CallStackInspector3new
FN:37,_RNvMNtNtCs2jO2QXn3WZ6_16soroban_debugger9inspector5stackNtB2_18CallStackInspector3pop
FN:23,_RNvMNtNtCs2jO2QXn3WZ6_16soroban_debugger9inspector5stackNtB2_18CallStackInspector4push
FN:89,_RNvMNtNtCs2jO2QXn3WZ6_16soroban_debugger9inspector5stackNtB2_18CallStackInspector5clear
FN:47,_RNvMNtNtCs2jO2QXn3WZ6_16soroban_debugger9inspector5stackNtB2_18CallStackInspector7display
FN:42,_RNvMNtNtCs2jO2QXn3WZ6_16soroban_debugger9inspector5stackNtB2_18CallStackInspector9get_stack
FNDA:0,_RNvMNtNtCsjDzxbYtLkYp_16soroban_debugger9inspector5stackNtB2_18CallStackInspector10push_frame
FNDA:4,_RNvMNtNtCsjDzxbYtLkYp_16soroban_debugger9inspector5stackNtB2_18CallStackInspector3new
FNDA:0,_RNvMNtNtCsjDzxbYtLkYp_16soroban_debugger9inspector5stackNtB2_18CallStackInspector3pop
FNDA:0,_RNvMNtNtCsjDzxbYtLkYp_16soroban_debugger9inspector5stackNtB2_18CallStackInspector4push
FNDA:0,_RNvMNtNtCsjDzxbYtLkYp_16soroban_debugger9inspector5stackNtB2_18CallStackInspector5clear
FNDA:0,_RNvMNtNtCsjDzxbYtLkYp_16soroban_debugger9inspector5stackNtB2_18CallStackInspector7display
FNDA:0,_RNvMNtNtCsjDzxbYtLkYp_16soroban_debugger9inspector5stackNtB2_18CallStackInspector9get_stack
FNDA:0,_RNvMNtNtCs2jO2QXn3WZ6_16soroban_debugger9inspector5stackNtB2_18CallStackInspector10push_frame
FNDA:0,_RNvMNtNtCs2jO2QXn3WZ6_16soroban_debugger9inspector5stackNtB2_18CallStackInspector3new
FNDA:0,_RNvMNtNtCs2jO2QXn3WZ6_16soroban_debugger9inspector5stackNtB2_18CallStackInspector3pop
FNDA:0,_RNvMNtNtCs2jO2QXn3WZ6_16soroban_debugger9inspector5stackNtB2_18CallStackInspector4push
FNDA:0,_RNvMNtNtCs2jO2QXn3WZ6_16soroban_debugger9inspector5stackNtB2_18CallStackInspector5clear
FNDA:0,_RNvMNtNtCs2jO2QXn3WZ6_16soroban_debugger9inspector5stackNtB2_18CallStackInspector7display
FNDA:0,_RNvMNtNtCs2jO2QXn3WZ6_16soroban_debugger9inspector5stackNtB2_18CallStackInspector9get_stack
FNF:7
FNH:1
DA:18,4
DA:19,4
DA:20,4
DA:23,0
DA:24,0
DA:25,0
DA:26,0
DA:27,0
DA:28,0
DA:29,0
DA:32,0
DA:33,0
DA:34,0
DA:37,0
DA:38,0
DA:39,0
DA:42,0
DA:43,0
DA:44,0
DA:47,0
DA:48,0
DA:49,0
DA:50,0
DA:51,0
DA:53,0
DA:54,0
DA:55,0
DA:56,0
DA:57,0
DA:59,0
DA:62,0
DA:63,0
DA:65,0
DA:68,0
DA:69,0
DA:70,0
DA:71,0
DA:72,0
DA:73,0
DA:74,0
DA:75,0
DA:76,0
DA:77,0
DA:78,0
DA:79,0
DA:80,0
DA:81,0
DA:82,0
DA:83,0
DA:84,0
DA:86,0
DA:89,0
DA:90,0
DA:91,0
BRF:0
BRH:0
LF:54
LH:3
end_of_record
SF:/home/admin/Desktop/opensource/soroban-debugger/src/inspector/storage.rs
FN:220,_RINvMs1_NtNtCsjDzxbYtLkYp_16soroban_debugger9inspector7storageNtB6_16StorageInspector3setppEBa_
FN:31,_RINvMNtNtCsjDzxbYtLkYp_16soroban_debugger9inspector7storageNtB3_12StorageState14export_to_fileRNtNtCs7dz5ZklJ0d7_3std4path7PathBufEB7_
FN:52,_RINvMNtNtCsjDzxbYtLkYp_16soroban_debugger9inspector7storageNtB3_12StorageState16import_from_fileRNtNtCs7dz5ZklJ0d7_3std4path7PathBufEB7_
FN:38,_RNCINvMNtNtCsjDzxbYtLkYp_16soroban_debugger9inspector7storageNtB5_12StorageState14export_to_fileRNtNtCs7dz5ZklJ0d7_3std4path7PathBufE0B9_
FN:41,_RNCINvMNtNtCsjDzxbYtLkYp_16soroban_debugger9inspector7storageNtB5_12StorageState14export_to_fileRNtNtCs7dz5ZklJ0d7_3std4path7PathBufEs_0B9_
FN:53,_RNCINvMNtNtCsjDzxbYtLkYp_16soroban_debugger9inspector7storageNtB5_12StorageState16import_from_fileRNtNtCs7dz5ZklJ0d7_3std4path7PathBufE0B9_
FN:60,_RNCINvMNtNtCsjDzxbYtLkYp_16soroban_debugger9inspector7storageNtB5_12StorageState16import_from_fileRNtNtCs7dz5ZklJ0d7_3std4path7PathBufEs_0B9_
FN:305,_RNCNCNvMs1_NtNtCsjDzxbYtLkYp_16soroban_debugger9inspector7storageNtB9_16StorageInspector21display_access_report00Bd_
FN:306,_RNCNCNvMs1_NtNtCsjDzxbYtLkYp_16soroban_debugger9inspector7storageNtB9_16StorageInspector21display_access_report0s_0Bd_
FN:105,_RNCNvMs0_NtNtCsjDzxbYtLkYp_16soroban_debugger9inspector7storageNtB7_13StorageFilter3new0Bb_
FN:115,_RNCNvMs0_NtNtCsjDzxbYtLkYp_16soroban_debugger9inspector7storageNtB7_13StorageFilter7matches0Bb_
FN:127,_RNCNvMs0_NtNtCsjDzxbYtLkYp_16soroban_debugger9inspector7storageNtB7_13StorageFilter7summary0Bb_
FN:405,_RNCNvMs1_NtNtCsjDzxbYtLkYp_16soroban_debugger9inspector7storageNtB7_16StorageInspector12compute_diff0Bb_
FN:214,_RNCNvMs1_NtNtCsjDzxbYtLkYp_16soroban_debugger9inspector7storageNtB7_16StorageInspector12get_filtered0Bb_
FN:215,_RNCNvMs1_NtNtCsjDzxbYtLkYp_16soroban_debugger9inspector7storageNtB7_16StorageInspector12get_filtereds_0Bb_
FN:356,_RNCNvMs1_NtNtCsjDzxbYtLkYp_16soroban_debugger9inspector7storageNtB7_16StorageInspector16capture_snapshot0Bb_
FN:302,_RNCNvMs1_NtNtCsjDzxbYtLkYp_16soroban_debugger9inspector7storageNtB7_16StorageInspector21display_access_report0Bb_
FN:76,_RNCNvMs_NtNtCsjDzxbYtLkYp_16soroban_debugger9inspector7storageNtB6_13FilterPattern5parse0Ba_
FN:103,_RNvMs0_NtNtCsjDzxbYtLkYp_16soroban_debugger9inspector7storageNtB5_13StorageFilter3new
FN:111,_RNvMs0_NtNtCsjDzxbYtLkYp_16soroban_debugger9inspector7storageNtB5_13StorageFilter7matches
FN:124,_RNvMs0_NtNtCsjDzxbYtLkYp_16soroban_debugger9inspector7storageNtB5_13StorageFilter7summary
FN:119,_RNvMs0_NtNtCsjDzxbYtLkYp_16soroban_debugger9inspector7storageNtB5_13StorageFilter8is_empty
FN:228,_RNvMs1_NtNtCsjDzxbYtLkYp_16soroban_debugger9inspector7storageNtB5_16StorageInspector10track_read
FN:233,_RNvMs1_NtNtCsjDzxbYtLkYp_16soroban_debugger9inspector7storageNtB5_16StorageInspector11track_write
FN:395,_RNvMs1_NtNtCsjDzxbYtLkYp_16soroban_debugger9inspector7storageNtB5_16StorageInspector12compute_diff
FN:447,_RNvMs1_NtNtCsjDzxbYtLkYp_16soroban_debugger9inspector7storageNtB5_16StorageInspector12display_diff
FN:211,_RNvMs1_NtNtCsjDzxbYtLkYp_16soroban_debugger9inspector7storageNtB5_16StorageInspector12get_filtered
FN:355,_RNvMs1_NtNtCsjDzxbYtLkYp_16soroban_debugger9inspector7storageNtB5_16StorageInspector16capture_snapshot
FN:181,_RNvMs1_NtNtCsjDzxbYtLkYp_16soroban_debugger9inspector7storageNtB5_16StorageInspector16display_filtered
FN:274,_RNvMs1_NtNtCsjDzxbYtLkYp_16soroban_debugger9inspector7storageNtB5_16StorageInspector21display_access_report
FN:238,_RNvMs1_NtNtCsjDzxbYtLkYp_16soroban_debugger9inspector7storageNtB5_16StorageInspector23analyze_access_patterns
FN:162,_RNvMs1_NtNtCsjDzxbYtLkYp_16soroban_debugger9inspector7storageNtB5_16StorageInspector3get
FN:148,_RNvMs1_NtNtCsjDzxbYtLkYp_16soroban_debugger9inspector7storageNtB5_16StorageInspector3new
FN:167,_RNvMs1_NtNtCsjDzxbYtLkYp_16soroban_debugger9inspector7storageNtB5_16StorageInspector7display
FN:157,_RNvMs1_NtNtCsjDzxbYtLkYp_16soroban_debugger9inspector7storageNtB5_16StorageInspector7get_all
FN:525,_RNvMs2_NtNtCsjDzxbYtLkYp_16soroban_debugger9inspector7storageNtB5_11StorageDiff8is_empty
FN:73,_RNvMs_NtNtCsjDzxbYtLkYp_16soroban_debugger9inspector7storageNtB4_13FilterPattern5parse
FN:86,_RNvMs_NtNtCsjDzxbYtLkYp_16soroban_debugger9inspector7storageNtB4_13FilterPattern7matches
FN:547,_RNvXs3_NtNtCsjDzxbYtLkYp_16soroban_debugger9inspector7storageNtB5_16StorageInspectorNtNtCslH02haMvknO_4core7default7Default7default
FN:220,_RINvMs1_NtNtCsjDzxbYtLkYp_16soroban_debugger9inspector7storageNtB6_16StorageInspector3setReB1p_ECsc3NXs0bB38h_11integration
FN:162,_RNvMs1_NtNtCs2jO2QXn3WZ6_16soroban_debugger9inspector7storageNtB5_16StorageInspector3get
FN:167,_RNvMs1_NtNtCs2jO2QXn3WZ6_16soroban_debugger9inspector7storageNtB5_16StorageInspector7display
FN:157,_RNvMs1_NtNtCs2jO2QXn3WZ6_16soroban_debugger9inspector7storageNtB5_16StorageInspector7get_all
FN:547,_RNvXs3_NtNtCs2jO2QXn3WZ6_16soroban_debugger9inspector7storageNtB5_16StorageInspectorNtNtCslH02haMvknO_4core7default7Default7default
FN:103,_RNvMs0_NtNtCs2jO2QXn3WZ6_16soroban_debugger9inspector7storageNtB5_13StorageFilter3new
FN:111,_RNvMs0_NtNtCs2jO2QXn3WZ6_16soroban_debugger9inspector7storageNtB5_13StorageFilter7matches
FN:124,_RNvMs0_NtNtCs2jO2QXn3WZ6_16soroban_debugger9inspector7storageNtB5_13StorageFilter7summary
FN:119,_RNvMs0_NtNtCs2jO2QXn3WZ6_16soroban_debugger9inspector7storageNtB5_13StorageFilter8is_empty
FN:228,_RNvMs1_NtNtCs2jO2QXn3WZ6_16soroban_debugger9inspector7storageNtB5_16StorageInspector10track_read
FN:233,_RNvMs1_NtNtCs2jO2QXn3WZ6_16soroban_debugger9inspector7storageNtB5_16StorageInspector11track_write
FN:395,_RNvMs1_NtNtCs2jO2QXn3WZ6_16soroban_debugger9inspector7storageNtB5_16StorageInspector12compute_diff
FN:447,_RNvMs1_NtNtCs2jO2QXn3WZ6_16soroban_debugger9inspector7storageNtB5_16StorageInspector12display_diff
FN:211,_RNvMs1_NtNtCs2jO2QXn3WZ6_16soroban_debugger9inspector7storageNtB5_16StorageInspector12get_filtered
FN:355,_RNvMs1_NtNtCs2jO2QXn3WZ6_16soroban_debugger9inspector7storageNtB5_16StorageInspector16capture_snapshot
FN:181,_RNvMs1_NtNtCs2jO2QXn3WZ6_16soroban_debugger9inspector7storageNtB5_16StorageInspector16display_filtered
FN:274,_RNvMs1_NtNtCs2jO2QXn3WZ6_16soroban_debugger9inspector7storageNtB5_16StorageInspector21display_access_report
FN:238,_RNvMs1_NtNtCs2jO2QXn3WZ6_16soroban_debugger9inspector7storageNtB5_16StorageInspector23analyze_access_patterns
FN:148,_RNvMs1_NtNtCs2jO2QXn3WZ6_16soroban_debugger9inspector7storageNtB5_16StorageInspector3new
FN:525,_RNvMs2_NtNtCs2jO2QXn3WZ6_16soroban_debugger9inspector7storageNtB5_11StorageDiff8is_empty
FN:73,_RNvMs_NtNtCs2jO2QXn3WZ6_16soroban_debugger9inspector7storageNtB4_13FilterPattern5parse
FN:86,_RNvMs_NtNtCs2jO2QXn3WZ6_16soroban_debugger9inspector7storageNtB4_13FilterPattern7matches
FN:666,_RNvNtNtNtCs2jO2QXn3WZ6_16soroban_debugger9inspector7storage5testss_17test_get_filtered
FN:642,_RNvNtNtNtCs2jO2QXn3WZ6_16soroban_debugger9inspector7storage5testss_19test_filter_summary
FN:695,_RNvNtNtNtCs2jO2QXn3WZ6_16soroban_debugger9inspector7storage5testss_23test_storage_diff_added
FN:578,_RNvNtNtNtCs2jO2QXn3WZ6_16soroban_debugger9inspector7storage5testss_24test_parse_exact_pattern
FN:587,_RNvNtNtNtCs2jO2QXn3WZ6_16soroban_debugger9inspector7storage5testss_24test_parse_invalid_regex
FN:568,_RNvNtNtNtCs2jO2QXn3WZ6_16soroban_debugger9inspector7storage5testss_24test_parse_regex_pattern
FN:611,_RNvNtNtNtCs2jO2QXn3WZ6_16soroban_debugger9inspector7storage5testss_24test_single_regex_filter
FN:559,_RNvNtNtNtCs2jO2QXn3WZ6_16soroban_debugger9inspector7storage5testss_25test_parse_prefix_pattern
FN:603,_RNvNtNtNtCs2jO2QXn3WZ6_16soroban_debugger9inspector7storage5testss_25test_single_prefix_filter
FN:723,_RNvNtNtNtCs2jO2QXn3WZ6_16soroban_debugger9inspector7storage5testss_25test_storage_diff_deleted
FN:777,_RNvNtNtNtCs2jO2QXn3WZ6_16soroban_debugger9inspector7storage5testss_25test_storage_export_empty
FN:805,_RNvNtNtNtCs2jO2QXn3WZ6_16soroban_debugger9inspector7storage5testss_25test_track_read_and_write
FN:856,_RNvNtNtNtCs2jO2QXn3WZ6_16soroban_debugger9inspector7storage5testss_26test_display_access_report
FN:683,_RNvNtNtNtCs2jO2QXn3WZ6_16soroban_debugger9inspector7storage5testss_26test_get_filtered_no_match
FN:707,_RNvNtNtNtCs2jO2QXn3WZ6_16soroban_debugger9inspector7storage5testss_26test_storage_diff_modified
FN:758,_RNvNtNtNtCs2jO2QXn3WZ6_16soroban_debugger9inspector7storage5testss_26test_storage_export_import
FN:628,_RNvNtNtNtCs2jO2QXn3WZ6_16soroban_debugger9inspector7storage5testss_27test_multiple_mixed_filters
FN:619,_RNvNtNtNtCs2jO2QXn3WZ6_16soroban_debugger9inspector7storage5testss_30test_multiple_filters_or_logic
FN:791,_RNvNtNtNtCs2jO2QXn3WZ6_16soroban_debugger9inspector7storage5testss_32test_storage_import_invalid_json
FN:735,_RNvNtNtNtCs2jO2QXn3WZ6_16soroban_debugger9inspector7storage5testss_34test_storage_diff_multiple_changes
FN:658,_RNvNtNtNtCs2jO2QXn3WZ6_16soroban_debugger9inspector7storage5testss_35test_display_filtered_empty_storage
FN:595,_RNvNtNtNtCs2jO2QXn3WZ6_16soroban_debugger9inspector7storage5testss_36test_empty_filter_matches_everything
FN:825,_RNvNtNtNtCs2jO2QXn3WZ6_16soroban_debugger9inspector7storage5testss_37test_analyze_hot_keys_and_suggestions
FN:885,_RNvNtNtNtCs2jO2QXn3WZ6_16soroban_debugger9inspector7storage5testss_37test_storage_diff_large_mixed_changes
FN:928,_RNvNtNtNtCs2jO2QXn3WZ6_16soroban_debugger9inspector7storage5testss_40test_storage_diff_binary_non_utf8_values
FN:873,_RNvNtNtNtCs2jO2QXn3WZ6_16soroban_debugger9inspector7storage5testss_42test_storage_diff_empty_before_empty_after
FN:31,_RINvMNtNtCs2jO2QXn3WZ6_16soroban_debugger9inspector7storageNtB3_12StorageState14export_to_fileRNtNtCs7dz5ZklJ0d7_3std4path4PathEB7_
FN:52,_RINvMNtNtCs2jO2QXn3WZ6_16soroban_debugger9inspector7storageNtB3_12StorageState16import_from_fileRNtNtCs7dz5ZklJ0d7_3std4path4PathEB7_
FN:220,_RINvMs1_NtNtCs2jO2QXn3WZ6_16soroban_debugger9inspector7storageNtB6_16StorageInspector3setReB1p_EBa_
FN:38,_RNCINvMNtNtCs2jO2QXn3WZ6_16soroban_debugger9inspector7storageNtB5_12StorageState14export_to_fileRNtNtCs7dz5ZklJ0d7_3std4path4PathE0B9_
FN:41,_RNCINvMNtNtCs2jO2QXn3WZ6_16soroban_debugger9inspector7storageNtB5_12StorageState14export_to_fileRNtNtCs7dz5ZklJ0d7_3std4path4PathEs_0B9_
FN:53,_RNCINvMNtNtCs2jO2QXn3WZ6_16soroban_debugger9inspector7storageNtB5_12StorageState16import_from_fileRNtNtCs7dz5ZklJ0d7_3std4path4PathE0B9_
FN:60,_RNCINvMNtNtCs2jO2QXn3WZ6_16soroban_debugger9inspector7storageNtB5_12StorageState16import_from_fileRNtNtCs7dz5ZklJ0d7_3std4path4PathEs_0B9_
FN:305,_RNCNCNvMs1_NtNtCs2jO2QXn3WZ6_16soroban_debugger9inspector7storageNtB9_16StorageInspector21display_access_report00Bd_
FN:306,_RNCNCNvMs1_NtNtCs2jO2QXn3WZ6_16soroban_debugger9inspector7storageNtB9_16StorageInspector21display_access_report0s_0Bd_
FN:105,_RNCNvMs0_NtNtCs2jO2QXn3WZ6_16soroban_debugger9inspector7storageNtB7_13StorageFilter3new0Bb_
FN:115,_RNCNvMs0_NtNtCs2jO2QXn3WZ6_16soroban_debugger9inspector7storageNtB7_13StorageFilter7matches0Bb_
FN:127,_RNCNvMs0_NtNtCs2jO2QXn3WZ6_16soroban_debugger9inspector7storageNtB7_13StorageFilter7summary0Bb_
FN:405,_RNCNvMs1_NtNtCs2jO2QXn3WZ6_16soroban_debugger9inspector7storageNtB7_16StorageInspector12compute_diff0Bb_
FN:214,_RNCNvMs1_NtNtCs2jO2QXn3WZ6_16soroban_debugger9inspector7storageNtB7_16StorageInspector12get_filtered0Bb_
FN:215,_RNCNvMs1_NtNtCs2jO2QXn3WZ6_16soroban_debugger9inspector7storageNtB7_16StorageInspector12get_filtereds_0Bb_
FN:356,_RNCNvMs1_NtNtCs2jO2QXn3WZ6_16soroban_debugger9inspector7storageNtB7_16StorageInspector16capture_snapshot0Bb_
FN:302,_RNCNvMs1_NtNtCs2jO2QXn3WZ6_16soroban_debugger9inspector7storageNtB7_16StorageInspector21display_access_report0Bb_
FN:76,_RNCNvMs_NtNtCs2jO2QXn3WZ6_16soroban_debugger9inspector7storageNtB6_13FilterPattern5parse0Ba_
FNDA:0,_RINvMs1_NtNtCsjDzxbYtLkYp_16soroban_debugger9inspector7storageNtB6_16StorageInspector3setppEBa_
FNDA:0,_RINvMNtNtCsjDzxbYtLkYp_16soroban_debugger9inspector7storageNtB3_12StorageState14export_to_fileRNtNtCs7dz5ZklJ0d7_3std4path7PathBufEB7_
FNDA:1,_RINvMNtNtCsjDzxbYtLkYp_16soroban_debugger9inspector7storageNtB3_12StorageState16import_from_fileRNtNtCs7dz5ZklJ0d7_3std4path7PathBufEB7_
FNDA:0,_RNCINvMNtNtCsjDzxbYtLkYp_16soroban_debugger9inspector7storageNtB5_12StorageState14export_to_fileRNtNtCs7dz5ZklJ0d7_3std4path7PathBufE0B9_
FNDA:0,_RNCINvMNtNtCsjDzxbYtLkYp_16soroban_debugger9inspector7storageNtB5_12StorageState14export_to_fileRNtNtCs7dz5ZklJ0d7_3std4path7PathBufEs_0B9_
FNDA:1,_RNCINvMNtNtCsjDzxbYtLkYp_16soroban_debugger9inspector7storageNtB5_12StorageState16import_from_fileRNtNtCs7dz5ZklJ0d7_3std4path7PathBufE0B9_
FNDA:0,_RNCINvMNtNtCsjDzxbYtLkYp_16soroban_debugger9inspector7storageNtB5_12StorageState16import_from_fileRNtNtCs7dz5ZklJ0d7_3std4path7PathBufEs_0B9_
FNDA:0,_RNCNCNvMs1_NtNtCsjDzxbYtLkYp_16soroban_debugger9inspector7storageNtB9_16StorageInspector21display_access_report00Bd_
FNDA:0,_RNCNCNvMs1_NtNtCsjDzxbYtLkYp_16soroban_debugger9inspector7storageNtB9_16StorageInspector21display_access_report0s_0Bd_
FNDA:11,_RNCNvMs0_NtNtCsjDzxbYtLkYp_16soroban_debugger9inspector7storageNtB7_13StorageFilter3new0Bb_
FNDA:31,_RNCNvMs0_NtNtCsjDzxbYtLkYp_16soroban_debugger9inspector7storageNtB7_13StorageFilter7matches0Bb_
FNDA:0,_RNCNvMs0_NtNtCsjDzxbYtLkYp_16soroban_debugger9inspector7storageNtB7_13StorageFilter7summary0Bb_
FNDA:0,_RNCNvMs1_NtNtCsjDzxbYtLkYp_16soroban_debugger9inspector7storageNtB7_16StorageInspector12compute_diff0Bb_
FNDA:22,_RNCNvMs1_NtNtCsjDzxbYtLkYp_16soroban_debugger9inspector7storageNtB7_16StorageInspector12get_filtered0Bb_
FNDA:14,_RNCNvMs1_NtNtCsjDzxbYtLkYp_16soroban_debugger9inspector7storageNtB7_16StorageInspector12get_filtereds_0Bb_
FNDA:0,_RNCNvMs1_NtNtCsjDzxbYtLkYp_16soroban_debugger9inspector7storageNtB7_16StorageInspector16capture_snapshot0Bb_
FNDA:0,_RNCNvMs1_NtNtCsjDzxbYtLkYp_16soroban_debugger9inspector7storageNtB7_16StorageInspector21display_access_report0Bb_
FNDA:1,_RNCNvMs_NtNtCsjDzxbYtLkYp_16soroban_debugger9inspector7storageNtB6_13FilterPattern5parse0Ba_
FNDA:9,_RNvMs0_NtNtCsjDzxbYtLkYp_16soroban_debugger9inspector7storageNtB5_13StorageFilter3new
FNDA:24,_RNvMs0_NtNtCsjDzxbYtLkYp_16soroban_debugger9inspector7storageNtB5_13StorageFilter7matches
FNDA:0,_RNvMs0_NtNtCsjDzxbYtLkYp_16soroban_debugger9inspector7storageNtB5_13StorageFilter7summary
FNDA:0,_RNvMs0_NtNtCsjDzxbYtLkYp_16soroban_debugger9inspector7storageNtB5_13StorageFilter8is_empty
FNDA:0,_RNvMs1_NtNtCsjDzxbYtLkYp_16soroban_debugger9inspector7storageNtB5_16StorageInspector10track_read
FNDA:24,_RNvMs1_NtNtCsjDzxbYtLkYp_16soroban_debugger9inspector7storageNtB5_16StorageInspector11track_write
FNDA:0,_RNvMs1_NtNtCsjDzxbYtLkYp_16soroban_debugger9inspector7storageNtB5_16StorageInspector12compute_diff
FNDA:0,_RNvMs1_NtNtCsjDzxbYtLkYp_16soroban_debugger9inspector7storageNtB5_16StorageInspector12display_diff
FNDA:7,_RNvMs1_NtNtCsjDzxbYtLkYp_16soroban_debugger9inspector7storageNtB5_16StorageInspector12get_filtered
FNDA:0,_RNvMs1_NtNtCsjDzxbYtLkYp_16soroban_debugger9inspector7storageNtB5_16StorageInspector16capture_snapshot
FNDA:1,_RNvMs1_NtNtCsjDzxbYtLkYp_16soroban_debugger9inspector7storageNtB5_16StorageInspector16display_filtered
FNDA:0,_RNvMs1_NtNtCsjDzxbYtLkYp_16soroban_debugger9inspector7storageNtB5_16StorageInspector21display_access_report
FNDA:0,_RNvMs1_NtNtCsjDzxbYtLkYp_16soroban_debugger9inspector7storageNtB5_16StorageInspector23analyze_access_patterns
FNDA:0,_RNvMs1_NtNtCsjDzxbYtLkYp_16soroban_debugger9inspector7storageNtB5_16StorageInspector3get
FNDA:8,_RNvMs1_NtNtCsjDzxbYtLkYp_16soroban_debugger9inspector7storageNtB5_16StorageInspector3new
FNDA:0,_RNvMs1_NtNtCsjDzxbYtLkYp_16soroban_debugger9inspector7storageNtB5_16StorageInspector7display
FNDA:0,_RNvMs1_NtNtCsjDzxbYtLkYp_16soroban_debugger9inspector7storageNtB5_16StorageInspector7get_all
FNDA:0,_RNvMs2_NtNtCsjDzxbYtLkYp_16soroban_debugger9inspector7storageNtB5_11StorageDiff8is_empty
FNDA:11,_RNvMs_NtNtCsjDzxbYtLkYp_16soroban_debugger9inspector7storageNtB4_13FilterPattern5parse
FNDA:31,_RNvMs_NtNtCsjDzxbYtLkYp_16soroban_debugger9inspector7storageNtB4_13FilterPattern7matches
FNDA:0,_RNvXs3_NtNtCsjDzxbYtLkYp_16soroban_debugger9inspector7storageNtB5_16StorageInspectorNtNtCslH02haMvknO_4core7default7Default7default
FNDA:24,_RINvMs1_NtNtCsjDzxbYtLkYp_16soroban_debugger9inspector7storageNtB6_16StorageInspector3setReB1p_ECsc3NXs0bB38h_11integration
FNDA:0,_RNvMs1_NtNtCs2jO2QXn3WZ6_16soroban_debugger9inspector7storageNtB5_16StorageInspector3get
FNDA:0,_RNvMs1_NtNtCs2jO2QXn3WZ6_16soroban_debugger9inspector7storageNtB5_16StorageInspector7display
FNDA:0,_RNvMs1_NtNtCs2jO2QXn3WZ6_16soroban_debugger9inspector7storageNtB5_16StorageInspector7get_all
FNDA:0,_RNvXs3_NtNtCs2jO2QXn3WZ6_16soroban_debugger9inspector7storageNtB5_16StorageInspectorNtNtCslH02haMvknO_4core7default7Default7default
FNDA:16,_RNvMs0_NtNtCs2jO2QXn3WZ6_16soroban_debugger9inspector7storageNtB5_13StorageFilter3new
FNDA:21,_RNvMs0_NtNtCs2jO2QXn3WZ6_16soroban_debugger9inspector7storageNtB5_13StorageFilter7matches
FNDA:1,_RNvMs0_NtNtCs2jO2QXn3WZ6_16soroban_debugger9inspector7storageNtB5_13StorageFilter7summary
FNDA:1,_RNvMs0_NtNtCs2jO2QXn3WZ6_16soroban_debugger9inspector7storageNtB5_13StorageFilter8is_empty
FNDA:23,_RNvMs1_NtNtCs2jO2QXn3WZ6_16soroban_debugger9inspector7storageNtB5_16StorageInspector10track_read
FNDA:14,_RNvMs1_NtNtCs2jO2QXn3WZ6_16soroban_debugger9inspector7storageNtB5_16StorageInspector11track_write
FNDA:7,_RNvMs1_NtNtCs2jO2QXn3WZ6_16soroban_debugger9inspector7storageNtB5_16StorageInspector12compute_diff
FNDA:1,_RNvMs1_NtNtCs2jO2QXn3WZ6_16soroban_debugger9inspector7storageNtB5_16StorageInspector12display_diff
FNDA:2,_RNvMs1_NtNtCs2jO2QXn3WZ6_16soroban_debugger9inspector7storageNtB5_16StorageInspector12get_filtered
FNDA:0,_RNvMs1_NtNtCs2jO2QXn3WZ6_16soroban_debugger9inspector7storageNtB5_16StorageInspector16capture_snapshot
FNDA:1,_RNvMs1_NtNtCs2jO2QXn3WZ6_16soroban_debugger9inspector7storageNtB5_16StorageInspector16display_filtered
FNDA:1,_RNvMs1_NtNtCs2jO2QXn3WZ6_16soroban_debugger9inspector7storageNtB5_16StorageInspector21display_access_report
FNDA:4,_RNvMs1_NtNtCs2jO2QXn3WZ6_16soroban_debugger9inspector7storageNtB5_16StorageInspector23analyze_access_patterns
FNDA:6,_RNvMs1_NtNtCs2jO2QXn3WZ6_16soroban_debugger9inspector7storageNtB5_16StorageInspector3new
FNDA:2,_RNvMs2_NtNtCs2jO2QXn3WZ6_16soroban_debugger9inspector7storageNtB5_11StorageDiff8is_empty
FNDA:17,_RNvMs_NtNtCs2jO2QXn3WZ6_16soroban_debugger9inspector7storageNtB4_13FilterPattern5parse
FNDA:36,_RNvMs_NtNtCs2jO2QXn3WZ6_16soroban_debugger9inspector7storageNtB4_13FilterPattern7matches
FNDA:1,_RNvNtNtNtCs2jO2QXn3WZ6_16soroban_debugger9inspector7storage5testss_17test_get_filtered
FNDA:1,_RNvNtNtNtCs2jO2QXn3WZ6_16soroban_debugger9inspector7storage5testss_19test_filter_summary
FNDA:1,_RNvNtNtNtCs2jO2QXn3WZ6_16soroban_debugger9inspector7storage5testss_23test_storage_diff_added
FNDA:1,_RNvNtNtNtCs2jO2QXn3WZ6_16soroban_debugger9inspector7storage5testss_24test_parse_exact_pattern
FNDA:1,_RNvNtNtNtCs2jO2QXn3WZ6_16soroban_debugger9inspector7storage5testss_24test_parse_invalid_regex
FNDA:1,_RNvNtNtNtCs2jO2QXn3WZ6_16soroban_debugger9inspector7storage5testss_24test_parse_regex_pattern
FNDA:1,_RNvNtNtNtCs2jO2QXn3WZ6_16soroban_debugger9inspector7storage5testss_24test_single_regex_filter
FNDA:1,_RNvNtNtNtCs2jO2QXn3WZ6_16soroban_debugger9inspector7storage5testss_25test_parse_prefix_pattern
FNDA:1,_RNvNtNtNtCs2jO2QXn3WZ6_16soroban_debugger9inspector7storage5testss_25test_single_prefix_filter
FNDA:1,_RNvNtNtNtCs2jO2QXn3WZ6_16soroban_debugger9inspector7storage5testss_25test_storage_diff_deleted
FNDA:1,_RNvNtNtNtCs2jO2QXn3WZ6_16soroban_debugger9inspector7storage5testss_25test_storage_export_empty
FNDA:1,_RNvNtNtNtCs2jO2QXn3WZ6_16soroban_debugger9inspector7storage5testss_25test_track_read_and_write
FNDA:1,_RNvNtNtNtCs2jO2QXn3WZ6_16soroban_debugger9inspector7storage5testss_26test_display_access_report
FNDA:1,_RNvNtNtNtCs2jO2QXn3WZ6_16soroban_debugger9inspector7storage5testss_26test_get_filtered_no_match
FNDA:1,_RNvNtNtNtCs2jO2QXn3WZ6_16soroban_debugger9inspector7storage5testss_26test_storage_diff_modified
FNDA:1,_RNvNtNtNtCs2jO2QXn3WZ6_16soroban_debugger9inspector7storage5testss_26test_storage_export_import
FNDA:1,_RNvNtNtNtCs2jO2QXn3WZ6_16soroban_debugger9inspector7storage5testss_27test_multiple_mixed_filters
FNDA:1,_RNvNtNtNtCs2jO2QXn3WZ6_16soroban_debugger9inspector7storage5testss_30test_multiple_filters_or_logic
FNDA:1,_RNvNtNtNtCs2jO2QXn3WZ6_16soroban_debugger9inspector7storage5testss_32test_storage_import_invalid_json
FNDA:1,_RNvNtNtNtCs2jO2QXn3WZ6_16soroban_debugger9inspector7storage5testss_34test_storage_diff_multiple_changes
FNDA:1,_RNvNtNtNtCs2jO2QXn3WZ6_16soroban_debugger9inspector7storage5testss_35test_display_filtered_empty_storage
FNDA:1,_RNvNtNtNtCs2jO2QXn3WZ6_16soroban_debugger9inspector7storage5testss_36test_empty_filter_matches_everything
FNDA:1,_RNvNtNtNtCs2jO2QXn3WZ6_16soroban_debugger9inspector7storage5testss_37test_analyze_hot_keys_and_suggestions
FNDA:1,_RNvNtNtNtCs2jO2QXn3WZ6_16soroban_debugger9inspector7storage5testss_37test_storage_diff_large_mixed_changes
FNDA:1,_RNvNtNtNtCs2jO2QXn3WZ6_16soroban_debugger9inspector7storage5testss_40test_storage_diff_binary_non_utf8_values
FNDA:1,_RNvNtNtNtCs2jO2QXn3WZ6_16soroban_debugger9inspector7storage5testss_42test_storage_diff_empty_before_empty_after
FNDA:2,_RINvMNtNtCs2jO2QXn3WZ6_16soroban_debugger9inspector7storageNtB3_12StorageState14export_to_fileRNtNtCs7dz5ZklJ0d7_3std4path4PathEB7_
FNDA:3,_RINvMNtNtCs2jO2QXn3WZ6_16soroban_debugger9inspector7storageNtB3_12StorageState16import_from_fileRNtNtCs7dz5ZklJ0d7_3std4path4PathEB7_
FNDA:7,_RINvMs1_NtNtCs2jO2QXn3WZ6_16soroban_debugger9inspector7storageNtB6_16StorageInspector3setReB1p_EBa_
FNDA:0,_RNCINvMNtNtCs2jO2QXn3WZ6_16soroban_debugger9inspector7storageNtB5_12StorageState14export_to_fileRNtNtCs7dz5ZklJ0d7_3std4path4PathE0B9_
FNDA:0,_RNCINvMNtNtCs2jO2QXn3WZ6_16soroban_debugger9inspector7storageNtB5_12StorageState14export_to_fileRNtNtCs7dz5ZklJ0d7_3std4path4PathEs_0B9_
FNDA:0,_RNCINvMNtNtCs2jO2QXn3WZ6_16soroban_debugger9inspector7storageNtB5_12StorageState16import_from_fileRNtNtCs7dz5ZklJ0d7_3std4path4PathE0B9_
FNDA:1,_RNCINvMNtNtCs2jO2QXn3WZ6_16soroban_debugger9inspector7storageNtB5_12StorageState16import_from_fileRNtNtCs7dz5ZklJ0d7_3std4path4PathEs_0B9_
FNDA:1,_RNCNCNvMs1_NtNtCs2jO2QXn3WZ6_16soroban_debugger9inspector7storageNtB9_16StorageInspector21display_access_report00Bd_
FNDA:0,_RNCNCNvMs1_NtNtCs2jO2QXn3WZ6_16soroban_debugger9inspector7storageNtB9_16StorageInspector21display_access_report0s_0Bd_
FNDA:13,_RNCNvMs0_NtNtCs2jO2QXn3WZ6_16soroban_debugger9inspector7storageNtB7_13StorageFilter3new0Bb_
FNDA:26,_RNCNvMs0_NtNtCs2jO2QXn3WZ6_16soroban_debugger9inspector7storageNtB7_13StorageFilter7matches0Bb_
FNDA:3,_RNCNvMs0_NtNtCs2jO2QXn3WZ6_16soroban_debugger9inspector7storageNtB7_13StorageFilter7summary0Bb_
FNDA:0,_RNCNvMs1_NtNtCs2jO2QXn3WZ6_16soroban_debugger9inspector7storageNtB7_16StorageInspector12compute_diff0Bb_
FNDA:6,_RNCNvMs1_NtNtCs2jO2QXn3WZ6_16soroban_debugger9inspector7storageNtB7_16StorageInspector12get_filtered0Bb_
FNDA:2,_RNCNvMs1_NtNtCs2jO2QXn3WZ6_16soroban_debugger9inspector7storageNtB7_16StorageInspector12get_filtereds_0Bb_
FNDA:0,_RNCNvMs1_NtNtCs2jO2QXn3WZ6_16soroban_debugger9inspector7storageNtB7_16StorageInspector16capture_snapshot0Bb_
FNDA:2,_RNCNvMs1_NtNtCs2jO2QXn3WZ6_16soroban_debugger9inspector7storageNtB7_16StorageInspector21display_access_report0Bb_
FNDA:1,_RNCNvMs_NtNtCs2jO2QXn3WZ6_16soroban_debugger9inspector7storageNtB6_13FilterPattern5parse0Ba_
FNF:65
FNH:55
DA:31,2
DA:32,2
DA:33,2
DA:34,2
DA:35,2
DA:36,2
DA:37,2
DA:38,2
DA:39,0
DA:40,0
DA:41,2
DA:42,0
DA:43,0
DA:44,0
DA:45,0
DA:46,0
DA:47,0
DA:48,2
DA:49,2
DA:52,4
DA:53,4
DA:54,1
DA:55,1
DA:56,1
DA:57,1
DA:58,1
DA:59,1
DA:60,3
DA:61,1
DA:62,1
DA:63,2
DA:64,4
DA:73,28
DA:74,28
DA:75,8
DA:76,8
DA:77,6
DA:78,20
DA:79,13
DA:81,7
DA:83,28
DA:86,67
DA:87,67
DA:88,35
DA:89,18
DA:90,14
DA:92,67
DA:103,25
DA:104,25
DA:105,25
DA:106,25
DA:107,25
DA:111,45
DA:112,45
DA:113,4
DA:114,41
DA:115,57
DA:116,45
DA:119,1
DA:120,1
DA:121,1
DA:124,1
DA:125,1
DA:126,1
DA:127,3
DA:128,1
DA:129,1
DA:130,1
DA:131,3
DA:132,1
DA:133,1
DA:134,1
DA:148,14
DA:149,14
DA:150,14
DA:151,14
DA:152,14
DA:153,14
DA:154,14
DA:157,0
DA:158,0
DA:159,0
DA:162,0
DA:163,0
DA:164,0
DA:167,0
DA:168,0
DA:169,0
DA:170,0
DA:171,0
DA:173,0
DA:174,0
DA:175,0
DA:177,0
DA:181,2
DA:182,2
DA:183,1
DA:184,1
DA:185,1
DA:187,1
DA:188,1
DA:190,2
DA:191,2
DA:192,1
DA:193,1
DA:194,1
DA:197,1
DA:198,0
DA:199,1
DA:201,1
DA:202,1
DA:205,0
DA:208,2
DA:211,9
DA:212,9
DA:213,9
DA:214,28
DA:215,16
DA:216,9
DA:217,9
DA:220,31
DA:221,31
DA:222,31
DA:223,31
DA:224,31
DA:225,31
DA:228,23
DA:229,23
DA:230,23
DA:233,38
DA:234,38
DA:235,38
DA:238,4
DA:239,4
DA:241,8
DA:242,8
DA:243,8
DA:245,7
DA:246,7
DA:247,7
DA:249,4
DA:250,4
DA:251,4
DA:253,11
DA:254,11
DA:255,2
DA:256,9
DA:257,11
DA:258,5
DA:259,6
DA:260,11
DA:261,4
DA:262,7
DA:265,4
DA:266,4
DA:267,4
DA:268,4
DA:269,4
DA:270,4
DA:271,4
DA:274,1
DA:275,1
DA:276,1
DA:277,0
DA:279,0
DA:281,0
DA:282,1
DA:284,1
DA:286,1
DA:288,1
DA:289,1
DA:293,1
DA:295,1
DA:296,1
DA:297,1
DA:300,1
DA:302,2
DA:303,2
DA:304,2
DA:305,2
DA:306,2
DA:307,2
DA:309,3
DA:310,3
DA:311,3
DA:312,1
DA:313,2
DA:314,1
DA:315,1
DA:316,3
DA:317,1
DA:318,2
DA:320,3
DA:321,0
DA:323,3
DA:326,3
DA:327,0
DA:329,3
DA:332,3
DA:333,3
DA:335,3
DA:336,3
DA:337,1
DA:339,2
DA:341,3
DA:342,1
DA:344,2
DA:346,3
DA:348,3
DA:351,1
DA:352,1
DA:355,0
DA:356,0
DA:357,0
DA:359,0
DA:360,0
DA:361,0
DA:364,0
DA:365,0
DA:366,0
DA:368,0
DA:369,0
DA:372,0
DA:373,0
DA:374,0
DA:377,0
DA:378,0
DA:379,0
DA:381,0
DA:384,0
DA:385,0
DA:386,0
DA:387,0
DA:388,0
DA:389,0
DA:392,0
DA:395,7
DA:396,7
DA:397,7
DA:398,7
DA:399,7
DA:400,7
DA:401,7
DA:402,7
DA:403,7
DA:405,7
DA:406,0
DA:407,0
DA:408,0
DA:410,107
DA:411,107
DA:412,79
DA:413,79
DA:414,28
DA:415,28
DA:416,0
DA:417,28
DA:418,51
DA:421,28
DA:422,28
DA:423,0
DA:424,28
DA:429,106
DA:430,106
DA:431,27
DA:432,27
DA:433,0
DA:434,27
DA:435,79
DA:438,7
DA:439,7
DA:440,7
DA:441,7
DA:442,7
DA:443,7
DA:444,7
DA:447,1
DA:448,1
DA:449,0
DA:450,0
DA:451,1
DA:453,1
DA:456,1
DA:457,1
DA:458,1
DA:459,1
DA:460,1
DA:461,1
DA:462,1
DA:463,1
DA:464,1
DA:465,1
DA:466,1
DA:467,1
DA:468,1
DA:470,1
DA:471,1
DA:472,1
DA:473,1
DA:474,1
DA:475,1
DA:476,1
DA:477,1
DA:478,1
DA:479,1
DA:480,1
DA:481,1
DA:482,1
DA:483,1
DA:484,1
DA:486,1
DA:487,1
DA:488,1
DA:489,0
DA:490,0
DA:491,0
DA:492,0
DA:493,0
DA:495,1
DA:496,0
DA:497,0
DA:499,0
DA:501,0
DA:503,0
DA:504,0
DA:505,0
DA:506,0
DA:507,0
DA:508,0
DA:509,0
DA:510,0
DA:511,1
DA:512,1
DA:525,2
DA:526,2
DA:527,2
DA:547,0
DA:548,0
DA:549,0
DA:559,1
DA:560,1
DA:561,1
DA:562,1
DA:563,1
DA:564,1
DA:565,1
DA:568,1
DA:569,1
DA:570,1
DA:571,1
DA:572,1
DA:573,1
DA:574,1
DA:575,1
DA:578,1
DA:579,1
DA:580,1
DA:581,1
DA:582,1
DA:583,1
DA:584,1
DA:587,1
DA:588,1
DA:589,1
DA:590,1
DA:595,1
DA:596,1
DA:597,1
DA:598,1
DA:599,1
DA:600,1
DA:603,1
DA:604,1
DA:605,1
DA:606,1
DA:607,1
DA:608,1
DA:611,1
DA:612,1
DA:613,1
DA:614,1
DA:615,1
DA:616,1
DA:619,1
DA:620,1
DA:621,1
DA:622,1
DA:623,1
DA:624,1
DA:625,1
DA:628,1
DA:629,1
DA:630,1
DA:631,1
DA:632,1
DA:633,1
DA:634,1
DA:635,1
DA:636,1
DA:637,1
DA:638,1
DA:639,1
DA:642,1
DA:643,1
DA:644,1
DA:645,1
DA:646,1
DA:647,1
DA:648,1
DA:649,1
DA:650,1
DA:651,1
DA:652,1
DA:653,1
DA:658,1
DA:659,1
DA:660,1
DA:662,1
DA:663,1
DA:666,1
DA:667,1
DA:668,1
DA:669,1
DA:670,1
DA:671,1
DA:673,1
DA:674,1
DA:676,1
DA:677,1
DA:678,1
DA:679,1
DA:680,1
DA:683,1
DA:684,1
DA:685,1
DA:686,1
DA:688,1
DA:689,1
DA:691,1
DA:692,1
DA:695,1
DA:696,1
DA:697,1
DA:698,1
DA:700,1
DA:701,1
DA:702,1
DA:703,1
DA:704,1
DA:707,1
DA:708,1
DA:709,1
DA:710,1
DA:711,1
DA:713,1
DA:714,1
DA:715,1
DA:716,1
DA:717,1
DA:719,1
DA:720,1
DA:723,1
DA:724,1
DA:725,1
DA:726,1
DA:728,1
DA:729,1
DA:730,1
DA:731,1
DA:732,1
DA:735,1
DA:736,1
DA:737,1
DA:738,1
DA:739,1
DA:741,1
DA:742,1
DA:743,1
DA:744,1
DA:746,1
DA:747,1
DA:748,1
DA:749,1
DA:750,1
DA:751,1
DA:752,1
DA:753,1
DA:758,1
DA:761,1
DA:762,1
DA:763,1
DA:765,1
DA:766,1
DA:768,1
DA:769,1
DA:771,1
DA:772,1
DA:773,1
DA:774,1
DA:777,1
DA:780,1
DA:781,1
DA:782,1
DA:784,1
DA:785,1
DA:787,1
DA:788,1
DA:791,1
DA:795,1
DA:796,1
DA:798,1
DA:799,1
DA:800,1
DA:805,1
DA:806,1
DA:807,1
DA:808,1
DA:809,1
DA:810,1
DA:812,1
DA:813,1
DA:814,1
DA:815,1
DA:816,1
DA:819,1
DA:820,1
DA:821,1
DA:822,1
DA:825,1
DA:826,1
DA:829,6
DA:830,6
DA:831,6
DA:834,1
DA:835,1
DA:836,1
DA:839,1
DA:840,1
DA:842,1
DA:844,1
DA:845,1
DA:847,1
DA:848,1
DA:850,1
DA:852,1
DA:853,1
DA:856,1
DA:858,1
DA:860,10
DA:861,10
DA:862,10
DA:863,3
DA:864,3
DA:865,3
DA:866,1
DA:867,1
DA:869,1
DA:870,1
DA:873,1
DA:874,1
DA:875,1
DA:876,1
DA:877,1
DA:878,1
DA:879,1
DA:880,1
DA:881,1
DA:882,1
DA:885,1
DA:886,1
DA:887,1
DA:890,50
DA:891,50
DA:892,50
DA:893,50
DA:894,50
DA:895,50
DA:898,25
DA:899,25
DA:900,25
DA:901,25
DA:904,25
DA:905,25
DA:906,25
DA:909,25
DA:910,25
DA:911,25
DA:913,1
DA:914,1
DA:915,1
DA:916,1
DA:919,1
DA:920,1
DA:921,1
DA:922,1
DA:924,1
DA:925,1
DA:928,1
DA:929,1
DA:930,1
DA:935,1
DA:936,1
DA:937,1
DA:939,1
DA:940,1
DA:942,1
DA:943,1
DA:945,1
DA:947,1
DA:948,1
DA:949,1
DA:951,1
DA:952,1
DA:953,1
DA:957,1
DA:958,1
BRF:0
BRH:0
LF:635
LH:542
end_of_record
SF:/home/admin/Desktop/opensource/soroban-debugger/src/logging.rs
FN:61,_RNvNtCsjDzxbYtLkYp_16soroban_debugger7logging14log_breakpoint
FN:80,_RNvNtCsjDzxbYtLkYp_16soroban_debugger7logging16log_budget_usage
FN:71,_RNvNtCsjDzxbYtLkYp_16soroban_debugger7logging17log_event_emitted
FN:85,_RNvNtCsjDzxbYtLkYp_16soroban_debugger7logging18log_analysis_start
FN:115,_RNvNtCsjDzxbYtLkYp_16soroban_debugger7logging18log_breakpoint_set
FN:66,_RNvNtCsjDzxbYtLkYp_16soroban_debugger7logging18log_storage_access
FN:37,_RNvNtCsjDzxbYtLkYp_16soroban_debugger7logging19log_contract_loaded
FN:47,_RNvNtCsjDzxbYtLkYp_16soroban_debugger7logging19log_execution_start
FN:32,_RNvNtCsjDzxbYtLkYp_16soroban_debugger7logging20log_loading_contract
FN:42,_RNvNtCsjDzxbYtLkYp_16soroban_debugger7logging20log_loading_snapshot
FN:124,_RNvNtCsjDzxbYtLkYp_16soroban_debugger7logging20log_repeat_execution
FN:90,_RNvNtCsjDzxbYtLkYp_16soroban_debugger7logging21log_analysis_complete
FN:119,_RNvNtCsjDzxbYtLkYp_16soroban_debugger7logging22log_breakpoint_cleared
FN:56,_RNvNtCsjDzxbYtLkYp_16soroban_debugger7logging22log_execution_complete
FN:129,_RNvNtCsjDzxbYtLkYp_16soroban_debugger7logging23log_contract_comparison
FN:100,_RNvNtCsjDzxbYtLkYp_16soroban_debugger7logging23log_high_resource_usage
FN:95,_RNvNtCsjDzxbYtLkYp_16soroban_debugger7logging23log_optimization_report
FN:110,_RNvNtCsjDzxbYtLkYp_16soroban_debugger7logging26log_interactive_mode_start
FN:105,_RNvNtCsjDzxbYtLkYp_16soroban_debugger7logging8log_step
FN:10,_RINvNtCsjDzxbYtLkYp_16soroban_debugger7logging11log_displayNtNtCshQKOepsJxml_5alloc6string6StringEB4_
FN:10,_RINvNtCsjDzxbYtLkYp_16soroban_debugger7logging11log_displayRNtNtCshQKOepsJxml_5alloc6string6StringEB4_
FN:10,_RINvNtCsjDzxbYtLkYp_16soroban_debugger7logging11log_displayReEB4_
FN:61,_RNvNtCs2jO2QXn3WZ6_16soroban_debugger7logging14log_breakpoint
FN:80,_RNvNtCs2jO2QXn3WZ6_16soroban_debugger7logging16log_budget_usage
FN:71,_RNvNtCs2jO2QXn3WZ6_16soroban_debugger7logging17log_event_emitted
FN:85,_RNvNtCs2jO2QXn3WZ6_16soroban_debugger7logging18log_analysis_start
FN:115,_RNvNtCs2jO2QXn3WZ6_16soroban_debugger7logging18log_breakpoint_set
FN:66,_RNvNtCs2jO2QXn3WZ6_16soroban_debugger7logging18log_storage_access
FN:37,_RNvNtCs2jO2QXn3WZ6_16soroban_debugger7logging19log_contract_loaded
FN:47,_RNvNtCs2jO2QXn3WZ6_16soroban_debugger7logging19log_execution_start
FN:32,_RNvNtCs2jO2QXn3WZ6_16soroban_debugger7logging20log_loading_contract
FN:42,_RNvNtCs2jO2QXn3WZ6_16soroban_debugger7logging20log_loading_snapshot
FN:124,_RNvNtCs2jO2QXn3WZ6_16soroban_debugger7logging20log_repeat_execution
FN:90,_RNvNtCs2jO2QXn3WZ6_16soroban_debugger7logging21log_analysis_complete
FN:119,_RNvNtCs2jO2QXn3WZ6_16soroban_debugger7logging22log_breakpoint_cleared
FN:56,_RNvNtCs2jO2QXn3WZ6_16soroban_debugger7logging22log_execution_complete
FN:129,_RNvNtCs2jO2QXn3WZ6_16soroban_debugger7logging23log_contract_comparison
FN:95,_RNvNtCs2jO2QXn3WZ6_16soroban_debugger7logging23log_optimization_report
FN:110,_RNvNtCs2jO2QXn3WZ6_16soroban_debugger7logging26log_interactive_mode_start
FN:105,_RNvNtCs2jO2QXn3WZ6_16soroban_debugger7logging8log_step
FN:100,_RNvNtCs2jO2QXn3WZ6_16soroban_debugger7logging23log_high_resource_usage
FN:10,_RINvNtCs2jO2QXn3WZ6_16soroban_debugger7logging11log_displayNtNtCshQKOepsJxml_5alloc6string6StringEB4_
FN:10,_RINvNtCs2jO2QXn3WZ6_16soroban_debugger7logging11log_displayReEB4_
FNDA:0,_RNvNtCsjDzxbYtLkYp_16soroban_debugger7logging14log_breakpoint
FNDA:0,_RNvNtCsjDzxbYtLkYp_16soroban_debugger7logging16log_budget_usage
FNDA:0,_RNvNtCsjDzxbYtLkYp_16soroban_debugger7logging17log_event_emitted
FNDA:0,_RNvNtCsjDzxbYtLkYp_16soroban_debugger7logging18log_analysis_start
FNDA:0,_RNvNtCsjDzxbYtLkYp_16soroban_debugger7logging18log_breakpoint_set
FNDA:0,_RNvNtCsjDzxbYtLkYp_16soroban_debugger7logging18log_storage_access
FNDA:31,_RNvNtCsjDzxbYtLkYp_16soroban_debugger7logging19log_contract_loaded
FNDA:22,_RNvNtCsjDzxbYtLkYp_16soroban_debugger7logging19log_execution_start
FNDA:37,_RNvNtCsjDzxbYtLkYp_16soroban_debugger7logging20log_loading_contract
FNDA:2,_RNvNtCsjDzxbYtLkYp_16soroban_debugger7logging20log_loading_snapshot
FNDA:2,_RNvNtCsjDzxbYtLkYp_16soroban_debugger7logging20log_repeat_execution
FNDA:0,_RNvNtCsjDzxbYtLkYp_16soroban_debugger7logging21log_analysis_complete
FNDA:0,_RNvNtCsjDzxbYtLkYp_16soroban_debugger7logging22log_breakpoint_cleared
FNDA:0,_RNvNtCsjDzxbYtLkYp_16soroban_debugger7logging22log_execution_complete
FNDA:0,_RNvNtCsjDzxbYtLkYp_16soroban_debugger7logging23log_contract_comparison
FNDA:4,_RNvNtCsjDzxbYtLkYp_16soroban_debugger7logging23log_high_resource_usage
FNDA:0,_RNvNtCsjDzxbYtLkYp_16soroban_debugger7logging23log_optimization_report
FNDA:0,_RNvNtCsjDzxbYtLkYp_16soroban_debugger7logging26log_interactive_mode_start
FNDA:0,_RNvNtCsjDzxbYtLkYp_16soroban_debugger7logging8log_step
FNDA:3,_RINvNtCsjDzxbYtLkYp_16soroban_debugger7logging11log_displayNtNtCshQKOepsJxml_5alloc6string6StringEB4_
FNDA:0,_RINvNtCsjDzxbYtLkYp_16soroban_debugger7logging11log_displayRNtNtCshQKOepsJxml_5alloc6string6StringEB4_
FNDA:0,_RINvNtCsjDzxbYtLkYp_16soroban_debugger7logging11log_displayReEB4_
FNDA:0,_RNvNtCs2jO2QXn3WZ6_16soroban_debugger7logging14log_breakpoint
FNDA:0,_RNvNtCs2jO2QXn3WZ6_16soroban_debugger7logging16log_budget_usage
FNDA:0,_RNvNtCs2jO2QXn3WZ6_16soroban_debugger7logging17log_event_emitted
FNDA:0,_RNvNtCs2jO2QXn3WZ6_16soroban_debugger7logging18log_analysis_start
FNDA:0,_RNvNtCs2jO2QXn3WZ6_16soroban_debugger7logging18log_breakpoint_set
FNDA:0,_RNvNtCs2jO2QXn3WZ6_16soroban_debugger7logging18log_storage_access
FNDA:0,_RNvNtCs2jO2QXn3WZ6_16soroban_debugger7logging19log_contract_loaded
FNDA:0,_RNvNtCs2jO2QXn3WZ6_16soroban_debugger7logging19log_execution_start
FNDA:0,_RNvNtCs2jO2QXn3WZ6_16soroban_debugger7logging20log_loading_contract
FNDA:0,_RNvNtCs2jO2QXn3WZ6_16soroban_debugger7logging20log_loading_snapshot
FNDA:0,_RNvNtCs2jO2QXn3WZ6_16soroban_debugger7logging20log_repeat_execution
FNDA:0,_RNvNtCs2jO2QXn3WZ6_16soroban_debugger7logging21log_analysis_complete
FNDA:0,_RNvNtCs2jO2QXn3WZ6_16soroban_debugger7logging22log_breakpoint_cleared
FNDA:0,_RNvNtCs2jO2QXn3WZ6_16soroban_debugger7logging22log_execution_complete
FNDA:0,_RNvNtCs2jO2QXn3WZ6_16soroban_debugger7logging23log_contract_comparison
FNDA:0,_RNvNtCs2jO2QXn3WZ6_16soroban_debugger7logging23log_optimization_report
FNDA:0,_RNvNtCs2jO2QXn3WZ6_16soroban_debugger7logging26log_interactive_mode_start
FNDA:0,_RNvNtCs2jO2QXn3WZ6_16soroban_debugger7logging8log_step
FNDA:2,_RNvNtCs2jO2QXn3WZ6_16soroban_debugger7logging23log_high_resource_usage
FNDA:26,_RINvNtCs2jO2QXn3WZ6_16soroban_debugger7logging11log_displayNtNtCshQKOepsJxml_5alloc6string6StringEB4_
FNDA:8,_RINvNtCs2jO2QXn3WZ6_16soroban_debugger7logging11log_displayReEB4_
FNF:20
FNH:7
DA:10,37
DA:11,37
DA:12,37
DA:13,33
DA:14,4
DA:15,0
DA:16,0
DA:17,0
DA:19,37
DA:32,37
DA:33,37
DA:34,37
DA:37,31
DA:38,31
DA:39,31
DA:42,2
DA:43,2
DA:44,2
DA:47,22
DA:48,22
DA:49,0
DA:51,22
DA:53,22
DA:56,0
DA:57,0
DA:58,0
DA:61,0
DA:62,0
DA:63,0
DA:66,0
DA:67,0
DA:68,0
DA:71,0
DA:72,0
DA:77,0
DA:80,0
DA:81,0
DA:82,0
DA:85,0
DA:86,0
DA:87,0
DA:90,0
DA:91,0
DA:92,0
DA:95,0
DA:96,0
DA:97,0
DA:100,6
DA:101,6
DA:102,6
DA:105,0
DA:106,0
DA:107,0
DA:110,0
DA:111,0
DA:112,0
DA:115,0
DA:116,0
DA:117,0
DA:119,0
DA:120,0
DA:121,0
DA:124,2
DA:125,2
DA:126,2
DA:129,0
DA:130,0
DA:131,0
BRF:0
BRH:0
LF:68
LH:25
end_of_record
SF:/home/admin/Desktop/opensource/soroban-debugger/src/main.rs
FN:116,_RNCNvCslLrO77WuVff_13soroban_debug23env_var_disables_banner0B3_
FN:19,_RNCNvCslLrO77WuVff_13soroban_debug18initialize_tracing0B3_
FN:196,_RNCNvCslLrO77WuVff_13soroban_debug4main0B3_
FN:220,_RNCNvCslLrO77WuVff_13soroban_debug4mains0_0B3_
FN:152,_RNCNvCslLrO77WuVff_13soroban_debug4mains1_0B3_
FN:197,_RNCNvCslLrO77WuVff_13soroban_debug4mains_0B3_
FN:111,_RNvCslLrO77WuVff_13soroban_debug12print_banner
FN:16,_RNvCslLrO77WuVff_13soroban_debug18initialize_tracing
FN:126,_RNvCslLrO77WuVff_13soroban_debug18should_show_banner
FN:8,_RNvCslLrO77WuVff_13soroban_debug18verbosity_to_level
FN:46,_RNvCslLrO77WuVff_13soroban_debug19handle_deprecations
FN:36,_RNvCslLrO77WuVff_13soroban_debug25print_deprecation_warning
FN:135,_RNvCslLrO77WuVff_13soroban_debug4main
FN:253,_RNvNtCslLrO77WuVff_13soroban_debug5tests9parse_cli
FN:265,_RNvNtCslLrO77WuVff_13soroban_debug5testss_29banner_is_max_five_lines_tall
FN:271,_RNvNtCslLrO77WuVff_13soroban_debug5testss_32no_banner_flag_suppresses_output
FN:277,_RNvNtCslLrO77WuVff_13soroban_debug5testss_35no_banner_env_var_suppresses_output
FN:258,_RNvNtCslLrO77WuVff_13soroban_debug5testss_40banner_contains_project_name_and_version
FN:285,_RNvNtCslLrO77WuVff_13soroban_debug5testss_40non_interactive_output_suppresses_banner
FN:291,_RNvNtCslLrO77WuVff_13soroban_debug5testss_51interactive_output_shows_banner_when_not_suppressed
FN:104,_RNvCslLrO77WuVff_13soroban_debug11banner_text
FN:115,_RNvCslLrO77WuVff_13soroban_debug23env_var_disables_banner
FN:122,_RNvCslLrO77WuVff_13soroban_debug23should_show_banner_with
FN:104,_RNvCs1Rka93CBXHE_13soroban_debug11banner_text
FN:111,_RNvCs1Rka93CBXHE_13soroban_debug12print_banner
FN:16,_RNvCs1Rka93CBXHE_13soroban_debug18initialize_tracing
FN:126,_RNvCs1Rka93CBXHE_13soroban_debug18should_show_banner
FN:8,_RNvCs1Rka93CBXHE_13soroban_debug18verbosity_to_level
FN:46,_RNvCs1Rka93CBXHE_13soroban_debug19handle_deprecations
FN:115,_RNvCs1Rka93CBXHE_13soroban_debug23env_var_disables_banner
FN:122,_RNvCs1Rka93CBXHE_13soroban_debug23should_show_banner_with
FN:36,_RNvCs1Rka93CBXHE_13soroban_debug25print_deprecation_warning
FN:135,_RNvCs1Rka93CBXHE_13soroban_debug4main
FN:19,_RNCNvCs1Rka93CBXHE_13soroban_debug18initialize_tracing0B3_
FN:116,_RNCNvCs1Rka93CBXHE_13soroban_debug23env_var_disables_banner0B3_
FN:196,_RNCNvCs1Rka93CBXHE_13soroban_debug4main0B3_
FN:220,_RNCNvCs1Rka93CBXHE_13soroban_debug4mains0_0B3_
FN:152,_RNCNvCs1Rka93CBXHE_13soroban_debug4mains1_0B3_
FN:197,_RNCNvCs1Rka93CBXHE_13soroban_debug4mains_0B3_
FNDA:3,_RNCNvCslLrO77WuVff_13soroban_debug23env_var_disables_banner0B3_
FNDA:0,_RNCNvCslLrO77WuVff_13soroban_debug18initialize_tracing0B3_
FNDA:0,_RNCNvCslLrO77WuVff_13soroban_debug4main0B3_
FNDA:0,_RNCNvCslLrO77WuVff_13soroban_debug4mains0_0B3_
FNDA:0,_RNCNvCslLrO77WuVff_13soroban_debug4mains1_0B3_
FNDA:0,_RNCNvCslLrO77WuVff_13soroban_debug4mains_0B3_
FNDA:0,_RNvCslLrO77WuVff_13soroban_debug12print_banner
FNDA:0,_RNvCslLrO77WuVff_13soroban_debug18initialize_tracing
FNDA:0,_RNvCslLrO77WuVff_13soroban_debug18should_show_banner
FNDA:0,_RNvCslLrO77WuVff_13soroban_debug18verbosity_to_level
FNDA:0,_RNvCslLrO77WuVff_13soroban_debug19handle_deprecations
FNDA:0,_RNvCslLrO77WuVff_13soroban_debug25print_deprecation_warning
FNDA:0,_RNvCslLrO77WuVff_13soroban_debug4main
FNDA:4,_RNvNtCslLrO77WuVff_13soroban_debug5tests9parse_cli
FNDA:1,_RNvNtCslLrO77WuVff_13soroban_debug5testss_29banner_is_max_five_lines_tall
FNDA:1,_RNvNtCslLrO77WuVff_13soroban_debug5testss_32no_banner_flag_suppresses_output
FNDA:1,_RNvNtCslLrO77WuVff_13soroban_debug5testss_35no_banner_env_var_suppresses_output
FNDA:1,_RNvNtCslLrO77WuVff_13soroban_debug5testss_40banner_contains_project_name_and_version
FNDA:1,_RNvNtCslLrO77WuVff_13soroban_debug5testss_40non_interactive_output_suppresses_banner
FNDA:1,_RNvNtCslLrO77WuVff_13soroban_debug5testss_51interactive_output_shows_banner_when_not_suppressed
FNDA:2,_RNvCslLrO77WuVff_13soroban_debug11banner_text
FNDA:4,_RNvCslLrO77WuVff_13soroban_debug23env_var_disables_banner
FNDA:6,_RNvCslLrO77WuVff_13soroban_debug23should_show_banner_with
FNDA:0,_RNvCs1Rka93CBXHE_13soroban_debug11banner_text
FNDA:0,_RNvCs1Rka93CBXHE_13soroban_debug12print_banner
FNDA:66,_RNvCs1Rka93CBXHE_13soroban_debug18initialize_tracing
FNDA:66,_RNvCs1Rka93CBXHE_13soroban_debug18should_show_banner
FNDA:66,_RNvCs1Rka93CBXHE_13soroban_debug18verbosity_to_level
FNDA:66,_RNvCs1Rka93CBXHE_13soroban_debug19handle_deprecations
FNDA:0,_RNvCs1Rka93CBXHE_13soroban_debug23env_var_disables_banner
FNDA:66,_RNvCs1Rka93CBXHE_13soroban_debug23should_show_banner_with
FNDA:0,_RNvCs1Rka93CBXHE_13soroban_debug25print_deprecation_warning
FNDA:87,_RNvCs1Rka93CBXHE_13soroban_debug4main
FNDA:66,_RNCNvCs1Rka93CBXHE_13soroban_debug18initialize_tracing0B3_
FNDA:0,_RNCNvCs1Rka93CBXHE_13soroban_debug23env_var_disables_banner0B3_
FNDA:0,_RNCNvCs1Rka93CBXHE_13soroban_debug4main0B3_
FNDA:0,_RNCNvCs1Rka93CBXHE_13soroban_debug4mains0_0B3_
FNDA:3,_RNCNvCs1Rka93CBXHE_13soroban_debug4mains1_0B3_
FNDA:0,_RNCNvCs1Rka93CBXHE_13soroban_debug4mains_0B3_
FNF:23
FNH:18
DA:8,66
DA:9,66
DA:10,5
DA:11,58
DA:12,3
DA:14,66
DA:16,66
DA:17,66
DA:18,66
DA:19,66
DA:21,66
DA:23,66
DA:24,66
DA:25,66
DA:26,66
DA:27,66
DA:29,66
DA:30,0
DA:31,66
DA:32,66
DA:33,66
DA:34,66
DA:36,0
DA:37,0
DA:39,0
DA:44,0
DA:46,66
DA:47,66
DA:48,35
DA:49,35
DA:50,0
DA:51,0
DA:52,35
DA:53,35
DA:54,0
DA:55,0
DA:56,35
DA:58,0
DA:59,0
DA:60,0
DA:61,0
DA:62,0
DA:63,0
DA:64,0
DA:65,0
DA:66,0
DA:68,8
DA:69,8
DA:70,0
DA:71,0
DA:72,8
DA:74,4
DA:75,4
DA:76,0
DA:77,0
DA:78,4
DA:79,4
DA:80,0
DA:81,0
DA:82,4
DA:84,2
DA:85,2
DA:86,0
DA:87,0
DA:88,2
DA:90,0
DA:91,0
DA:92,0
DA:93,0
DA:94,0
DA:95,0
DA:96,0
DA:97,0
DA:98,0
DA:100,17
DA:102,66
DA:104,2
DA:105,2
DA:109,2
DA:111,0
DA:112,0
DA:113,0
DA:115,4
DA:116,4
DA:117,3
DA:118,3
DA:119,3
DA:120,4
DA:122,72
DA:123,72
DA:124,72
DA:126,66
DA:127,66
DA:128,66
DA:129,66
DA:130,66
DA:131,66
DA:133,66
DA:135,87
DA:136,87
DA:138,87
DA:139,87
DA:140,0
DA:141,87
DA:142,87
DA:144,87
DA:145,87
DA:146,35
DA:147,35
DA:148,35
DA:149,33
DA:150,33
DA:151,33
DA:152,33
DA:154,87
DA:156,87
DA:157,87
DA:159,87
DA:161,66
DA:162,35
DA:163,35
DA:164,35
DA:166,0
DA:167,0
DA:168,0
DA:170,0
DA:171,8
DA:172,4
DA:173,4
DA:175,3
DA:176,4
DA:177,9
DA:178,0
DA:179,0
DA:180,0
DA:181,0
DA:183,2
DA:184,0
DA:185,0
DA:187,0
DA:188,0
DA:189,1
DA:190,0
DA:191,0
DA:193,0
DA:194,0
DA:195,0
DA:196,0
DA:197,0
DA:200,21
DA:201,21
DA:202,21
DA:203,21
DA:204,21
DA:205,21
DA:206,21
DA:207,21
DA:208,21
DA:209,21
DA:210,21
DA:212,0
DA:213,0
DA:214,0
DA:215,0
DA:216,0
DA:219,0
DA:220,0
DA:221,0
DA:222,0
DA:227,66
DA:228,62
DA:229,0
DA:230,0
DA:231,0
DA:232,0
DA:233,0
DA:234,0
DA:235,0
DA:236,0
DA:237,0
DA:238,62
DA:239,62
DA:241,0
DA:243,62
DA:244,4
DA:246,4
DA:247,87
DA:253,4
DA:254,4
DA:255,4
DA:258,1
DA:259,1
DA:260,1
DA:261,1
DA:262,1
DA:265,1
DA:266,1
DA:267,1
DA:268,1
DA:271,1
DA:272,1
DA:273,1
DA:274,1
DA:277,1
DA:278,1
DA:279,1
DA:280,1
DA:281,1
DA:282,1
DA:285,1
DA:286,1
DA:287,1
DA:288,1
DA:291,1
DA:292,1
DA:293,1
DA:294,1
BRF:0
BRH:0
LF:223
LH:143
end_of_record
SF:/home/admin/Desktop/opensource/soroban-debugger/src/output.rs
FN:33,_RNvMNtCsjDzxbYtLkYp_16soroban_debugger6outputNtB2_12OutputConfig14colors_enabledB4_
FN:27,_RNvMNtCsjDzxbYtLkYp_16soroban_debugger6outputNtB2_12OutputConfig10no_unicodeB4_
FN:75,_RNvMNtCsjDzxbYtLkYp_16soroban_debugger6outputNtB2_12OutputConfig16double_rule_char
FN:89,_RNvMNtCsjDzxbYtLkYp_16soroban_debugger6outputNtB2_12OutputConfig16double_rule_line
FN:49,_RNvMNtCsjDzxbYtLkYp_16soroban_debugger6outputNtB2_12OutputConfig20replace_unicode_char
FN:38,_RNvMNtCsjDzxbYtLkYp_16soroban_debugger6outputNtB2_12OutputConfig8to_ascii
FN:16,_RNvMNtCsjDzxbYtLkYp_16soroban_debugger6outputNtB2_12OutputConfig9configure
FN:70,_RNvMNtCsjDzxbYtLkYp_16soroban_debugger6outputNtB2_12OutputConfig9rule_char
FN:84,_RNvMNtCsjDzxbYtLkYp_16soroban_debugger6outputNtB2_12OutputConfig9rule_line
FN:131,_RNvMs0_NtCsjDzxbYtLkYp_16soroban_debugger6outputNtB5_12OutputWriter3new
FN:154,_RNvMs0_NtCsjDzxbYtLkYp_16soroban_debugger6outputNtB5_12OutputWriter5write
FN:107,_RNvMs_NtCsjDzxbYtLkYp_16soroban_debugger6outputNtB4_11StatusLabel6as_str
FN:120,_RNvNtCsjDzxbYtLkYp_16soroban_debugger6output12spinner_text
FN:20,_RNCNvMNtCsjDzxbYtLkYp_16soroban_debugger6outputNtB4_12OutputConfig9configure0B6_
FN:139,_RNCNvMs0_NtCsjDzxbYtLkYp_16soroban_debugger6outputNtB7_12OutputWriter3new0B9_
FN:144,_RNCNvMs0_NtCsjDzxbYtLkYp_16soroban_debugger6outputNtB7_12OutputWriter3news_0B9_
FN:158,_RNCNvMs0_NtCsjDzxbYtLkYp_16soroban_debugger6outputNtB7_12OutputWriter5write0B9_
FN:20,_RNCNvMNtCs2jO2QXn3WZ6_16soroban_debugger6outputNtB4_12OutputConfig9configure0B6_
FN:139,_RNCNvMs0_NtCs2jO2QXn3WZ6_16soroban_debugger6outputNtB7_12OutputWriter3new0B9_
FN:144,_RNCNvMs0_NtCs2jO2QXn3WZ6_16soroban_debugger6outputNtB7_12OutputWriter3news_0B9_
FN:158,_RNCNvMs0_NtCs2jO2QXn3WZ6_16soroban_debugger6outputNtB7_12OutputWriter5write0B9_
FN:27,_RNvMNtCs2jO2QXn3WZ6_16soroban_debugger6outputNtB2_12OutputConfig10no_unicodeB4_
FN:33,_RNvMNtCs2jO2QXn3WZ6_16soroban_debugger6outputNtB2_12OutputConfig14colors_enabledB4_
FN:75,_RNvMNtCs2jO2QXn3WZ6_16soroban_debugger6outputNtB2_12OutputConfig16double_rule_char
FN:89,_RNvMNtCs2jO2QXn3WZ6_16soroban_debugger6outputNtB2_12OutputConfig16double_rule_line
FN:49,_RNvMNtCs2jO2QXn3WZ6_16soroban_debugger6outputNtB2_12OutputConfig20replace_unicode_char
FN:38,_RNvMNtCs2jO2QXn3WZ6_16soroban_debugger6outputNtB2_12OutputConfig8to_ascii
FN:16,_RNvMNtCs2jO2QXn3WZ6_16soroban_debugger6outputNtB2_12OutputConfig9configure
FN:70,_RNvMNtCs2jO2QXn3WZ6_16soroban_debugger6outputNtB2_12OutputConfig9rule_char
FN:84,_RNvMNtCs2jO2QXn3WZ6_16soroban_debugger6outputNtB2_12OutputConfig9rule_line
FN:131,_RNvMs0_NtCs2jO2QXn3WZ6_16soroban_debugger6outputNtB5_12OutputWriter3new
FN:154,_RNvMs0_NtCs2jO2QXn3WZ6_16soroban_debugger6outputNtB5_12OutputWriter5write
FN:107,_RNvMs_NtCs2jO2QXn3WZ6_16soroban_debugger6outputNtB4_11StatusLabel6as_str
FN:120,_RNvNtCs2jO2QXn3WZ6_16soroban_debugger6output12spinner_text
FNDA:0,_RNvMNtCsjDzxbYtLkYp_16soroban_debugger6outputNtB2_12OutputConfig14colors_enabledB4_
FNDA:0,_RNvMNtCsjDzxbYtLkYp_16soroban_debugger6outputNtB2_12OutputConfig10no_unicodeB4_
FNDA:0,_RNvMNtCsjDzxbYtLkYp_16soroban_debugger6outputNtB2_12OutputConfig16double_rule_char
FNDA:0,_RNvMNtCsjDzxbYtLkYp_16soroban_debugger6outputNtB2_12OutputConfig16double_rule_line
FNDA:0,_RNvMNtCsjDzxbYtLkYp_16soroban_debugger6outputNtB2_12OutputConfig20replace_unicode_char
FNDA:0,_RNvMNtCsjDzxbYtLkYp_16soroban_debugger6outputNtB2_12OutputConfig8to_ascii
FNDA:0,_RNvMNtCsjDzxbYtLkYp_16soroban_debugger6outputNtB2_12OutputConfig9configure
FNDA:0,_RNvMNtCsjDzxbYtLkYp_16soroban_debugger6outputNtB2_12OutputConfig9rule_char
FNDA:0,_RNvMNtCsjDzxbYtLkYp_16soroban_debugger6outputNtB2_12OutputConfig9rule_line
FNDA:35,_RNvMs0_NtCsjDzxbYtLkYp_16soroban_debugger6outputNtB5_12OutputWriter3new
FNDA:105,_RNvMs0_NtCsjDzxbYtLkYp_16soroban_debugger6outputNtB5_12OutputWriter5write
FNDA:0,_RNvMs_NtCsjDzxbYtLkYp_16soroban_debugger6outputNtB4_11StatusLabel6as_str
FNDA:0,_RNvNtCsjDzxbYtLkYp_16soroban_debugger6output12spinner_text
FNDA:0,_RNCNvMNtCsjDzxbYtLkYp_16soroban_debugger6outputNtB4_12OutputConfig9configure0B6_
FNDA:0,_RNCNvMs0_NtCsjDzxbYtLkYp_16soroban_debugger6outputNtB7_12OutputWriter3new0B9_
FNDA:0,_RNCNvMs0_NtCsjDzxbYtLkYp_16soroban_debugger6outputNtB7_12OutputWriter3news_0B9_
FNDA:0,_RNCNvMs0_NtCsjDzxbYtLkYp_16soroban_debugger6outputNtB7_12OutputWriter5write0B9_
FNDA:0,_RNCNvMNtCs2jO2QXn3WZ6_16soroban_debugger6outputNtB4_12OutputConfig9configure0B6_
FNDA:0,_RNCNvMs0_NtCs2jO2QXn3WZ6_16soroban_debugger6outputNtB7_12OutputWriter3new0B9_
FNDA:0,_RNCNvMs0_NtCs2jO2QXn3WZ6_16soroban_debugger6outputNtB7_12OutputWriter3news_0B9_
FNDA:0,_RNCNvMs0_NtCs2jO2QXn3WZ6_16soroban_debugger6outputNtB7_12OutputWriter5write0B9_
FNDA:0,_RNvMNtCs2jO2QXn3WZ6_16soroban_debugger6outputNtB2_12OutputConfig10no_unicodeB4_
FNDA:0,_RNvMNtCs2jO2QXn3WZ6_16soroban_debugger6outputNtB2_12OutputConfig14colors_enabledB4_
FNDA:0,_RNvMNtCs2jO2QXn3WZ6_16soroban_debugger6outputNtB2_12OutputConfig16double_rule_char
FNDA:0,_RNvMNtCs2jO2QXn3WZ6_16soroban_debugger6outputNtB2_12OutputConfig16double_rule_line
FNDA:0,_RNvMNtCs2jO2QXn3WZ6_16soroban_debugger6outputNtB2_12OutputConfig20replace_unicode_char
FNDA:0,_RNvMNtCs2jO2QXn3WZ6_16soroban_debugger6outputNtB2_12OutputConfig8to_ascii
FNDA:0,_RNvMNtCs2jO2QXn3WZ6_16soroban_debugger6outputNtB2_12OutputConfig9configure
FNDA:0,_RNvMNtCs2jO2QXn3WZ6_16soroban_debugger6outputNtB2_12OutputConfig9rule_char
FNDA:0,_RNvMNtCs2jO2QXn3WZ6_16soroban_debugger6outputNtB2_12OutputConfig9rule_line
FNDA:0,_RNvMs0_NtCs2jO2QXn3WZ6_16soroban_debugger6outputNtB5_12OutputWriter3new
FNDA:0,_RNvMs0_NtCs2jO2QXn3WZ6_16soroban_debugger6outputNtB5_12OutputWriter5write
FNDA:0,_RNvMs_NtCs2jO2QXn3WZ6_16soroban_debugger6outputNtB4_11StatusLabel6as_str
FNDA:0,_RNvNtCs2jO2QXn3WZ6_16soroban_debugger6output12spinner_text
FNF:17
FNH:2
DA:16,0
DA:17,0
DA:19,0
DA:20,0
DA:21,0
DA:22,0
DA:23,0
DA:27,0
DA:28,0
DA:29,0
DA:33,0
DA:34,0
DA:35,0
DA:38,0
DA:39,0
DA:40,0
DA:41,0
DA:42,0
DA:43,0
DA:44,0
DA:45,0
DA:46,0
DA:47,0
DA:49,0
DA:50,0
DA:52,0
DA:54,0
DA:56,0
DA:58,0
DA:60,0
DA:61,0
DA:62,0
DA:63,0
DA:64,0
DA:65,0
DA:67,0
DA:70,0
DA:71,0
DA:72,0
DA:75,0
DA:76,0
DA:77,0
DA:79,0
DA:81,0
DA:84,0
DA:85,0
DA:86,0
DA:89,0
DA:90,0
DA:91,0
DA:107,0
DA:108,0
DA:109,0
DA:110,0
DA:111,0
DA:112,0
DA:113,0
DA:114,0
DA:116,0
DA:120,0
DA:121,0
DA:122,0
DA:131,35
DA:132,35
DA:133,0
DA:135,0
DA:136,0
DA:137,0
DA:138,0
DA:139,0
DA:143,0
DA:144,0
DA:148,35
DA:150,35
DA:151,35
DA:154,105
DA:155,105
DA:157,0
DA:158,0
DA:159,105
DA:160,105
DA:161,105
BRF:0
BRH:0
LF:86
LH:10
end_of_record
SF:/home/admin/Desktop/opensource/soroban-debugger/src/plugin/api.rs
FN:134,_RNvYpNtNtNtCsjDzxbYtLkYp_16soroban_debugger6plugin3api15InspectorPlugin10formattersB9_
FN:95,_RNvYpNtNtNtCsjDzxbYtLkYp_16soroban_debugger6plugin3api15InspectorPlugin10initializeB9_
FN:141,_RNvYpNtNtNtCsjDzxbYtLkYp_16soroban_debugger6plugin3api15InspectorPlugin13format_outputB9_
FN:157,_RNvYpNtNtNtCsjDzxbYtLkYp_16soroban_debugger6plugin3api15InspectorPlugin14prepare_reloadB9_
FN:126,_RNvYpNtNtNtCsjDzxbYtLkYp_16soroban_debugger6plugin3api15InspectorPlugin15execute_commandB9_
FN:165,_RNvYpNtNtNtCsjDzxbYtLkYp_16soroban_debugger6plugin3api15InspectorPlugin19restore_from_reloadB9_
FN:149,_RNvYpNtNtNtCsjDzxbYtLkYp_16soroban_debugger6plugin3api15InspectorPlugin19supports_hot_reloadB9_
FN:118,_RNvYpNtNtNtCsjDzxbYtLkYp_16soroban_debugger6plugin3api15InspectorPlugin8commandsB9_
FN:112,_RNvYpNtNtNtCsjDzxbYtLkYp_16soroban_debugger6plugin3api15InspectorPlugin8on_eventB9_
FN:103,_RNvYpNtNtNtCsjDzxbYtLkYp_16soroban_debugger6plugin3api15InspectorPlugin8shutdownB9_
FN:31,_RNvXNtNtCsjDzxbYtLkYp_16soroban_debugger6plugin3apiNtB2_11PluginErrorNtNtCslH02haMvknO_4core3fmt7Display3fmt
FN:95,_RNvYpNtNtNtCs2jO2QXn3WZ6_16soroban_debugger6plugin3api15InspectorPlugin10initializeB9_
FN:141,_RNvYpNtNtNtCs2jO2QXn3WZ6_16soroban_debugger6plugin3api15InspectorPlugin13format_outputB9_
FN:157,_RNvYpNtNtNtCs2jO2QXn3WZ6_16soroban_debugger6plugin3api15InspectorPlugin14prepare_reloadB9_
FN:126,_RNvYpNtNtNtCs2jO2QXn3WZ6_16soroban_debugger6plugin3api15InspectorPlugin15execute_commandB9_
FN:165,_RNvYpNtNtNtCs2jO2QXn3WZ6_16soroban_debugger6plugin3api15InspectorPlugin19restore_from_reloadB9_
FN:149,_RNvYpNtNtNtCs2jO2QXn3WZ6_16soroban_debugger6plugin3api15InspectorPlugin19supports_hot_reloadB9_
FN:112,_RNvYpNtNtNtCs2jO2QXn3WZ6_16soroban_debugger6plugin3api15InspectorPlugin8on_eventB9_
FN:103,_RNvYpNtNtNtCs2jO2QXn3WZ6_16soroban_debugger6plugin3api15InspectorPlugin8shutdownB9_
FN:31,_RNvXNtNtCs2jO2QXn3WZ6_16soroban_debugger6plugin3apiNtB2_11PluginErrorNtNtCslH02haMvknO_4core3fmt7Display3fmt
FN:134,_RNvYNtNtNtNtCs2jO2QXn3WZ6_16soroban_debugger6plugin3api5tests10TestPluginNtB6_15InspectorPlugin10formattersBa_
FN:118,_RNvYNtNtNtNtCs2jO2QXn3WZ6_16soroban_debugger6plugin3api5tests10TestPluginNtB6_15InspectorPlugin8commandsBa_
FN:195,_RNvNtNtNtCs2jO2QXn3WZ6_16soroban_debugger6plugin3api5testss_17test_plugin_trait
FN:189,_RNvXNtNtNtCs2jO2QXn3WZ6_16soroban_debugger6plugin3api5testsNtB2_10TestPluginNtB4_15InspectorPlugin8metadata
FNDA:0,_RNvYpNtNtNtCsjDzxbYtLkYp_16soroban_debugger6plugin3api15InspectorPlugin10formattersB9_
FNDA:0,_RNvYpNtNtNtCsjDzxbYtLkYp_16soroban_debugger6plugin3api15InspectorPlugin10initializeB9_
FNDA:0,_RNvYpNtNtNtCsjDzxbYtLkYp_16soroban_debugger6plugin3api15InspectorPlugin13format_outputB9_
FNDA:0,_RNvYpNtNtNtCsjDzxbYtLkYp_16soroban_debugger6plugin3api15InspectorPlugin14prepare_reloadB9_
FNDA:0,_RNvYpNtNtNtCsjDzxbYtLkYp_16soroban_debugger6plugin3api15InspectorPlugin15execute_commandB9_
FNDA:0,_RNvYpNtNtNtCsjDzxbYtLkYp_16soroban_debugger6plugin3api15InspectorPlugin19restore_from_reloadB9_
FNDA:0,_RNvYpNtNtNtCsjDzxbYtLkYp_16soroban_debugger6plugin3api15InspectorPlugin19supports_hot_reloadB9_
FNDA:0,_RNvYpNtNtNtCsjDzxbYtLkYp_16soroban_debugger6plugin3api15InspectorPlugin8commandsB9_
FNDA:0,_RNvYpNtNtNtCsjDzxbYtLkYp_16soroban_debugger6plugin3api15InspectorPlugin8on_eventB9_
FNDA:0,_RNvYpNtNtNtCsjDzxbYtLkYp_16soroban_debugger6plugin3api15InspectorPlugin8shutdownB9_
FNDA:6,_RNvXNtNtCsjDzxbYtLkYp_16soroban_debugger6plugin3apiNtB2_11PluginErrorNtNtCslH02haMvknO_4core3fmt7Display3fmt
FNDA:0,_RNvYpNtNtNtCs2jO2QXn3WZ6_16soroban_debugger6plugin3api15InspectorPlugin10initializeB9_
FNDA:0,_RNvYpNtNtNtCs2jO2QXn3WZ6_16soroban_debugger6plugin3api15InspectorPlugin13format_outputB9_
FNDA:0,_RNvYpNtNtNtCs2jO2QXn3WZ6_16soroban_debugger6plugin3api15InspectorPlugin14prepare_reloadB9_
FNDA:0,_RNvYpNtNtNtCs2jO2QXn3WZ6_16soroban_debugger6plugin3api15InspectorPlugin15execute_commandB9_
FNDA:0,_RNvYpNtNtNtCs2jO2QXn3WZ6_16soroban_debugger6plugin3api15InspectorPlugin19restore_from_reloadB9_
FNDA:0,_RNvYpNtNtNtCs2jO2QXn3WZ6_16soroban_debugger6plugin3api15InspectorPlugin19supports_hot_reloadB9_
FNDA:0,_RNvYpNtNtNtCs2jO2QXn3WZ6_16soroban_debugger6plugin3api15InspectorPlugin8on_eventB9_
FNDA:0,_RNvYpNtNtNtCs2jO2QXn3WZ6_16soroban_debugger6plugin3api15InspectorPlugin8shutdownB9_
FNDA:0,_RNvXNtNtCs2jO2QXn3WZ6_16soroban_debugger6plugin3apiNtB2_11PluginErrorNtNtCslH02haMvknO_4core3fmt7Display3fmt
FNDA:1,_RNvYNtNtNtNtCs2jO2QXn3WZ6_16soroban_debugger6plugin3api5tests10TestPluginNtB6_15InspectorPlugin10formattersBa_
FNDA:1,_RNvYNtNtNtNtCs2jO2QXn3WZ6_16soroban_debugger6plugin3api5tests10TestPluginNtB6_15InspectorPlugin8commandsBa_
FNDA:1,_RNvNtNtNtCs2jO2QXn3WZ6_16soroban_debugger6plugin3api5testss_17test_plugin_trait
FNDA:1,_RNvXNtNtNtCs2jO2QXn3WZ6_16soroban_debugger6plugin3api5testsNtB2_10TestPluginNtB4_15InspectorPlugin8metadata
FNF:13
FNH:5
DA:31,6
DA:32,6
DA:33,1
DA:34,1
DA:36,1
DA:37,1
DA:38,1
DA:39,1
DA:40,1
DA:41,1
DA:46,1
DA:48,6
DA:95,0
DA:96,0
DA:97,0
DA:103,0
DA:104,0
DA:105,0
DA:112,0
DA:113,0
DA:114,0
DA:115,0
DA:118,1
DA:119,1
DA:120,1
DA:126,0
DA:127,0
DA:128,0
DA:129,0
DA:130,0
DA:131,0
DA:134,1
DA:135,1
DA:136,1
DA:141,0
DA:142,0
DA:143,0
DA:144,0
DA:145,0
DA:146,0
DA:149,0
DA:150,0
DA:151,0
DA:157,0
DA:158,0
DA:159,0
DA:165,0
DA:166,0
DA:167,0
DA:168,0
DA:189,1
DA:190,1
DA:191,1
DA:195,1
DA:196,1
DA:197,1
DA:198,1
DA:199,1
DA:200,1
DA:201,1
DA:202,1
DA:203,1
DA:204,1
DA:205,1
DA:206,1
DA:207,1
DA:208,1
DA:209,1
DA:210,1
DA:211,1
DA:213,1
DA:214,1
DA:215,1
DA:217,1
DA:218,1
DA:219,1
DA:220,1
BRF:0
BRH:0
LF:77
LH:45
end_of_record
SF:/home/admin/Desktop/opensource/soroban-debugger/src/plugin/events.rs
FN:85,_RNvMNtNtCsjDzxbYtLkYp_16soroban_debugger6plugin6eventsNtB2_12EventContext3new
FN:96,_RNvXs_NtNtCsjDzxbYtLkYp_16soroban_debugger6plugin6eventsNtB4_12EventContextNtNtCslH02haMvknO_4core7default7Default7default
FN:85,_RNvMNtNtCs2jO2QXn3WZ6_16soroban_debugger6plugin6eventsNtB2_12EventContext3new
FN:96,_RNvXs_NtNtCs2jO2QXn3WZ6_16soroban_debugger6plugin6eventsNtB4_12EventContextNtNtCslH02haMvknO_4core7default7Default7default
FNDA:4,_RNvMNtNtCsjDzxbYtLkYp_16soroban_debugger6plugin6eventsNtB2_12EventContext3new
FNDA:0,_RNvXs_NtNtCsjDzxbYtLkYp_16soroban_debugger6plugin6eventsNtB4_12EventContextNtNtCslH02haMvknO_4core7default7Default7default
FNDA:0,_RNvMNtNtCs2jO2QXn3WZ6_16soroban_debugger6plugin6eventsNtB2_12EventContext3new
FNDA:0,_RNvXs_NtNtCs2jO2QXn3WZ6_16soroban_debugger6plugin6eventsNtB4_12EventContextNtNtCslH02haMvknO_4core7default7Default7default
FNF:2
FNH:1
DA:85,4
DA:86,4
DA:87,4
DA:88,4
DA:89,4
DA:90,4
DA:91,4
DA:92,4
DA:96,0
DA:97,0
DA:98,0
BRF:0
BRH:0
LF:11
LH:8
end_of_record
SF:/home/admin/Desktop/opensource/soroban-debugger/src/plugin/loader.rs
FN:107,_RNCNvMs_NtNtCsjDzxbYtLkYp_16soroban_debugger6plugin6loaderNtB6_12PluginLoader12load_library0Ba_
FN:141,_RNCNvMs_NtNtCsjDzxbYtLkYp_16soroban_debugger6plugin6loaderNtB6_12PluginLoader12load_librarys0_0Ba_
FN:114,_RNCNvMs_NtNtCsjDzxbYtLkYp_16soroban_debugger6plugin6loaderNtB6_12PluginLoader12load_librarys_0Ba_
FN:60,_RNCNvMs_NtNtCsjDzxbYtLkYp_16soroban_debugger6plugin6loaderNtB6_12PluginLoader18default_plugin_dir0Ba_
FN:73,_RNCNvMs_NtNtCsjDzxbYtLkYp_16soroban_debugger6plugin6loaderNtB6_12PluginLoader18load_from_manifest0Ba_
FN:82,_RNCNvMs_NtNtCsjDzxbYtLkYp_16soroban_debugger6plugin6loaderNtB6_12PluginLoader18load_from_manifests0_0Ba_
FN:77,_RNCNvMs_NtNtCsjDzxbYtLkYp_16soroban_debugger6plugin6loaderNtB6_12PluginLoader18load_from_manifests_0Ba_
FN:191,_RNCNvMs_NtNtCsjDzxbYtLkYp_16soroban_debugger6plugin6loaderNtB6_12PluginLoader8load_all0Ba_
FN:31,_RNvMNtNtCsjDzxbYtLkYp_16soroban_debugger6plugin6loaderNtB2_12LoadedPlugin10plugin_mut
FN:41,_RNvMNtNtCsjDzxbYtLkYp_16soroban_debugger6plugin6loaderNtB2_12LoadedPlugin4path
FN:26,_RNvMNtNtCsjDzxbYtLkYp_16soroban_debugger6plugin6loaderNtB2_12LoadedPlugin6plugin
FN:36,_RNvMNtNtCsjDzxbYtLkYp_16soroban_debugger6plugin6loaderNtB2_12LoadedPlugin8manifest
FN:98,_RNvMs_NtNtCsjDzxbYtLkYp_16soroban_debugger6plugin6loaderNtB4_12PluginLoader12load_library
FN:160,_RNvMs_NtNtCsjDzxbYtLkYp_16soroban_debugger6plugin6loaderNtB4_12PluginLoader16discover_plugins
FN:59,_RNvMs_NtNtCsjDzxbYtLkYp_16soroban_debugger6plugin6loaderNtB4_12PluginLoader18default_plugin_dir
FN:68,_RNvMs_NtNtCsjDzxbYtLkYp_16soroban_debugger6plugin6loaderNtB4_12PluginLoader18load_from_manifest
FN:54,_RNvMs_NtNtCsjDzxbYtLkYp_16soroban_debugger6plugin6loaderNtB4_12PluginLoader3new
FN:186,_RNvMs_NtNtCsjDzxbYtLkYp_16soroban_debugger6plugin6loaderNtB4_12PluginLoader8load_all
FN:197,_RNvXs0_NtNtCsjDzxbYtLkYp_16soroban_debugger6plugin6loaderNtB5_12LoadedPluginNtNtNtCslH02haMvknO_4core3ops4drop4Drop4drop
FN:107,_RNCNvMs_NtNtCs2jO2QXn3WZ6_16soroban_debugger6plugin6loaderNtB6_12PluginLoader12load_library0Ba_
FN:141,_RNCNvMs_NtNtCs2jO2QXn3WZ6_16soroban_debugger6plugin6loaderNtB6_12PluginLoader12load_librarys0_0Ba_
FN:114,_RNCNvMs_NtNtCs2jO2QXn3WZ6_16soroban_debugger6plugin6loaderNtB6_12PluginLoader12load_librarys_0Ba_
FN:73,_RNCNvMs_NtNtCs2jO2QXn3WZ6_16soroban_debugger6plugin6loaderNtB6_12PluginLoader18load_from_manifest0Ba_
FN:82,_RNCNvMs_NtNtCs2jO2QXn3WZ6_16soroban_debugger6plugin6loaderNtB6_12PluginLoader18load_from_manifests0_0Ba_
FN:77,_RNCNvMs_NtNtCs2jO2QXn3WZ6_16soroban_debugger6plugin6loaderNtB6_12PluginLoader18load_from_manifests_0Ba_
FN:191,_RNCNvMs_NtNtCs2jO2QXn3WZ6_16soroban_debugger6plugin6loaderNtB6_12PluginLoader8load_all0Ba_
FN:31,_RNvMNtNtCs2jO2QXn3WZ6_16soroban_debugger6plugin6loaderNtB2_12LoadedPlugin10plugin_mut
FN:41,_RNvMNtNtCs2jO2QXn3WZ6_16soroban_debugger6plugin6loaderNtB2_12LoadedPlugin4path
FN:26,_RNvMNtNtCs2jO2QXn3WZ6_16soroban_debugger6plugin6loaderNtB2_12LoadedPlugin6plugin
FN:98,_RNvMs_NtNtCs2jO2QXn3WZ6_16soroban_debugger6plugin6loaderNtB4_12PluginLoader12load_library
FN:160,_RNvMs_NtNtCs2jO2QXn3WZ6_16soroban_debugger6plugin6loaderNtB4_12PluginLoader16discover_plugins
FN:68,_RNvMs_NtNtCs2jO2QXn3WZ6_16soroban_debugger6plugin6loaderNtB4_12PluginLoader18load_from_manifest
FN:186,_RNvMs_NtNtCs2jO2QXn3WZ6_16soroban_debugger6plugin6loaderNtB4_12PluginLoader8load_all
FN:60,_RNCNvMs_NtNtCs2jO2QXn3WZ6_16soroban_debugger6plugin6loaderNtB6_12PluginLoader18default_plugin_dir0Ba_
FN:36,_RNvMNtNtCs2jO2QXn3WZ6_16soroban_debugger6plugin6loaderNtB2_12LoadedPlugin8manifest
FN:59,_RNvMs_NtNtCs2jO2QXn3WZ6_16soroban_debugger6plugin6loaderNtB4_12PluginLoader18default_plugin_dir
FN:54,_RNvMs_NtNtCs2jO2QXn3WZ6_16soroban_debugger6plugin6loaderNtB4_12PluginLoader3new
FN:197,_RNvXs0_NtNtCs2jO2QXn3WZ6_16soroban_debugger6plugin6loaderNtB5_12LoadedPluginNtNtNtCslH02haMvknO_4core3ops4drop4Drop4drop
FN:220,_RNvNtNtNtCs2jO2QXn3WZ6_16soroban_debugger6plugin6loader5testss_20test_loader_creation
FN:211,_RNvNtNtNtCs2jO2QXn3WZ6_16soroban_debugger6plugin6loader5testss_23test_default_plugin_dir
FNDA:0,_RNCNvMs_NtNtCsjDzxbYtLkYp_16soroban_debugger6plugin6loaderNtB6_12PluginLoader12load_library0Ba_
FNDA:0,_RNCNvMs_NtNtCsjDzxbYtLkYp_16soroban_debugger6plugin6loaderNtB6_12PluginLoader12load_librarys0_0Ba_
FNDA:0,_RNCNvMs_NtNtCsjDzxbYtLkYp_16soroban_debugger6plugin6loaderNtB6_12PluginLoader12load_librarys_0Ba_
FNDA:0,_RNCNvMs_NtNtCsjDzxbYtLkYp_16soroban_debugger6plugin6loaderNtB6_12PluginLoader18default_plugin_dir0Ba_
FNDA:0,_RNCNvMs_NtNtCsjDzxbYtLkYp_16soroban_debugger6plugin6loaderNtB6_12PluginLoader18load_from_manifest0Ba_
FNDA:0,_RNCNvMs_NtNtCsjDzxbYtLkYp_16soroban_debugger6plugin6loaderNtB6_12PluginLoader18load_from_manifests0_0Ba_
FNDA:0,_RNCNvMs_NtNtCsjDzxbYtLkYp_16soroban_debugger6plugin6loaderNtB6_12PluginLoader18load_from_manifests_0Ba_
FNDA:0,_RNCNvMs_NtNtCsjDzxbYtLkYp_16soroban_debugger6plugin6loaderNtB6_12PluginLoader8load_all0Ba_
FNDA:0,_RNvMNtNtCsjDzxbYtLkYp_16soroban_debugger6plugin6loaderNtB2_12LoadedPlugin10plugin_mut
FNDA:0,_RNvMNtNtCsjDzxbYtLkYp_16soroban_debugger6plugin6loaderNtB2_12LoadedPlugin4path
FNDA:0,_RNvMNtNtCsjDzxbYtLkYp_16soroban_debugger6plugin6loaderNtB2_12LoadedPlugin6plugin
FNDA:0,_RNvMNtNtCsjDzxbYtLkYp_16soroban_debugger6plugin6loaderNtB2_12LoadedPlugin8manifest
FNDA:0,_RNvMs_NtNtCsjDzxbYtLkYp_16soroban_debugger6plugin6loaderNtB4_12PluginLoader12load_library
FNDA:2,_RNvMs_NtNtCsjDzxbYtLkYp_16soroban_debugger6plugin6loaderNtB4_12PluginLoader16discover_plugins
FNDA:1,_RNvMs_NtNtCsjDzxbYtLkYp_16soroban_debugger6plugin6loaderNtB4_12PluginLoader18default_plugin_dir
FNDA:0,_RNvMs_NtNtCsjDzxbYtLkYp_16soroban_debugger6plugin6loaderNtB4_12PluginLoader18load_from_manifest
FNDA:3,_RNvMs_NtNtCsjDzxbYtLkYp_16soroban_debugger6plugin6loaderNtB4_12PluginLoader3new
FNDA:0,_RNvMs_NtNtCsjDzxbYtLkYp_16soroban_debugger6plugin6loaderNtB4_12PluginLoader8load_all
FNDA:0,_RNvXs0_NtNtCsjDzxbYtLkYp_16soroban_debugger6plugin6loaderNtB5_12LoadedPluginNtNtNtCslH02haMvknO_4core3ops4drop4Drop4drop
FNDA:0,_RNCNvMs_NtNtCs2jO2QXn3WZ6_16soroban_debugger6plugin6loaderNtB6_12PluginLoader12load_library0Ba_
FNDA:0,_RNCNvMs_NtNtCs2jO2QXn3WZ6_16soroban_debugger6plugin6loaderNtB6_12PluginLoader12load_librarys0_0Ba_
FNDA:0,_RNCNvMs_NtNtCs2jO2QXn3WZ6_16soroban_debugger6plugin6loaderNtB6_12PluginLoader12load_librarys_0Ba_
FNDA:0,_RNCNvMs_NtNtCs2jO2QXn3WZ6_16soroban_debugger6plugin6loaderNtB6_12PluginLoader18load_from_manifest0Ba_
FNDA:0,_RNCNvMs_NtNtCs2jO2QXn3WZ6_16soroban_debugger6plugin6loaderNtB6_12PluginLoader18load_from_manifests0_0Ba_
FNDA:0,_RNCNvMs_NtNtCs2jO2QXn3WZ6_16soroban_debugger6plugin6loaderNtB6_12PluginLoader18load_from_manifests_0Ba_
FNDA:0,_RNCNvMs_NtNtCs2jO2QXn3WZ6_16soroban_debugger6plugin6loaderNtB6_12PluginLoader8load_all0Ba_
FNDA:0,_RNvMNtNtCs2jO2QXn3WZ6_16soroban_debugger6plugin6loaderNtB2_12LoadedPlugin10plugin_mut
FNDA:0,_RNvMNtNtCs2jO2QXn3WZ6_16soroban_debugger6plugin6loaderNtB2_12LoadedPlugin4path
FNDA:0,_RNvMNtNtCs2jO2QXn3WZ6_16soroban_debugger6plugin6loaderNtB2_12LoadedPlugin6plugin
FNDA:0,_RNvMs_NtNtCs2jO2QXn3WZ6_16soroban_debugger6plugin6loaderNtB4_12PluginLoader12load_library
FNDA:0,_RNvMs_NtNtCs2jO2QXn3WZ6_16soroban_debugger6plugin6loaderNtB4_12PluginLoader16discover_plugins
FNDA:0,_RNvMs_NtNtCs2jO2QXn3WZ6_16soroban_debugger6plugin6loaderNtB4_12PluginLoader18load_from_manifest
FNDA:0,_RNvMs_NtNtCs2jO2QXn3WZ6_16soroban_debugger6plugin6loaderNtB4_12PluginLoader8load_all
FNDA:0,_RNCNvMs_NtNtCs2jO2QXn3WZ6_16soroban_debugger6plugin6loaderNtB6_12PluginLoader18default_plugin_dir0Ba_
FNDA:0,_RNvMNtNtCs2jO2QXn3WZ6_16soroban_debugger6plugin6loaderNtB2_12LoadedPlugin8manifest
FNDA:1,_RNvMs_NtNtCs2jO2QXn3WZ6_16soroban_debugger6plugin6loaderNtB4_12PluginLoader18default_plugin_dir
FNDA:3,_RNvMs_NtNtCs2jO2QXn3WZ6_16soroban_debugger6plugin6loaderNtB4_12PluginLoader3new
FNDA:0,_RNvXs0_NtNtCs2jO2QXn3WZ6_16soroban_debugger6plugin6loaderNtB5_12LoadedPluginNtNtNtCslH02haMvknO_4core3ops4drop4Drop4drop
FNDA:1,_RNvNtNtNtCs2jO2QXn3WZ6_16soroban_debugger6plugin6loader5testss_20test_loader_creation
FNDA:1,_RNvNtNtNtCs2jO2QXn3WZ6_16soroban_debugger6plugin6loader5testss_23test_default_plugin_dir
FNF:21
FNH:5
DA:26,0
DA:27,0
DA:28,0
DA:31,0
DA:32,0
DA:33,0
DA:36,0
DA:37,0
DA:38,0
DA:41,0
DA:42,0
DA:43,0
DA:54,6
DA:55,6
DA:56,6
DA:59,2
DA:60,2
DA:61,0
DA:62,0
DA:64,2
DA:65,2
DA:68,0
DA:69,0
DA:72,0
DA:73,0
DA:75,0
DA:76,0
DA:77,0
DA:80,0
DA:81,0
DA:82,0
DA:84,0
DA:86,0
DA:87,0
DA:88,0
DA:89,0
DA:90,0
DA:91,0
DA:94,0
DA:95,0
DA:98,0
DA:99,0
DA:100,0
DA:101,0
DA:102,0
DA:103,0
DA:107,0
DA:108,0
DA:109,0
DA:112,0
DA:113,0
DA:114,0
DA:115,0
DA:116,0
DA:117,0
DA:118,0
DA:119,0
DA:122,0
DA:123,0
DA:124,0
DA:125,0
DA:126,0
DA:127,0
DA:129,0
DA:132,0
DA:133,0
DA:134,0
DA:138,0
DA:141,0
DA:142,0
DA:143,0
DA:145,0
DA:150,0
DA:151,0
DA:152,0
DA:153,0
DA:154,0
DA:155,0
DA:157,0
DA:160,2
DA:161,2
DA:163,2
DA:164,0
DA:165,0
DA:166,2
DA:169,2
DA:170,2
DA:171,1
DA:172,1
DA:173,1
DA:174,1
DA:175,1
DA:176,1
DA:177,0
DA:179,0
DA:181,2
DA:182,2
DA:183,2
DA:186,0
DA:187,0
DA:189,0
DA:190,0
DA:191,0
DA:192,0
DA:193,0
DA:197,0
DA:198,0
DA:200,0
DA:201,0
DA:202,0
DA:203,0
DA:211,1
DA:212,1
DA:213,1
DA:215,1
DA:216,1
DA:217,1
DA:220,1
DA:221,1
DA:222,1
DA:223,1
DA:224,1
BRF:0
BRH:0
LF:134
LH:33
end_of_record
SF:/home/admin/Desktop/opensource/soroban-debugger/src/plugin/manifest.rs
FN:88,_RNvMNtNtCsjDzxbYtLkYp_16soroban_debugger6plugin8manifestNtB2_14PluginManifest15is_valid_semver
FN:61,_RNvMNtNtCsjDzxbYtLkYp_16soroban_debugger6plugin8manifestNtB2_14PluginManifest8validate
FN:53,_RNvMNtNtCsjDzxbYtLkYp_16soroban_debugger6plugin8manifestNtB2_14PluginManifest9from_file
FN:94,_RNCNvMNtNtCsjDzxbYtLkYp_16soroban_debugger6plugin8manifestNtB4_14PluginManifest15is_valid_semver0B8_
FN:55,_RNCNvMNtNtCsjDzxbYtLkYp_16soroban_debugger6plugin8manifestNtB4_14PluginManifest9from_file0B8_
FN:57,_RNCNvMNtNtCsjDzxbYtLkYp_16soroban_debugger6plugin8manifestNtB4_14PluginManifest9from_files_0B8_
FN:55,_RNCNvMNtNtCs2jO2QXn3WZ6_16soroban_debugger6plugin8manifestNtB4_14PluginManifest9from_file0B8_
FN:57,_RNCNvMNtNtCs2jO2QXn3WZ6_16soroban_debugger6plugin8manifestNtB4_14PluginManifest9from_files_0B8_
FN:53,_RNvMNtNtCs2jO2QXn3WZ6_16soroban_debugger6plugin8manifestNtB2_14PluginManifest9from_file
FN:94,_RNCNvMNtNtCs2jO2QXn3WZ6_16soroban_debugger6plugin8manifestNtB4_14PluginManifest15is_valid_semver0B8_
FN:88,_RNvMNtNtCs2jO2QXn3WZ6_16soroban_debugger6plugin8manifestNtB2_14PluginManifest15is_valid_semver
FN:61,_RNvMNtNtCs2jO2QXn3WZ6_16soroban_debugger6plugin8manifestNtB2_14PluginManifest8validate
FN:103,_RNvNtNtNtCs2jO2QXn3WZ6_16soroban_debugger6plugin8manifest5testss_17test_valid_semver
FN:120,_RNvNtNtNtCs2jO2QXn3WZ6_16soroban_debugger6plugin8manifest5testss_19test_invalid_semver
FNDA:3,_RNvMNtNtCsjDzxbYtLkYp_16soroban_debugger6plugin8manifestNtB2_14PluginManifest15is_valid_semver
FNDA:3,_RNvMNtNtCsjDzxbYtLkYp_16soroban_debugger6plugin8manifestNtB2_14PluginManifest8validate
FNDA:0,_RNvMNtNtCsjDzxbYtLkYp_16soroban_debugger6plugin8manifestNtB2_14PluginManifest9from_file
FNDA:6,_RNCNvMNtNtCsjDzxbYtLkYp_16soroban_debugger6plugin8manifestNtB4_14PluginManifest15is_valid_semver0B8_
FNDA:0,_RNCNvMNtNtCsjDzxbYtLkYp_16soroban_debugger6plugin8manifestNtB4_14PluginManifest9from_file0B8_
FNDA:0,_RNCNvMNtNtCsjDzxbYtLkYp_16soroban_debugger6plugin8manifestNtB4_14PluginManifest9from_files_0B8_
FNDA:0,_RNCNvMNtNtCs2jO2QXn3WZ6_16soroban_debugger6plugin8manifestNtB4_14PluginManifest9from_file0B8_
FNDA:0,_RNCNvMNtNtCs2jO2QXn3WZ6_16soroban_debugger6plugin8manifestNtB4_14PluginManifest9from_files_0B8_
FNDA:0,_RNvMNtNtCs2jO2QXn3WZ6_16soroban_debugger6plugin8manifestNtB2_14PluginManifest9from_file
FNDA:6,_RNCNvMNtNtCs2jO2QXn3WZ6_16soroban_debugger6plugin8manifestNtB4_14PluginManifest15is_valid_semver0B8_
FNDA:3,_RNvMNtNtCs2jO2QXn3WZ6_16soroban_debugger6plugin8manifestNtB2_14PluginManifest15is_valid_semver
FNDA:2,_RNvMNtNtCs2jO2QXn3WZ6_16soroban_debugger6plugin8manifestNtB2_14PluginManifest8validate
FNDA:1,_RNvNtNtNtCs2jO2QXn3WZ6_16soroban_debugger6plugin8manifest5testss_17test_valid_semver
FNDA:1,_RNvNtNtNtCs2jO2QXn3WZ6_16soroban_debugger6plugin8manifest5testss_19test_invalid_semver
FNF:8
FNH:5
DA:53,0
DA:54,0
DA:55,0
DA:57,0
DA:58,0
DA:61,5
DA:62,5
DA:63,1
DA:64,4
DA:66,4
DA:67,0
DA:68,4
DA:70,4
DA:71,0
DA:72,4
DA:75,4
DA:76,2
DA:77,2
DA:79,2
DA:80,2
DA:81,0
DA:82,2
DA:83,0
DA:85,2
DA:86,5
DA:88,6
DA:89,6
DA:90,6
DA:91,2
DA:92,4
DA:94,12
DA:95,6
DA:103,1
DA:104,1
DA:105,1
DA:106,1
DA:107,1
DA:108,1
DA:109,1
DA:110,1
DA:111,1
DA:112,1
DA:113,1
DA:114,1
DA:116,1
DA:117,1
DA:120,1
DA:121,1
DA:122,1
DA:123,1
DA:124,1
DA:125,1
DA:126,1
DA:127,1
DA:128,1
DA:129,1
DA:130,1
DA:131,1
DA:133,1
DA:134,1
BRF:0
BRH:0
LF:63
LH:52
end_of_record
SF:/home/admin/Desktop/opensource/soroban-debugger/src/plugin/registry.rs
FN:256,_RNvXs0_NtNtCsjDzxbYtLkYp_16soroban_debugger6plugin8registryNtB5_14PluginRegistryNtNtNtCslH02haMvknO_4core3ops4drop4Drop4drop
FN:121,_RNvMNtNtCsjDzxbYtLkYp_16soroban_debugger6plugin8registryNtB2_14PluginRegistry10get_plugin
FN:222,_RNvMNtNtCsjDzxbYtLkYp_16soroban_debugger6plugin8registryNtB2_14PluginRegistry10statistics
FN:216,_RNvMNtNtCsjDzxbYtLkYp_16soroban_debugger6plugin8registryNtB2_14PluginRegistry10unload_all
FN:131,_RNvMNtNtCsjDzxbYtLkYp_16soroban_debugger6plugin8registryNtB2_14PluginRegistry12plugin_count
FN:126,_RNvMNtNtCsjDzxbYtLkYp_16soroban_debugger6plugin8registryNtB2_14PluginRegistry12plugin_names
FN:154,_RNvMNtNtCsjDzxbYtLkYp_16soroban_debugger6plugin8registryNtB2_14PluginRegistry13reload_plugin
FN:136,_RNvMNtNtCsjDzxbYtLkYp_16soroban_debugger6plugin8registryNtB2_14PluginRegistry14dispatch_event
FN:94,_RNvMNtNtCsjDzxbYtLkYp_16soroban_debugger6plugin8registryNtB2_14PluginRegistry15register_plugin
FN:29,_RNvMNtNtCsjDzxbYtLkYp_16soroban_debugger6plugin8registryNtB2_14PluginRegistry15with_plugin_dir
FN:61,_RNvMNtNtCsjDzxbYtLkYp_16soroban_debugger6plugin8registryNtB2_14PluginRegistry16load_all_plugins
FN:49,_RNvMNtNtCsjDzxbYtLkYp_16soroban_debugger6plugin8registryNtB2_14PluginRegistry17enable_hot_reload
FN:55,_RNvMNtNtCsjDzxbYtLkYp_16soroban_debugger6plugin8registryNtB2_14PluginRegistry18disable_hot_reload
FN:23,_RNvMNtNtCsjDzxbYtLkYp_16soroban_debugger6plugin8registryNtB2_14PluginRegistry3new
FN:250,_RNvXs_NtNtCsjDzxbYtLkYp_16soroban_debugger6plugin8registryNtB4_14PluginRegistryNtNtCslH02haMvknO_4core7default7Default7default
FN:164,_RNCNvMNtNtCsjDzxbYtLkYp_16soroban_debugger6plugin8registryNtB4_14PluginRegistry13reload_plugin0B8_
FN:183,_RNCNvMNtNtCsjDzxbYtLkYp_16soroban_debugger6plugin8registryNtB4_14PluginRegistry13reload_plugins0_0B8_
FN:186,_RNCNvMNtNtCsjDzxbYtLkYp_16soroban_debugger6plugin8registryNtB4_14PluginRegistry13reload_plugins1_0B8_
FN:169,_RNCNvMNtNtCsjDzxbYtLkYp_16soroban_debugger6plugin8registryNtB4_14PluginRegistry13reload_plugins_0B8_
FN:33,_RNCNvMNtNtCsjDzxbYtLkYp_16soroban_debugger6plugin8registryNtB4_14PluginRegistry15with_plugin_dir0B8_
FN:164,_RNCNvMNtNtCs2jO2QXn3WZ6_16soroban_debugger6plugin8registryNtB4_14PluginRegistry13reload_plugin0B8_
FN:183,_RNCNvMNtNtCs2jO2QXn3WZ6_16soroban_debugger6plugin8registryNtB4_14PluginRegistry13reload_plugins0_0B8_
FN:186,_RNCNvMNtNtCs2jO2QXn3WZ6_16soroban_debugger6plugin8registryNtB4_14PluginRegistry13reload_plugins1_0B8_
FN:169,_RNCNvMNtNtCs2jO2QXn3WZ6_16soroban_debugger6plugin8registryNtB4_14PluginRegistry13reload_plugins_0B8_
FN:121,_RNvMNtNtCs2jO2QXn3WZ6_16soroban_debugger6plugin8registryNtB2_14PluginRegistry10get_plugin
FN:131,_RNvMNtNtCs2jO2QXn3WZ6_16soroban_debugger6plugin8registryNtB2_14PluginRegistry12plugin_count
FN:126,_RNvMNtNtCs2jO2QXn3WZ6_16soroban_debugger6plugin8registryNtB2_14PluginRegistry12plugin_names
FN:154,_RNvMNtNtCs2jO2QXn3WZ6_16soroban_debugger6plugin8registryNtB2_14PluginRegistry13reload_plugin
FN:136,_RNvMNtNtCs2jO2QXn3WZ6_16soroban_debugger6plugin8registryNtB2_14PluginRegistry14dispatch_event
FN:94,_RNvMNtNtCs2jO2QXn3WZ6_16soroban_debugger6plugin8registryNtB2_14PluginRegistry15register_plugin
FN:61,_RNvMNtNtCs2jO2QXn3WZ6_16soroban_debugger6plugin8registryNtB2_14PluginRegistry16load_all_plugins
FN:49,_RNvMNtNtCs2jO2QXn3WZ6_16soroban_debugger6plugin8registryNtB2_14PluginRegistry17enable_hot_reload
FN:55,_RNvMNtNtCs2jO2QXn3WZ6_16soroban_debugger6plugin8registryNtB2_14PluginRegistry18disable_hot_reload
FN:23,_RNvMNtNtCs2jO2QXn3WZ6_16soroban_debugger6plugin8registryNtB2_14PluginRegistry3new
FN:250,_RNvXs_NtNtCs2jO2QXn3WZ6_16soroban_debugger6plugin8registryNtB4_14PluginRegistryNtNtCslH02haMvknO_4core7default7Default7default
FN:33,_RNCNvMNtNtCs2jO2QXn3WZ6_16soroban_debugger6plugin8registryNtB4_14PluginRegistry15with_plugin_dir0B8_
FN:222,_RNvMNtNtCs2jO2QXn3WZ6_16soroban_debugger6plugin8registryNtB2_14PluginRegistry10statistics
FN:216,_RNvMNtNtCs2jO2QXn3WZ6_16soroban_debugger6plugin8registryNtB2_14PluginRegistry10unload_all
FN:29,_RNvMNtNtCs2jO2QXn3WZ6_16soroban_debugger6plugin8registryNtB2_14PluginRegistry15with_plugin_dir
FN:256,_RNvXs0_NtNtCs2jO2QXn3WZ6_16soroban_debugger6plugin8registryNtB5_14PluginRegistryNtNtNtCslH02haMvknO_4core3ops4drop4Drop4drop
FN:286,_RNvNtNtNtCs2jO2QXn3WZ6_16soroban_debugger6plugin8registry5testss_22test_plugin_statistics
FN:276,_RNvNtNtNtCs2jO2QXn3WZ6_16soroban_debugger6plugin8registry5testss_22test_registry_creation
FNDA:2,_RNvXs0_NtNtCsjDzxbYtLkYp_16soroban_debugger6plugin8registryNtB5_14PluginRegistryNtNtNtCslH02haMvknO_4core3ops4drop4Drop4drop
FNDA:0,_RNvMNtNtCsjDzxbYtLkYp_16soroban_debugger6plugin8registryNtB2_14PluginRegistry10get_plugin
FNDA:1,_RNvMNtNtCsjDzxbYtLkYp_16soroban_debugger6plugin8registryNtB2_14PluginRegistry10statistics
FNDA:2,_RNvMNtNtCsjDzxbYtLkYp_16soroban_debugger6plugin8registryNtB2_14PluginRegistry10unload_all
FNDA:1,_RNvMNtNtCsjDzxbYtLkYp_16soroban_debugger6plugin8registryNtB2_14PluginRegistry12plugin_count
FNDA:0,_RNvMNtNtCsjDzxbYtLkYp_16soroban_debugger6plugin8registryNtB2_14PluginRegistry12plugin_names
FNDA:0,_RNvMNtNtCsjDzxbYtLkYp_16soroban_debugger6plugin8registryNtB2_14PluginRegistry13reload_plugin
FNDA:0,_RNvMNtNtCsjDzxbYtLkYp_16soroban_debugger6plugin8registryNtB2_14PluginRegistry14dispatch_event
FNDA:0,_RNvMNtNtCsjDzxbYtLkYp_16soroban_debugger6plugin8registryNtB2_14PluginRegistry15register_plugin
FNDA:2,_RNvMNtNtCsjDzxbYtLkYp_16soroban_debugger6plugin8registryNtB2_14PluginRegistry15with_plugin_dir
FNDA:0,_RNvMNtNtCsjDzxbYtLkYp_16soroban_debugger6plugin8registryNtB2_14PluginRegistry16load_all_plugins
FNDA:0,_RNvMNtNtCsjDzxbYtLkYp_16soroban_debugger6plugin8registryNtB2_14PluginRegistry17enable_hot_reload
FNDA:0,_RNvMNtNtCsjDzxbYtLkYp_16soroban_debugger6plugin8registryNtB2_14PluginRegistry18disable_hot_reload
FNDA:0,_RNvMNtNtCsjDzxbYtLkYp_16soroban_debugger6plugin8registryNtB2_14PluginRegistry3new
FNDA:0,_RNvXs_NtNtCsjDzxbYtLkYp_16soroban_debugger6plugin8registryNtB4_14PluginRegistryNtNtCslH02haMvknO_4core7default7Default7default
FNDA:0,_RNCNvMNtNtCsjDzxbYtLkYp_16soroban_debugger6plugin8registryNtB4_14PluginRegistry13reload_plugin0B8_
FNDA:0,_RNCNvMNtNtCsjDzxbYtLkYp_16soroban_debugger6plugin8registryNtB4_14PluginRegistry13reload_plugins0_0B8_
FNDA:0,_RNCNvMNtNtCsjDzxbYtLkYp_16soroban_debugger6plugin8registryNtB4_14PluginRegistry13reload_plugins1_0B8_
FNDA:0,_RNCNvMNtNtCsjDzxbYtLkYp_16soroban_debugger6plugin8registryNtB4_14PluginRegistry13reload_plugins_0B8_
FNDA:0,_RNCNvMNtNtCsjDzxbYtLkYp_16soroban_debugger6plugin8registryNtB4_14PluginRegistry15with_plugin_dir0B8_
FNDA:0,_RNCNvMNtNtCs2jO2QXn3WZ6_16soroban_debugger6plugin8registryNtB4_14PluginRegistry13reload_plugin0B8_
FNDA:0,_RNCNvMNtNtCs2jO2QXn3WZ6_16soroban_debugger6plugin8registryNtB4_14PluginRegistry13reload_plugins0_0B8_
FNDA:0,_RNCNvMNtNtCs2jO2QXn3WZ6_16soroban_debugger6plugin8registryNtB4_14PluginRegistry13reload_plugins1_0B8_
FNDA:0,_RNCNvMNtNtCs2jO2QXn3WZ6_16soroban_debugger6plugin8registryNtB4_14PluginRegistry13reload_plugins_0B8_
FNDA:0,_RNvMNtNtCs2jO2QXn3WZ6_16soroban_debugger6plugin8registryNtB2_14PluginRegistry10get_plugin
FNDA:0,_RNvMNtNtCs2jO2QXn3WZ6_16soroban_debugger6plugin8registryNtB2_14PluginRegistry12plugin_count
FNDA:0,_RNvMNtNtCs2jO2QXn3WZ6_16soroban_debugger6plugin8registryNtB2_14PluginRegistry12plugin_names
FNDA:0,_RNvMNtNtCs2jO2QXn3WZ6_16soroban_debugger6plugin8registryNtB2_14PluginRegistry13reload_plugin
FNDA:0,_RNvMNtNtCs2jO2QXn3WZ6_16soroban_debugger6plugin8registryNtB2_14PluginRegistry14dispatch_event
FNDA:0,_RNvMNtNtCs2jO2QXn3WZ6_16soroban_debugger6plugin8registryNtB2_14PluginRegistry15register_plugin
FNDA:0,_RNvMNtNtCs2jO2QXn3WZ6_16soroban_debugger6plugin8registryNtB2_14PluginRegistry16load_all_plugins
FNDA:0,_RNvMNtNtCs2jO2QXn3WZ6_16soroban_debugger6plugin8registryNtB2_14PluginRegistry17enable_hot_reload
FNDA:0,_RNvMNtNtCs2jO2QXn3WZ6_16soroban_debugger6plugin8registryNtB2_14PluginRegistry18disable_hot_reload
FNDA:0,_RNvMNtNtCs2jO2QXn3WZ6_16soroban_debugger6plugin8registryNtB2_14PluginRegistry3new
FNDA:0,_RNvXs_NtNtCs2jO2QXn3WZ6_16soroban_debugger6plugin8registryNtB4_14PluginRegistryNtNtCslH02haMvknO_4core7default7Default7default
FNDA:0,_RNCNvMNtNtCs2jO2QXn3WZ6_16soroban_debugger6plugin8registryNtB4_14PluginRegistry15with_plugin_dir0B8_
FNDA:1,_RNvMNtNtCs2jO2QXn3WZ6_16soroban_debugger6plugin8registryNtB2_14PluginRegistry10statistics
FNDA:2,_RNvMNtNtCs2jO2QXn3WZ6_16soroban_debugger6plugin8registryNtB2_14PluginRegistry10unload_all
FNDA:2,_RNvMNtNtCs2jO2QXn3WZ6_16soroban_debugger6plugin8registryNtB2_14PluginRegistry15with_plugin_dir
FNDA:2,_RNvXs0_NtNtCs2jO2QXn3WZ6_16soroban_debugger6plugin8registryNtB5_14PluginRegistryNtNtNtCslH02haMvknO_4core3ops4drop4Drop4drop
FNDA:1,_RNvNtNtNtCs2jO2QXn3WZ6_16soroban_debugger6plugin8registry5testss_22test_plugin_statistics
FNDA:1,_RNvNtNtNtCs2jO2QXn3WZ6_16soroban_debugger6plugin8registry5testss_22test_registry_creation
FNF:22
FNH:7
DA:23,0
DA:24,0
DA:25,0
DA:26,0
DA:29,4
DA:31,4
DA:32,2
DA:33,2
DA:34,0
DA:35,0
DA:36,0
DA:37,0
DA:38,0
DA:39,2
DA:41,4
DA:42,4
DA:43,4
DA:44,4
DA:45,4
DA:46,4
DA:49,0
DA:50,0
DA:51,0
DA:52,0
DA:55,0
DA:56,0
DA:57,0
DA:58,0
DA:61,0
DA:62,0
DA:64,0
DA:65,0
DA:67,0
DA:68,0
DA:69,0
DA:70,0
DA:71,0
DA:73,0
DA:74,0
DA:76,0
DA:77,0
DA:78,0
DA:82,0
DA:83,0
DA:84,0
DA:89,0
DA:90,0
DA:91,0
DA:94,0
DA:95,0
DA:98,0
DA:99,0
DA:100,0
DA:101,0
DA:102,0
DA:103,0
DA:106,0
DA:107,0
DA:108,0
DA:109,0
DA:110,0
DA:111,0
DA:112,0
DA:115,0
DA:116,0
DA:117,0
DA:118,0
DA:121,0
DA:122,0
DA:123,0
DA:126,0
DA:127,0
DA:128,0
DA:131,1
DA:132,1
DA:133,1
DA:136,0
DA:137,0
DA:139,0
DA:140,0
DA:141,0
DA:142,0
DA:143,0
DA:144,0
DA:146,0
DA:148,0
DA:151,0
DA:154,0
DA:155,0
DA:156,0
DA:157,0
DA:158,0
DA:159,0
DA:161,0
DA:162,0
DA:163,0
DA:164,0
DA:165,0
DA:168,0
DA:169,0
DA:170,0
DA:171,0
DA:173,0
DA:174,0
DA:175,0
DA:176,0
DA:177,0
DA:178,0
DA:180,0
DA:181,0
DA:182,0
DA:183,0
DA:184,0
DA:186,0
DA:187,0
DA:188,0
DA:190,0
DA:194,0
DA:197,0
DA:198,0
DA:200,0
DA:201,0
DA:202,0
DA:204,0
DA:205,0
DA:206,0
DA:208,0
DA:209,0
DA:210,0
DA:213,0
DA:216,4
DA:217,4
DA:218,4
DA:219,4
DA:222,2
DA:223,2
DA:225,2
DA:226,0
DA:227,0
DA:229,0
DA:230,0
DA:231,0
DA:232,0
DA:233,0
DA:234,0
DA:235,0
DA:236,0
DA:237,0
DA:238,0
DA:239,0
DA:240,0
DA:241,0
DA:244,2
DA:245,2
DA:246,2
DA:250,0
DA:251,0
DA:252,0
DA:256,4
DA:257,4
DA:258,4
DA:276,1
DA:277,1
DA:278,1
DA:279,1
DA:282,1
DA:283,1
DA:286,1
DA:287,1
DA:288,1
DA:290,1
DA:291,1
DA:292,1
DA:295,1
DA:296,1
BRF:0
BRH:0
LF:183
LH:40
end_of_record
SF:/home/admin/Desktop/opensource/soroban-debugger/src/profiler/analyzer.rs
FN:176,_RNCNCNvMs_NtNtCsjDzxbYtLkYp_16soroban_debugger8profiler8analyzerNtB8_12GasOptimizer15generate_reports0_00Bc_
FN:184,_RNCNCNvMs_NtNtCsjDzxbYtLkYp_16soroban_debugger8profiler8analyzerNtB8_12GasOptimizer15generate_reports0_0s_0Bc_
FN:420,_RNCNvMs0_NtNtCsjDzxbYtLkYp_16soroban_debugger8profiler8analyzerNtB7_18OptimizationReport15format_hotspots0Bb_
FN:426,_RNCNvMs0_NtNtCsjDzxbYtLkYp_16soroban_debugger8profiler8analyzerNtB7_18OptimizationReport15format_hotspotss0_0Bb_
FN:423,_RNCNvMs0_NtNtCsjDzxbYtLkYp_16soroban_debugger8profiler8analyzerNtB7_18OptimizationReport15format_hotspotss_0Bb_
FN:175,_RNCNvMs_NtNtCsjDzxbYtLkYp_16soroban_debugger8profiler8analyzerNtB6_12GasOptimizer15generate_reports0_0Ba_
FN:99,_RNCNvMs_NtNtCsjDzxbYtLkYp_16soroban_debugger8profiler8analyzerNtB6_12GasOptimizer16analyze_function0Ba_
FN:357,_RNCNvMs_NtNtCsjDzxbYtLkYp_16soroban_debugger8profiler8analyzerNtB6_12GasOptimizer24generate_markdown_report0Ba_
FN:416,_RNvMs0_NtNtCsjDzxbYtLkYp_16soroban_debugger8profiler8analyzerNtB5_18OptimizationReport15format_hotspots
FN:161,_RNvMs_NtNtCsjDzxbYtLkYp_16soroban_debugger8profiler8analyzerNtB4_12GasOptimizer15generate_report
FN:89,_RNvMs_NtNtCsjDzxbYtLkYp_16soroban_debugger8profiler8analyzerNtB4_12GasOptimizer16analyze_function
FN:314,_RNvMs_NtNtCsjDzxbYtLkYp_16soroban_debugger8profiler8analyzerNtB4_12GasOptimizer24generate_markdown_report
FN:257,_RNvMs_NtNtCsjDzxbYtLkYp_16soroban_debugger8profiler8analyzerNtB4_12GasOptimizer25analyze_redundant_storage
FN:296,_RNvMs_NtNtCsjDzxbYtLkYp_16soroban_debugger8profiler8analyzerNtB4_12GasOptimizer25analyze_type_alternatives
FN:206,_RNvMs_NtNtCsjDzxbYtLkYp_16soroban_debugger8profiler8analyzerNtB4_12GasOptimizer28analyze_expensive_operations
FN:82,_RNvMs_NtNtCsjDzxbYtLkYp_16soroban_debugger8profiler8analyzerNtB4_12GasOptimizer3new
FN:55,_RNvXNtNtCsjDzxbYtLkYp_16soroban_debugger8profiler8analyzerNtB2_8PriorityNtNtCslH02haMvknO_4core3fmt7Display3fmt
FN:176,_RNCNCNvMs_NtNtCs2jO2QXn3WZ6_16soroban_debugger8profiler8analyzerNtB8_12GasOptimizer15generate_reports0_00Bc_
FN:184,_RNCNCNvMs_NtNtCs2jO2QXn3WZ6_16soroban_debugger8profiler8analyzerNtB8_12GasOptimizer15generate_reports0_0s_0Bc_
FN:420,_RNCNvMs0_NtNtCs2jO2QXn3WZ6_16soroban_debugger8profiler8analyzerNtB7_18OptimizationReport15format_hotspots0Bb_
FN:426,_RNCNvMs0_NtNtCs2jO2QXn3WZ6_16soroban_debugger8profiler8analyzerNtB7_18OptimizationReport15format_hotspotss0_0Bb_
FN:423,_RNCNvMs0_NtNtCs2jO2QXn3WZ6_16soroban_debugger8profiler8analyzerNtB7_18OptimizationReport15format_hotspotss_0Bb_
FN:175,_RNCNvMs_NtNtCs2jO2QXn3WZ6_16soroban_debugger8profiler8analyzerNtB6_12GasOptimizer15generate_reports0_0Ba_
FN:99,_RNCNvMs_NtNtCs2jO2QXn3WZ6_16soroban_debugger8profiler8analyzerNtB6_12GasOptimizer16analyze_function0Ba_
FN:357,_RNCNvMs_NtNtCs2jO2QXn3WZ6_16soroban_debugger8profiler8analyzerNtB6_12GasOptimizer24generate_markdown_report0Ba_
FN:416,_RNvMs0_NtNtCs2jO2QXn3WZ6_16soroban_debugger8profiler8analyzerNtB5_18OptimizationReport15format_hotspots
FN:161,_RNvMs_NtNtCs2jO2QXn3WZ6_16soroban_debugger8profiler8analyzerNtB4_12GasOptimizer15generate_report
FN:89,_RNvMs_NtNtCs2jO2QXn3WZ6_16soroban_debugger8profiler8analyzerNtB4_12GasOptimizer16analyze_function
FN:314,_RNvMs_NtNtCs2jO2QXn3WZ6_16soroban_debugger8profiler8analyzerNtB4_12GasOptimizer24generate_markdown_report
FN:257,_RNvMs_NtNtCs2jO2QXn3WZ6_16soroban_debugger8profiler8analyzerNtB4_12GasOptimizer25analyze_redundant_storage
FN:296,_RNvMs_NtNtCs2jO2QXn3WZ6_16soroban_debugger8profiler8analyzerNtB4_12GasOptimizer25analyze_type_alternatives
FN:206,_RNvMs_NtNtCs2jO2QXn3WZ6_16soroban_debugger8profiler8analyzerNtB4_12GasOptimizer28analyze_expensive_operations
FN:82,_RNvMs_NtNtCs2jO2QXn3WZ6_16soroban_debugger8profiler8analyzerNtB4_12GasOptimizer3new
FN:55,_RNvXNtNtCs2jO2QXn3WZ6_16soroban_debugger8profiler8analyzerNtB2_8PriorityNtNtCslH02haMvknO_4core3fmt7Display3fmt
FNDA:0,_RNCNCNvMs_NtNtCsjDzxbYtLkYp_16soroban_debugger8profiler8analyzerNtB8_12GasOptimizer15generate_reports0_00Bc_
FNDA:0,_RNCNCNvMs_NtNtCsjDzxbYtLkYp_16soroban_debugger8profiler8analyzerNtB8_12GasOptimizer15generate_reports0_0s_0Bc_
FNDA:0,_RNCNvMs0_NtNtCsjDzxbYtLkYp_16soroban_debugger8profiler8analyzerNtB7_18OptimizationReport15format_hotspots0Bb_
FNDA:0,_RNCNvMs0_NtNtCsjDzxbYtLkYp_16soroban_debugger8profiler8analyzerNtB7_18OptimizationReport15format_hotspotss0_0Bb_
FNDA:0,_RNCNvMs0_NtNtCsjDzxbYtLkYp_16soroban_debugger8profiler8analyzerNtB7_18OptimizationReport15format_hotspotss_0Bb_
FNDA:0,_RNCNvMs_NtNtCsjDzxbYtLkYp_16soroban_debugger8profiler8analyzerNtB6_12GasOptimizer15generate_reports0_0Ba_
FNDA:0,_RNCNvMs_NtNtCsjDzxbYtLkYp_16soroban_debugger8profiler8analyzerNtB6_12GasOptimizer16analyze_function0Ba_
FNDA:0,_RNCNvMs_NtNtCsjDzxbYtLkYp_16soroban_debugger8profiler8analyzerNtB6_12GasOptimizer24generate_markdown_report0Ba_
FNDA:0,_RNvMs0_NtNtCsjDzxbYtLkYp_16soroban_debugger8profiler8analyzerNtB5_18OptimizationReport15format_hotspots
FNDA:0,_RNvMs_NtNtCsjDzxbYtLkYp_16soroban_debugger8profiler8analyzerNtB4_12GasOptimizer15generate_report
FNDA:0,_RNvMs_NtNtCsjDzxbYtLkYp_16soroban_debugger8profiler8analyzerNtB4_12GasOptimizer16analyze_function
FNDA:0,_RNvMs_NtNtCsjDzxbYtLkYp_16soroban_debugger8profiler8analyzerNtB4_12GasOptimizer24generate_markdown_report
FNDA:0,_RNvMs_NtNtCsjDzxbYtLkYp_16soroban_debugger8profiler8analyzerNtB4_12GasOptimizer25analyze_redundant_storage
FNDA:0,_RNvMs_NtNtCsjDzxbYtLkYp_16soroban_debugger8profiler8analyzerNtB4_12GasOptimizer25analyze_type_alternatives
FNDA:0,_RNvMs_NtNtCsjDzxbYtLkYp_16soroban_debugger8profiler8analyzerNtB4_12GasOptimizer28analyze_expensive_operations
FNDA:0,_RNvMs_NtNtCsjDzxbYtLkYp_16soroban_debugger8profiler8analyzerNtB4_12GasOptimizer3new
FNDA:0,_RNvXNtNtCsjDzxbYtLkYp_16soroban_debugger8profiler8analyzerNtB2_8PriorityNtNtCslH02haMvknO_4core3fmt7Display3fmt
FNDA:0,_RNCNCNvMs_NtNtCs2jO2QXn3WZ6_16soroban_debugger8profiler8analyzerNtB8_12GasOptimizer15generate_reports0_00Bc_
FNDA:0,_RNCNCNvMs_NtNtCs2jO2QXn3WZ6_16soroban_debugger8profiler8analyzerNtB8_12GasOptimizer15generate_reports0_0s_0Bc_
FNDA:0,_RNCNvMs0_NtNtCs2jO2QXn3WZ6_16soroban_debugger8profiler8analyzerNtB7_18OptimizationReport15format_hotspots0Bb_
FNDA:0,_RNCNvMs0_NtNtCs2jO2QXn3WZ6_16soroban_debugger8profiler8analyzerNtB7_18OptimizationReport15format_hotspotss0_0Bb_
FNDA:0,_RNCNvMs0_NtNtCs2jO2QXn3WZ6_16soroban_debugger8profiler8analyzerNtB7_18OptimizationReport15format_hotspotss_0Bb_
FNDA:0,_RNCNvMs_NtNtCs2jO2QXn3WZ6_16soroban_debugger8profiler8analyzerNtB6_12GasOptimizer15generate_reports0_0Ba_
FNDA:0,_RNCNvMs_NtNtCs2jO2QXn3WZ6_16soroban_debugger8profiler8analyzerNtB6_12GasOptimizer16analyze_function0Ba_
FNDA:0,_RNCNvMs_NtNtCs2jO2QXn3WZ6_16soroban_debugger8profiler8analyzerNtB6_12GasOptimizer24generate_markdown_report0Ba_
FNDA:0,_RNvMs0_NtNtCs2jO2QXn3WZ6_16soroban_debugger8profiler8analyzerNtB5_18OptimizationReport15format_hotspots
FNDA:0,_RNvMs_NtNtCs2jO2QXn3WZ6_16soroban_debugger8profiler8analyzerNtB4_12GasOptimizer15generate_report
FNDA:0,_RNvMs_NtNtCs2jO2QXn3WZ6_16soroban_debugger8profiler8analyzerNtB4_12GasOptimizer16analyze_function
FNDA:0,_RNvMs_NtNtCs2jO2QXn3WZ6_16soroban_debugger8profiler8analyzerNtB4_12GasOptimizer24generate_markdown_report
FNDA:0,_RNvMs_NtNtCs2jO2QXn3WZ6_16soroban_debugger8profiler8analyzerNtB4_12GasOptimizer25analyze_redundant_storage
FNDA:0,_RNvMs_NtNtCs2jO2QXn3WZ6_16soroban_debugger8profiler8analyzerNtB4_12GasOptimizer25analyze_type_alternatives
FNDA:0,_RNvMs_NtNtCs2jO2QXn3WZ6_16soroban_debugger8profiler8analyzerNtB4_12GasOptimizer28analyze_expensive_operations
FNDA:0,_RNvMs_NtNtCs2jO2QXn3WZ6_16soroban_debugger8profiler8analyzerNtB4_12GasOptimizer3new
FNDA:0,_RNvXNtNtCs2jO2QXn3WZ6_16soroban_debugger8profiler8analyzerNtB2_8PriorityNtNtCslH02haMvknO_4core3fmt7Display3fmt
FNF:17
FNH:0
DA:55,0
DA:56,0
DA:57,0
DA:58,0
DA:59,0
DA:60,0
DA:62,0
DA:82,0
DA:83,0
DA:84,0
DA:85,0
DA:86,0
DA:87,0
DA:89,0
DA:90,0
DA:91,0
DA:92,0
DA:93,0
DA:94,0
DA:96,0
DA:97,0
DA:99,0
DA:100,0
DA:101,0
DA:104,0
DA:105,0
DA:106,0
DA:107,0
DA:109,0
DA:110,0
DA:111,0
DA:112,0
DA:113,0
DA:115,0
DA:116,0
DA:117,0
DA:118,0
DA:119,0
DA:120,0
DA:121,0
DA:122,0
DA:123,0
DA:124,0
DA:125,0
DA:129,0
DA:130,0
DA:131,0
DA:132,0
DA:133,0
DA:134,0
DA:135,0
DA:136,0
DA:137,0
DA:138,0
DA:141,0
DA:142,0
DA:143,0
DA:147,0
DA:148,0
DA:149,0
DA:150,0
DA:151,0
DA:152,0
DA:153,0
DA:154,0
DA:156,0
DA:157,0
DA:158,0
DA:159,0
DA:161,0
DA:162,0
DA:164,0
DA:165,0
DA:167,0
DA:169,0
DA:170,0
DA:171,0
DA:172,0
DA:173,0
DA:175,0
DA:176,0
DA:177,0
DA:178,0
DA:179,0
DA:180,0
DA:181,0
DA:182,0
DA:183,0
DA:184,0
DA:185,0
DA:186,0
DA:187,0
DA:188,0
DA:189,0
DA:191,0
DA:192,0
DA:193,0
DA:195,0
DA:196,0
DA:197,0
DA:198,0
DA:199,0
DA:200,0
DA:201,0
DA:202,0
DA:203,0
DA:204,0
DA:206,0
DA:207,0
DA:208,0
DA:209,0
DA:210,0
DA:212,0
DA:213,0
DA:214,0
DA:215,0
DA:216,0
DA:220,0
DA:222,0
DA:223,0
DA:224,0
DA:225,0
DA:226,0
DA:228,0
DA:231,0
DA:233,0
DA:234,0
DA:235,0
DA:236,0
DA:237,0
DA:242,0
DA:243,0
DA:244,0
DA:245,0
DA:246,0
DA:247,0
DA:249,0
DA:252,0
DA:254,0
DA:255,0
DA:257,0
DA:258,0
DA:260,0
DA:261,0
DA:262,0
DA:263,0
DA:265,0
DA:266,0
DA:267,0
DA:268,0
DA:272,0
DA:274,0
DA:277,0
DA:278,0
DA:279,0
DA:280,0
DA:282,0
DA:283,0
DA:284,0
DA:285,0
DA:287,0
DA:290,0
DA:293,0
DA:294,0
DA:296,0
DA:297,0
DA:299,0
DA:300,0
DA:301,0
DA:302,0
DA:303,0
DA:304,0
DA:305,0
DA:306,0
DA:307,0
DA:308,0
DA:309,0
DA:311,0
DA:312,0
DA:314,0
DA:315,0
DA:317,0
DA:318,0
DA:319,0
DA:320,0
DA:322,0
DA:323,0
DA:324,0
DA:325,0
DA:326,0
DA:327,0
DA:331,0
DA:332,0
DA:333,0
DA:337,0
DA:338,0
DA:340,0
DA:341,0
DA:342,0
DA:343,0
DA:344,0
DA:345,0
DA:346,0
DA:347,0
DA:348,0
DA:350,0
DA:351,0
DA:352,0
DA:353,0
DA:354,0
DA:356,0
DA:357,0
DA:358,0
DA:359,0
DA:361,0
DA:362,0
DA:363,0
DA:364,0
DA:365,0
DA:366,0
DA:367,0
DA:368,0
DA:369,0
DA:370,0
DA:373,0
DA:374,0
DA:376,0
DA:377,0
DA:378,0
DA:379,0
DA:380,0
DA:381,0
DA:382,0
DA:383,0
DA:384,0
DA:385,0
DA:386,0
DA:387,0
DA:388,0
DA:389,0
DA:390,0
DA:391,0
DA:392,0
DA:393,0
DA:394,0
DA:395,0
DA:396,0
DA:397,0
DA:398,0
DA:399,0
DA:400,0
DA:401,0
DA:402,0
DA:403,0
DA:404,0
DA:405,0
DA:406,0
DA:407,0
DA:410,0
DA:411,0
DA:416,0
DA:417,0
DA:419,0
DA:420,0
DA:422,0
DA:423,0
DA:425,0
DA:426,0
DA:428,0
DA:429,0
DA:434,0
DA:435,0
DA:436,0
DA:437,0
DA:438,0
DA:439,0
DA:440,0
DA:441,0
DA:443,0
DA:444,0
DA:445,0
DA:446,0
DA:447,0
DA:448,0
DA:449,0
DA:450,0
DA:452,0
DA:453,0
DA:454,0
DA:455,0
DA:456,0
DA:457,0
DA:458,0
DA:459,0
DA:461,0
DA:462,0
BRF:0
BRH:0
LF:304
LH:0
end_of_record
SF:/home/admin/Desktop/opensource/soroban-debugger/src/profiler/session.rs
FN:18,_RNvMNtNtCsjDzxbYtLkYp_16soroban_debugger8profiler7sessionNtB2_14ProfileSession5start
FN:28,_RNvMNtNtCsjDzxbYtLkYp_16soroban_debugger8profiler7sessionNtB2_14ProfileSession6finish
FN:18,_RNvMNtNtCs2jO2QXn3WZ6_16soroban_debugger8profiler7sessionNtB2_14ProfileSession5start
FN:28,_RNvMNtNtCs2jO2QXn3WZ6_16soroban_debugger8profiler7sessionNtB2_14ProfileSession6finish
FNDA:0,_RNvMNtNtCsjDzxbYtLkYp_16soroban_debugger8profiler7sessionNtB2_14ProfileSession5start
FNDA:0,_RNvMNtNtCsjDzxbYtLkYp_16soroban_debugger8profiler7sessionNtB2_14ProfileSession6finish
FNDA:0,_RNvMNtNtCs2jO2QXn3WZ6_16soroban_debugger8profiler7sessionNtB2_14ProfileSession5start
FNDA:0,_RNvMNtNtCs2jO2QXn3WZ6_16soroban_debugger8profiler7sessionNtB2_14ProfileSession6finish
FNF:2
FNH:0
DA:18,0
DA:19,0
DA:21,0
DA:22,0
DA:23,0
DA:24,0
DA:25,0
DA:26,0
DA:28,0
DA:29,0
DA:31,0
DA:32,0
DA:33,0
DA:34,0
DA:35,0
DA:36,0
BRF:0
BRH:0
LF:16
LH:0
end_of_record
SF:/home/admin/Desktop/opensource/soroban-debugger/src/repeat.rs
FN:211,_RNvNtCsjDzxbYtLkYp_16soroban_debugger6repeat8truncate
FN:107,_RNvMNtCsjDzxbYtLkYp_16soroban_debugger6repeatNtB2_14AggregateStats7display
FN:35,_RNvMNtCsjDzxbYtLkYp_16soroban_debugger6repeatNtB2_14AggregateStats9from_runs
FN:228,_RNvMs_NtCsjDzxbYtLkYp_16soroban_debugger6repeatNtB4_12RepeatRunner3new
FN:241,_RNvMs_NtCsjDzxbYtLkYp_16soroban_debugger6repeatNtB4_12RepeatRunner3run
FN:228,_RNvMs_NtCs2jO2QXn3WZ6_16soroban_debugger6repeatNtB4_12RepeatRunner3new
FN:241,_RNvMs_NtCs2jO2QXn3WZ6_16soroban_debugger6repeatNtB4_12RepeatRunner3run
FN:107,_RNvMNtCs2jO2QXn3WZ6_16soroban_debugger6repeatNtB2_14AggregateStats7display
FN:35,_RNvMNtCs2jO2QXn3WZ6_16soroban_debugger6repeatNtB2_14AggregateStats9from_runs
FN:211,_RNvNtCs2jO2QXn3WZ6_16soroban_debugger6repeat8truncate
FN:293,_RNvNtNtCs2jO2QXn3WZ6_16soroban_debugger6repeat5tests11make_budget
FN:302,_RNvNtNtCs2jO2QXn3WZ6_16soroban_debugger6repeat5tests8make_run
FN:361,_RNvNtNtCs2jO2QXn3WZ6_16soroban_debugger6repeat5testss_23test_consistent_results
FN:312,_RNvNtNtCs2jO2QXn3WZ6_16soroban_debugger6repeat5testss_25test_aggregate_single_run
FN:388,_RNvNtNtCs2jO2QXn3WZ6_16soroban_debugger6repeat5testss_25test_truncate_long_string
FN:383,_RNvNtNtCs2jO2QXn3WZ6_16soroban_debugger6repeat5testss_26test_truncate_short_string
FN:372,_RNvNtNtCs2jO2QXn3WZ6_16soroban_debugger6repeat5testss_27test_display_does_not_panic
FN:329,_RNvNtNtCs2jO2QXn3WZ6_16soroban_debugger6repeat5testss_28test_aggregate_multiple_runs
FN:350,_RNvNtNtCs2jO2QXn3WZ6_16soroban_debugger6repeat5testss_34test_inconsistent_results_detected
FNDA:0,_RNvNtCsjDzxbYtLkYp_16soroban_debugger6repeat8truncate
FNDA:0,_RNvMNtCsjDzxbYtLkYp_16soroban_debugger6repeatNtB2_14AggregateStats7display
FNDA:0,_RNvMNtCsjDzxbYtLkYp_16soroban_debugger6repeatNtB2_14AggregateStats9from_runs
FNDA:1,_RNvMs_NtCsjDzxbYtLkYp_16soroban_debugger6repeatNtB4_12RepeatRunner3new
FNDA:1,_RNvMs_NtCsjDzxbYtLkYp_16soroban_debugger6repeatNtB4_12RepeatRunner3run
FNDA:0,_RNvMs_NtCs2jO2QXn3WZ6_16soroban_debugger6repeatNtB4_12RepeatRunner3new
FNDA:0,_RNvMs_NtCs2jO2QXn3WZ6_16soroban_debugger6repeatNtB4_12RepeatRunner3run
FNDA:1,_RNvMNtCs2jO2QXn3WZ6_16soroban_debugger6repeatNtB2_14AggregateStats7display
FNDA:5,_RNvMNtCs2jO2QXn3WZ6_16soroban_debugger6repeatNtB2_14AggregateStats9from_runs
FNDA:2,_RNvNtCs2jO2QXn3WZ6_16soroban_debugger6repeat8truncate
FNDA:10,_RNvNtNtCs2jO2QXn3WZ6_16soroban_debugger6repeat5tests11make_budget
FNDA:10,_RNvNtNtCs2jO2QXn3WZ6_16soroban_debugger6repeat5tests8make_run
FNDA:1,_RNvNtNtCs2jO2QXn3WZ6_16soroban_debugger6repeat5testss_23test_consistent_results
FNDA:1,_RNvNtNtCs2jO2QXn3WZ6_16soroban_debugger6repeat5testss_25test_aggregate_single_run
FNDA:1,_RNvNtNtCs2jO2QXn3WZ6_16soroban_debugger6repeat5testss_25test_truncate_long_string
FNDA:1,_RNvNtNtCs2jO2QXn3WZ6_16soroban_debugger6repeat5testss_26test_truncate_short_string
FNDA:1,_RNvNtNtCs2jO2QXn3WZ6_16soroban_debugger6repeat5testss_27test_display_does_not_panic
FNDA:1,_RNvNtNtCs2jO2QXn3WZ6_16soroban_debugger6repeat5testss_28test_aggregate_multiple_runs
FNDA:1,_RNvNtNtCs2jO2QXn3WZ6_16soroban_debugger6repeat5testss_34test_inconsistent_results_detected
FNF:14
FNH:14
DA:35,5
DA:36,5
DA:38,5
DA:40,5
DA:41,5
DA:42,5
DA:44,5
DA:45,5
DA:46,5
DA:48,5
DA:49,5
DA:50,5
DA:52,5
DA:53,5
DA:55,10
DA:57,10
DA:58,0
DA:59,10
DA:60,10
DA:61,3
DA:62,7
DA:63,10
DA:66,10
DA:67,10
DA:68,0
DA:69,10
DA:70,10
DA:71,3
DA:72,7
DA:73,10
DA:76,10
DA:77,10
DA:78,0
DA:79,10
DA:80,10
DA:81,3
DA:82,7
DA:83,10
DA:86,10
DA:87,2
DA:88,8
DA:91,5
DA:92,5
DA:93,5
DA:94,5
DA:95,5
DA:96,5
DA:97,5
DA:98,5
DA:99,5
DA:100,5
DA:101,5
DA:102,5
DA:103,5
DA:104,5
DA:107,1
DA:109,1
DA:111,1
DA:112,1
DA:114,1
DA:117,1
DA:118,1
DA:120,1
DA:122,1
DA:125,1
DA:127,1
DA:129,1
DA:132,1
DA:134,1
DA:136,1
DA:140,1
DA:141,1
DA:142,1
DA:143,1
DA:145,1
DA:146,1
DA:147,1
DA:148,1
DA:150,1
DA:151,1
DA:153,1
DA:155,1
DA:156,1
DA:157,2
DA:158,2
DA:159,1
DA:160,1
DA:161,1
DA:162,1
DA:163,1
DA:165,0
DA:166,0
DA:167,0
DA:168,0
DA:169,0
DA:170,0
DA:171,0
DA:172,0
DA:173,0
DA:174,0
DA:175,0
DA:178,1
DA:180,0
DA:181,0
DA:182,0
DA:194,1
DA:195,1
DA:196,2
DA:197,2
DA:198,1
DA:203,1
DA:205,0
DA:206,1
DA:211,2
DA:212,2
DA:213,1
DA:215,1
DA:216,1
DA:218,2
DA:228,1
DA:229,1
DA:230,1
DA:231,1
DA:232,1
DA:233,1
DA:234,1
DA:235,1
DA:236,1
DA:237,1
DA:238,1
DA:241,1
DA:242,1
DA:244,1
DA:246,1
DA:247,1
DA:254,1
DA:256,1
DA:257,1
DA:258,0
DA:260,1
DA:262,1
DA:263,1
DA:264,0
DA:266,0
DA:268,0
DA:270,0
DA:276,0
DA:277,0
DA:278,0
DA:279,0
DA:280,0
DA:281,0
DA:284,0
DA:285,0
DA:286,1
DA:293,10
DA:294,10
DA:295,10
DA:296,10
DA:297,10
DA:298,10
DA:299,10
DA:300,10
DA:302,10
DA:303,10
DA:304,10
DA:305,10
DA:306,10
DA:307,10
DA:308,10
DA:309,10
DA:312,1
DA:313,1
DA:314,1
DA:316,1
DA:317,1
DA:318,1
DA:319,1
DA:320,1
DA:321,1
DA:322,1
DA:323,1
DA:324,1
DA:325,1
DA:326,1
DA:329,1
DA:330,1
DA:331,1
DA:332,1
DA:333,1
DA:335,1
DA:337,1
DA:338,1
DA:339,1
DA:340,1
DA:341,1
DA:342,1
DA:343,1
DA:344,1
DA:345,1
DA:346,1
DA:347,1
DA:350,1
DA:351,1
DA:352,1
DA:353,1
DA:355,1
DA:357,1
DA:358,1
DA:361,1
DA:362,1
DA:363,1
DA:364,1
DA:366,1
DA:368,1
DA:369,1
DA:372,1
DA:373,1
DA:374,1
DA:375,1
DA:377,1
DA:379,1
DA:380,1
DA:383,1
DA:384,1
DA:385,1
DA:388,1
DA:389,1
DA:390,1
DA:391,1
DA:392,1
DA:393,1
BRF:0
BRH:0
LF:232
LH:201
end_of_record
SF:/home/admin/Desktop/opensource/soroban-debugger/src/repl/commands.rs
FN:25,_RNvMNtNtCsjDzxbYtLkYp_16soroban_debugger4repl8commandsNtB2_11ReplCommand5parse
FN:39,_RNCNvMNtNtCsjDzxbYtLkYp_16soroban_debugger4repl8commandsNtB4_11ReplCommand5parse0B8_
FN:39,_RNCNvMNtNtCs2jO2QXn3WZ6_16soroban_debugger4repl8commandsNtB4_11ReplCommand5parse0B8_
FN:25,_RNvMNtNtCs2jO2QXn3WZ6_16soroban_debugger4repl8commandsNtB2_11ReplCommand5parse
FN:93,_RNvNtNtNtCs2jO2QXn3WZ6_16soroban_debugger4repl8commands5testss_21test_empty_call_fails
FN:60,_RNvNtNtNtCs2jO2QXn3WZ6_16soroban_debugger4repl8commands5testss_23test_parse_call_command
FN:78,_RNvNtNtNtCs2jO2QXn3WZ6_16soroban_debugger4repl8commands5testss_23test_parse_exit_command
FN:87,_RNvNtNtNtCs2jO2QXn3WZ6_16soroban_debugger4repl8commands5testss_23test_parse_help_command
FN:72,_RNvNtNtNtCs2jO2QXn3WZ6_16soroban_debugger4repl8commands5testss_26test_parse_storage_command
FN:99,_RNvNtNtNtCs2jO2QXn3WZ6_16soroban_debugger4repl8commands5testss_26test_unknown_command_fails
FNDA:0,_RNvMNtNtCsjDzxbYtLkYp_16soroban_debugger4repl8commandsNtB2_11ReplCommand5parse
FNDA:0,_RNCNvMNtNtCsjDzxbYtLkYp_16soroban_debugger4repl8commandsNtB4_11ReplCommand5parse0B8_
FNDA:3,_RNCNvMNtNtCs2jO2QXn3WZ6_16soroban_debugger4repl8commandsNtB4_11ReplCommand5parse0B8_
FNDA:7,_RNvMNtNtCs2jO2QXn3WZ6_16soroban_debugger4repl8commandsNtB2_11ReplCommand5parse
FNDA:1,_RNvNtNtNtCs2jO2QXn3WZ6_16soroban_debugger4repl8commands5testss_21test_empty_call_fails
FNDA:1,_RNvNtNtNtCs2jO2QXn3WZ6_16soroban_debugger4repl8commands5testss_23test_parse_call_command
FNDA:1,_RNvNtNtNtCs2jO2QXn3WZ6_16soroban_debugger4repl8commands5testss_23test_parse_exit_command
FNDA:1,_RNvNtNtNtCs2jO2QXn3WZ6_16soroban_debugger4repl8commands5testss_23test_parse_help_command
FNDA:1,_RNvNtNtNtCs2jO2QXn3WZ6_16soroban_debugger4repl8commands5testss_26test_parse_storage_command
FNDA:1,_RNvNtNtNtCs2jO2QXn3WZ6_16soroban_debugger4repl8commands5testss_26test_unknown_command_fails
FNF:8
FNH:8
DA:25,7
DA:26,7
DA:27,7
DA:29,7
DA:30,0
DA:31,7
DA:33,7
DA:34,7
DA:35,2
DA:36,1
DA:37,1
DA:38,1
DA:39,3
DA:40,1
DA:42,5
DA:43,4
DA:44,4
DA:45,4
DA:46,3
DA:47,1
DA:48,1
DA:49,1
DA:50,1
DA:52,7
DA:60,1
DA:61,1
DA:62,1
DA:63,1
DA:64,1
DA:65,1
DA:67,0
DA:69,1
DA:72,1
DA:73,1
DA:74,1
DA:75,1
DA:78,1
DA:79,1
DA:80,1
DA:82,1
DA:83,1
DA:84,1
DA:87,1
DA:88,1
DA:89,1
DA:90,1
DA:93,1
DA:94,1
DA:95,1
DA:96,1
DA:99,1
DA:100,1
DA:101,1
DA:102,1
BRF:0
BRH:0
LF:55
LH:53
end_of_record
SF:/home/admin/Desktop/opensource/soroban-debugger/src/repl/executor.rs
FN:52,_RNCNvMNtNtCsjDzxbYtLkYp_16soroban_debugger4repl8executorNtB4_12ReplExecutor13call_function0B8_
FN:156,_RNCNvMNtNtCsjDzxbYtLkYp_16soroban_debugger4repl8executorNtB4_12ReplExecutor15inspect_storage0B8_
FN:100,_RNCNvMNtNtCsjDzxbYtLkYp_16soroban_debugger4repl8executorNtB4_12ReplExecutor15typed_repl_args0B8_
FN:133,_RNCNvMNtNtCsjDzxbYtLkYp_16soroban_debugger4repl8executorNtB4_12ReplExecutor17parse_address_arg0B8_
FN:84,_RNCNvMNtNtCsjDzxbYtLkYp_16soroban_debugger4repl8executorNtB4_12ReplExecutor22args_to_json_array_for0B8_
FN:89,_RNCNvMNtNtCsjDzxbYtLkYp_16soroban_debugger4repl8executorNtB4_12ReplExecutor22args_to_json_array_fors_0B8_
FN:25,_RNCNvMNtNtCsjDzxbYtLkYp_16soroban_debugger4repl8executorNtB4_12ReplExecutor3new0B8_
FN:33,_RNCNvMNtNtCsjDzxbYtLkYp_16soroban_debugger4repl8executorNtB4_12ReplExecutor3news_0B8_
FN:52,_RNvMNtNtCsjDzxbYtLkYp_16soroban_debugger4repl8executorNtB2_12ReplExecutor13call_function
FN:143,_RNvMNtNtCsjDzxbYtLkYp_16soroban_debugger4repl8executorNtB2_12ReplExecutor15inspect_storage
FN:92,_RNvMNtNtCsjDzxbYtLkYp_16soroban_debugger4repl8executorNtB2_12ReplExecutor15typed_repl_args
FN:113,_RNvMNtNtCsjDzxbYtLkYp_16soroban_debugger4repl8executorNtB2_12ReplExecutor17parse_address_arg
FN:79,_RNvMNtNtCsjDzxbYtLkYp_16soroban_debugger4repl8executorNtB2_12ReplExecutor22args_to_json_array_for
FN:24,_RNvMNtNtCsjDzxbYtLkYp_16soroban_debugger4repl8executorNtB2_12ReplExecutor3new
FN:170,_RNvNtNtCsjDzxbYtLkYp_16soroban_debugger4repl8executor14parse_repl_arg
FN:182,_RNvNtNtCsjDzxbYtLkYp_16soroban_debugger4repl8executor22parse_typed_string_arg
FN:193,_RNvNtNtCsjDzxbYtLkYp_16soroban_debugger4repl8executor22parse_typed_symbol_arg
FN:177,_RNvNtNtCsjDzxbYtLkYp_16soroban_debugger4repl8executor25looks_like_strkey_address
FN:52,_RNCNvMNtNtCs2jO2QXn3WZ6_16soroban_debugger4repl8executorNtB4_12ReplExecutor13call_function0B8_
FN:156,_RNCNvMNtNtCs2jO2QXn3WZ6_16soroban_debugger4repl8executorNtB4_12ReplExecutor15inspect_storage0B8_
FN:100,_RNCNvMNtNtCs2jO2QXn3WZ6_16soroban_debugger4repl8executorNtB4_12ReplExecutor15typed_repl_args0B8_
FN:133,_RNCNvMNtNtCs2jO2QXn3WZ6_16soroban_debugger4repl8executorNtB4_12ReplExecutor17parse_address_arg0B8_
FN:84,_RNCNvMNtNtCs2jO2QXn3WZ6_16soroban_debugger4repl8executorNtB4_12ReplExecutor22args_to_json_array_for0B8_
FN:89,_RNCNvMNtNtCs2jO2QXn3WZ6_16soroban_debugger4repl8executorNtB4_12ReplExecutor22args_to_json_array_fors_0B8_
FN:25,_RNCNvMNtNtCs2jO2QXn3WZ6_16soroban_debugger4repl8executorNtB4_12ReplExecutor3new0B8_
FN:33,_RNCNvMNtNtCs2jO2QXn3WZ6_16soroban_debugger4repl8executorNtB4_12ReplExecutor3news_0B8_
FN:52,_RNvMNtNtCs2jO2QXn3WZ6_16soroban_debugger4repl8executorNtB2_12ReplExecutor13call_function
FN:143,_RNvMNtNtCs2jO2QXn3WZ6_16soroban_debugger4repl8executorNtB2_12ReplExecutor15inspect_storage
FN:92,_RNvMNtNtCs2jO2QXn3WZ6_16soroban_debugger4repl8executorNtB2_12ReplExecutor15typed_repl_args
FN:113,_RNvMNtNtCs2jO2QXn3WZ6_16soroban_debugger4repl8executorNtB2_12ReplExecutor17parse_address_arg
FN:79,_RNvMNtNtCs2jO2QXn3WZ6_16soroban_debugger4repl8executorNtB2_12ReplExecutor22args_to_json_array_for
FN:24,_RNvMNtNtCs2jO2QXn3WZ6_16soroban_debugger4repl8executorNtB2_12ReplExecutor3new
FN:170,_RNvNtNtCs2jO2QXn3WZ6_16soroban_debugger4repl8executor14parse_repl_arg
FN:182,_RNvNtNtCs2jO2QXn3WZ6_16soroban_debugger4repl8executor22parse_typed_string_arg
FN:193,_RNvNtNtCs2jO2QXn3WZ6_16soroban_debugger4repl8executor22parse_typed_symbol_arg
FN:177,_RNvNtNtCs2jO2QXn3WZ6_16soroban_debugger4repl8executor25looks_like_strkey_address
FN:212,_RNCNvNtNtNtCs2jO2QXn3WZ6_16soroban_debugger4repl8executor5testss_28repl_args_default_to_strings0B9_
FN:223,_RNCNvNtNtNtCs2jO2QXn3WZ6_16soroban_debugger4repl8executor5testss_29repl_args_parse_json_literals0B9_
FN:209,_RNvNtNtNtCs2jO2QXn3WZ6_16soroban_debugger4repl8executor5testss_28repl_args_default_to_strings
FN:220,_RNvNtNtNtCs2jO2QXn3WZ6_16soroban_debugger4repl8executor5testss_29repl_args_parse_json_literals
FN:231,_RNvNtNtNtCs2jO2QXn3WZ6_16soroban_debugger4repl8executor5testss_39typed_string_arg_uses_string_annotation
FNDA:0,_RNCNvMNtNtCsjDzxbYtLkYp_16soroban_debugger4repl8executorNtB4_12ReplExecutor13call_function0B8_
FNDA:0,_RNCNvMNtNtCsjDzxbYtLkYp_16soroban_debugger4repl8executorNtB4_12ReplExecutor15inspect_storage0B8_
FNDA:0,_RNCNvMNtNtCsjDzxbYtLkYp_16soroban_debugger4repl8executorNtB4_12ReplExecutor15typed_repl_args0B8_
FNDA:0,_RNCNvMNtNtCsjDzxbYtLkYp_16soroban_debugger4repl8executorNtB4_12ReplExecutor17parse_address_arg0B8_
FNDA:0,_RNCNvMNtNtCsjDzxbYtLkYp_16soroban_debugger4repl8executorNtB4_12ReplExecutor22args_to_json_array_for0B8_
FNDA:0,_RNCNvMNtNtCsjDzxbYtLkYp_16soroban_debugger4repl8executorNtB4_12ReplExecutor22args_to_json_array_fors_0B8_
FNDA:0,_RNCNvMNtNtCsjDzxbYtLkYp_16soroban_debugger4repl8executorNtB4_12ReplExecutor3new0B8_
FNDA:0,_RNCNvMNtNtCsjDzxbYtLkYp_16soroban_debugger4repl8executorNtB4_12ReplExecutor3news_0B8_
FNDA:0,_RNvMNtNtCsjDzxbYtLkYp_16soroban_debugger4repl8executorNtB2_12ReplExecutor13call_function
FNDA:0,_RNvMNtNtCsjDzxbYtLkYp_16soroban_debugger4repl8executorNtB2_12ReplExecutor15inspect_storage
FNDA:0,_RNvMNtNtCsjDzxbYtLkYp_16soroban_debugger4repl8executorNtB2_12ReplExecutor15typed_repl_args
FNDA:0,_RNvMNtNtCsjDzxbYtLkYp_16soroban_debugger4repl8executorNtB2_12ReplExecutor17parse_address_arg
FNDA:0,_RNvMNtNtCsjDzxbYtLkYp_16soroban_debugger4repl8executorNtB2_12ReplExecutor22args_to_json_array_for
FNDA:0,_RNvMNtNtCsjDzxbYtLkYp_16soroban_debugger4repl8executorNtB2_12ReplExecutor3new
FNDA:0,_RNvNtNtCsjDzxbYtLkYp_16soroban_debugger4repl8executor14parse_repl_arg
FNDA:0,_RNvNtNtCsjDzxbYtLkYp_16soroban_debugger4repl8executor22parse_typed_string_arg
FNDA:0,_RNvNtNtCsjDzxbYtLkYp_16soroban_debugger4repl8executor22parse_typed_symbol_arg
FNDA:0,_RNvNtNtCsjDzxbYtLkYp_16soroban_debugger4repl8executor25looks_like_strkey_address
FNDA:0,_RNCNvMNtNtCs2jO2QXn3WZ6_16soroban_debugger4repl8executorNtB4_12ReplExecutor13call_function0B8_
FNDA:0,_RNCNvMNtNtCs2jO2QXn3WZ6_16soroban_debugger4repl8executorNtB4_12ReplExecutor15inspect_storage0B8_
FNDA:0,_RNCNvMNtNtCs2jO2QXn3WZ6_16soroban_debugger4repl8executorNtB4_12ReplExecutor15typed_repl_args0B8_
FNDA:0,_RNCNvMNtNtCs2jO2QXn3WZ6_16soroban_debugger4repl8executorNtB4_12ReplExecutor17parse_address_arg0B8_
FNDA:0,_RNCNvMNtNtCs2jO2QXn3WZ6_16soroban_debugger4repl8executorNtB4_12ReplExecutor22args_to_json_array_for0B8_
FNDA:0,_RNCNvMNtNtCs2jO2QXn3WZ6_16soroban_debugger4repl8executorNtB4_12ReplExecutor22args_to_json_array_fors_0B8_
FNDA:0,_RNCNvMNtNtCs2jO2QXn3WZ6_16soroban_debugger4repl8executorNtB4_12ReplExecutor3new0B8_
FNDA:0,_RNCNvMNtNtCs2jO2QXn3WZ6_16soroban_debugger4repl8executorNtB4_12ReplExecutor3news_0B8_
FNDA:0,_RNvMNtNtCs2jO2QXn3WZ6_16soroban_debugger4repl8executorNtB2_12ReplExecutor13call_function
FNDA:0,_RNvMNtNtCs2jO2QXn3WZ6_16soroban_debugger4repl8executorNtB2_12ReplExecutor15inspect_storage
FNDA:0,_RNvMNtNtCs2jO2QXn3WZ6_16soroban_debugger4repl8executorNtB2_12ReplExecutor15typed_repl_args
FNDA:0,_RNvMNtNtCs2jO2QXn3WZ6_16soroban_debugger4repl8executorNtB2_12ReplExecutor17parse_address_arg
FNDA:0,_RNvMNtNtCs2jO2QXn3WZ6_16soroban_debugger4repl8executorNtB2_12ReplExecutor22args_to_json_array_for
FNDA:0,_RNvMNtNtCs2jO2QXn3WZ6_16soroban_debugger4repl8executorNtB2_12ReplExecutor3new
FNDA:5,_RNvNtNtCs2jO2QXn3WZ6_16soroban_debugger4repl8executor14parse_repl_arg
FNDA:1,_RNvNtNtCs2jO2QXn3WZ6_16soroban_debugger4repl8executor22parse_typed_string_arg
FNDA:0,_RNvNtNtCs2jO2QXn3WZ6_16soroban_debugger4repl8executor22parse_typed_symbol_arg
FNDA:0,_RNvNtNtCs2jO2QXn3WZ6_16soroban_debugger4repl8executor25looks_like_strkey_address
FNDA:2,_RNCNvNtNtNtCs2jO2QXn3WZ6_16soroban_debugger4repl8executor5testss_28repl_args_default_to_strings0B9_
FNDA:3,_RNCNvNtNtNtCs2jO2QXn3WZ6_16soroban_debugger4repl8executor5testss_29repl_args_parse_json_literals0B9_
FNDA:1,_RNvNtNtNtCs2jO2QXn3WZ6_16soroban_debugger4repl8executor5testss_28repl_args_default_to_strings
FNDA:1,_RNvNtNtNtCs2jO2QXn3WZ6_16soroban_debugger4repl8executor5testss_29repl_args_parse_json_literals
FNDA:1,_RNvNtNtNtCs2jO2QXn3WZ6_16soroban_debugger4repl8executor5testss_39typed_string_arg_uses_string_annotation
FNF:23
FNH:7
DA:24,0
DA:25,0
DA:26,0
DA:30,0
DA:31,0
DA:32,0
DA:33,0
DA:34,0
DA:35,0
DA:36,0
DA:38,0
DA:41,0
DA:42,0
DA:44,0
DA:45,0
DA:46,0
DA:47,0
DA:48,0
DA:49,0
DA:52,0
DA:53,0
DA:54,0
DA:55,0
DA:57,0
DA:60,0
DA:61,0
DA:62,0
DA:64,0
DA:65,0
DA:66,0
DA:69,0
DA:70,0
DA:71,0
DA:72,0
DA:73,0
DA:74,0
DA:76,0
DA:77,0
DA:79,0
DA:80,0
DA:81,0
DA:83,0
DA:84,0
DA:85,0
DA:88,0
DA:89,0
DA:90,0
DA:92,0
DA:93,0
DA:94,0
DA:95,0
DA:96,0
DA:97,0
DA:99,0
DA:100,0
DA:101,0
DA:102,0
DA:103,0
DA:104,0
DA:105,0
DA:107,0
DA:110,0
DA:111,0
DA:113,0
DA:115,0
DA:116,0
DA:117,0
DA:119,0
DA:120,0
DA:122,0
DA:123,0
DA:124,0
DA:125,0
DA:126,0
DA:128,0
DA:129,0
DA:130,0
DA:131,0
DA:132,0
DA:133,0
DA:136,0
DA:137,0
DA:138,0
DA:139,0
DA:140,0
DA:143,0
DA:144,0
DA:146,0
DA:147,0
DA:148,0
DA:149,0
DA:151,0
DA:152,0
DA:153,0
DA:155,0
DA:156,0
DA:158,0
DA:159,0
DA:160,0
DA:161,0
DA:162,0
DA:163,0
DA:164,0
DA:166,0
DA:167,0
DA:170,5
DA:171,5
DA:172,3
DA:173,2
DA:175,5
DA:177,0
DA:178,0
DA:179,0
DA:180,0
DA:182,1
DA:183,1
DA:184,0
DA:185,1
DA:187,1
DA:188,1
DA:189,1
DA:191,1
DA:193,0
DA:194,0
DA:195,0
DA:196,0
DA:198,0
DA:199,0
DA:200,0
DA:202,0
DA:209,1
DA:210,1
DA:211,1
DA:212,2
DA:213,1
DA:214,1
DA:215,1
DA:216,1
DA:217,1
DA:220,1
DA:221,1
DA:222,1
DA:223,3
DA:224,1
DA:225,1
DA:226,1
DA:227,1
DA:228,1
DA:231,1
DA:232,1
DA:233,1
DA:234,1
BRF:0
BRH:0
LF:163
LH:36
end_of_record
SF:/home/admin/Desktop/opensource/soroban-debugger/src/repl/mod.rs
FN:24,_RNvNtCsjDzxbYtLkYp_16soroban_debugger4repl10start_repl
FN:24,_RNCNvNtCsjDzxbYtLkYp_16soroban_debugger4repl10start_repl0B5_
FN:24,_RNvNtCs2jO2QXn3WZ6_16soroban_debugger4repl10start_repl
FN:24,_RNCNvNtCs2jO2QXn3WZ6_16soroban_debugger4repl10start_repl0B5_
FNDA:0,_RNvNtCsjDzxbYtLkYp_16soroban_debugger4repl10start_repl
FNDA:0,_RNCNvNtCsjDzxbYtLkYp_16soroban_debugger4repl10start_repl0B5_
FNDA:0,_RNvNtCs2jO2QXn3WZ6_16soroban_debugger4repl10start_repl
FNDA:0,_RNCNvNtCs2jO2QXn3WZ6_16soroban_debugger4repl10start_repl0B5_
FNF:2
FNH:0
DA:24,0
DA:25,0
DA:26,0
DA:27,0
DA:28,0
BRF:0
BRH:0
LF:6
LH:0
end_of_record
SF:/home/admin/Desktop/opensource/soroban-debugger/src/repl/session.rs
FN:142,_RNvMNtNtCsjDzxbYtLkYp_16soroban_debugger4repl7sessionNtB2_11ReplSession10print_help
FN:172,_RNvMNtNtCsjDzxbYtLkYp_16soroban_debugger4repl7sessionNtB2_11ReplSession13print_history
FN:132,_RNvMNtNtCsjDzxbYtLkYp_16soroban_debugger4repl7sessionNtB2_11ReplSession13print_welcome
FN:103,_RNvMNtNtCsjDzxbYtLkYp_16soroban_debugger4repl7sessionNtB2_11ReplSession15execute_command
FN:25,_RNvMNtNtCsjDzxbYtLkYp_16soroban_debugger4repl7sessionNtB2_11ReplSession3new
FN:47,_RNvMNtNtCsjDzxbYtLkYp_16soroban_debugger4repl7sessionNtB2_11ReplSession3run
FN:103,_RNCNvMNtNtCsjDzxbYtLkYp_16soroban_debugger4repl7sessionNtB4_11ReplSession15execute_command0B8_
FN:31,_RNCNvMNtNtCsjDzxbYtLkYp_16soroban_debugger4repl7sessionNtB4_11ReplSession3new0B8_
FN:47,_RNCNvMNtNtCsjDzxbYtLkYp_16soroban_debugger4repl7sessionNtB4_11ReplSession3run0B8_
FN:142,_RNvMNtNtCs2jO2QXn3WZ6_16soroban_debugger4repl7sessionNtB2_11ReplSession10print_help
FN:172,_RNvMNtNtCs2jO2QXn3WZ6_16soroban_debugger4repl7sessionNtB2_11ReplSession13print_history
FN:132,_RNvMNtNtCs2jO2QXn3WZ6_16soroban_debugger4repl7sessionNtB2_11ReplSession13print_welcome
FN:103,_RNvMNtNtCs2jO2QXn3WZ6_16soroban_debugger4repl7sessionNtB2_11ReplSession15execute_command
FN:25,_RNvMNtNtCs2jO2QXn3WZ6_16soroban_debugger4repl7sessionNtB2_11ReplSession3new
FN:47,_RNvMNtNtCs2jO2QXn3WZ6_16soroban_debugger4repl7sessionNtB2_11ReplSession3run
FN:103,_RNCNvMNtNtCs2jO2QXn3WZ6_16soroban_debugger4repl7sessionNtB4_11ReplSession15execute_command0B8_
FN:31,_RNCNvMNtNtCs2jO2QXn3WZ6_16soroban_debugger4repl7sessionNtB4_11ReplSession3new0B8_
FN:47,_RNCNvMNtNtCs2jO2QXn3WZ6_16soroban_debugger4repl7sessionNtB4_11ReplSession3run0B8_
FNDA:0,_RNvMNtNtCsjDzxbYtLkYp_16soroban_debugger4repl7sessionNtB2_11ReplSession10print_help
FNDA:0,_RNvMNtNtCsjDzxbYtLkYp_16soroban_debugger4repl7sessionNtB2_11ReplSession13print_history
FNDA:0,_RNvMNtNtCsjDzxbYtLkYp_16soroban_debugger4repl7sessionNtB2_11ReplSession13print_welcome
FNDA:0,_RNvMNtNtCsjDzxbYtLkYp_16soroban_debugger4repl7sessionNtB2_11ReplSession15execute_command
FNDA:0,_RNvMNtNtCsjDzxbYtLkYp_16soroban_debugger4repl7sessionNtB2_11ReplSession3new
FNDA:0,_RNvMNtNtCsjDzxbYtLkYp_16soroban_debugger4repl7sessionNtB2_11ReplSession3run
FNDA:0,_RNCNvMNtNtCsjDzxbYtLkYp_16soroban_debugger4repl7sessionNtB4_11ReplSession15execute_command0B8_
FNDA:0,_RNCNvMNtNtCsjDzxbYtLkYp_16soroban_debugger4repl7sessionNtB4_11ReplSession3new0B8_
FNDA:0,_RNCNvMNtNtCsjDzxbYtLkYp_16soroban_debugger4repl7sessionNtB4_11ReplSession3run0B8_
FNDA:0,_RNvMNtNtCs2jO2QXn3WZ6_16soroban_debugger4repl7sessionNtB2_11ReplSession10print_help
FNDA:0,_RNvMNtNtCs2jO2QXn3WZ6_16soroban_debugger4repl7sessionNtB2_11ReplSession13print_history
FNDA:0,_RNvMNtNtCs2jO2QXn3WZ6_16soroban_debugger4repl7sessionNtB2_11ReplSession13print_welcome
FNDA:0,_RNvMNtNtCs2jO2QXn3WZ6_16soroban_debugger4repl7sessionNtB2_11ReplSession15execute_command
FNDA:0,_RNvMNtNtCs2jO2QXn3WZ6_16soroban_debugger4repl7sessionNtB2_11ReplSession3new
FNDA:0,_RNvMNtNtCs2jO2QXn3WZ6_16soroban_debugger4repl7sessionNtB2_11ReplSession3run
FNDA:0,_RNCNvMNtNtCs2jO2QXn3WZ6_16soroban_debugger4repl7sessionNtB4_11ReplSession15execute_command0B8_
FNDA:0,_RNCNvMNtNtCs2jO2QXn3WZ6_16soroban_debugger4repl7sessionNtB4_11ReplSession3new0B8_
FNDA:0,_RNCNvMNtNtCs2jO2QXn3WZ6_16soroban_debugger4repl7sessionNtB4_11ReplSession3run0B8_
FNF:9
FNH:0
DA:25,0
DA:26,0
DA:27,0
DA:28,0
DA:30,0
DA:31,0
DA:34,0
DA:36,0
DA:38,0
DA:39,0
DA:40,0
DA:41,0
DA:42,0
DA:43,0
DA:44,0
DA:47,0
DA:48,0
DA:51,0
DA:53,0
DA:54,0
DA:56,0
DA:58,0
DA:62,0
DA:63,0
DA:64,0
DA:65,0
DA:66,0
DA:69,0
DA:71,0
DA:72,0
DA:73,0
DA:74,0
DA:75,0
DA:77,0
DA:83,0
DA:87,0
DA:88,0
DA:90,0
DA:91,0
DA:97,0
DA:99,0
DA:100,0
DA:103,0
DA:104,0
DA:106,0
DA:107,0
DA:109,0
DA:110,0
DA:113,0
DA:114,0
DA:117,0
DA:118,0
DA:120,0
DA:121,0
DA:122,0
DA:126,0
DA:127,0
DA:130,0
DA:132,0
DA:133,0
DA:134,0
DA:136,0
DA:138,0
DA:139,0
DA:140,0
DA:142,0
DA:143,0
DA:144,0
DA:145,0
DA:147,0
DA:149,0
DA:151,0
DA:153,0
DA:155,0
DA:157,0
DA:159,0
DA:161,0
DA:163,0
DA:165,0
DA:167,0
DA:169,0
DA:170,0
DA:172,0
DA:173,0
DA:174,0
DA:175,0
DA:176,0
DA:178,0
DA:179,0
BRF:0
BRH:0
LF:92
LH:0
end_of_record
SF:/home/admin/Desktop/opensource/soroban-debugger/src/runtime/env.rs
FN:8,_RNvMNtNtCsjDzxbYtLkYp_16soroban_debugger7runtime3envNtB2_8DebugEnv3new
FN:14,_RNvXs_NtNtCsjDzxbYtLkYp_16soroban_debugger7runtime3envNtB4_8DebugEnvNtNtCslH02haMvknO_4core7default7Default7default
FN:8,_RNvMNtNtCs2jO2QXn3WZ6_16soroban_debugger7runtime3envNtB2_8DebugEnv3new
FN:14,_RNvXs_NtNtCs2jO2QXn3WZ6_16soroban_debugger7runtime3envNtB4_8DebugEnvNtNtCslH02haMvknO_4core7default7Default7default
FNDA:0,_RNvMNtNtCsjDzxbYtLkYp_16soroban_debugger7runtime3envNtB2_8DebugEnv3new
FNDA:0,_RNvXs_NtNtCsjDzxbYtLkYp_16soroban_debugger7runtime3envNtB4_8DebugEnvNtNtCslH02haMvknO_4core7default7Default7default
FNDA:0,_RNvMNtNtCs2jO2QXn3WZ6_16soroban_debugger7runtime3envNtB2_8DebugEnv3new
FNDA:0,_RNvXs_NtNtCs2jO2QXn3WZ6_16soroban_debugger7runtime3envNtB4_8DebugEnvNtNtCslH02haMvknO_4core7default7Default7default
FNF:2
FNH:0
DA:8,0
DA:9,0
DA:10,0
DA:14,0
DA:15,0
DA:16,0
BRF:0
BRH:0
LF:6
LH:0
end_of_record
SF:/home/admin/Desktop/opensource/soroban-debugger/src/runtime/executor.rs
FN:480,_RNCNvMNtNtCsjDzxbYtLkYp_16soroban_debugger7runtime8executorNtB4_16ContractExecutor10parse_args0B8_
FN:448,_RNCNvMNtNtCsjDzxbYtLkYp_16soroban_debugger7runtime8executorNtB4_16ContractExecutor15restore_storage0B8_
FN:452,_RNCNvMNtNtCsjDzxbYtLkYp_16soroban_debugger7runtime8executorNtB4_16ContractExecutor15restore_storages_0B8_
FN:437,_RNCNvMNtNtCsjDzxbYtLkYp_16soroban_debugger7runtime8executorNtB4_16ContractExecutor16snapshot_storage0B8_
FN:438,_RNCNvMNtNtCsjDzxbYtLkYp_16soroban_debugger7runtime8executorNtB4_16ContractExecutor16snapshot_storages_0B8_
FN:465,_RNCNvMNtNtCsjDzxbYtLkYp_16soroban_debugger7runtime8executorNtB4_16ContractExecutor21get_diagnostic_events0B8_
FN:576,_RNCNvMNtNtCsjDzxbYtLkYp_16soroban_debugger7runtime8executorNtB4_16ContractExecutor22parse_contract_address0B8_
FN:565,_RNCNvMNtNtCsjDzxbYtLkYp_16soroban_debugger7runtime8executorNtB4_16ContractExecutor24install_mock_dispatchers0B8_
FN:488,_RNCNvMNtNtCsjDzxbYtLkYp_16soroban_debugger7runtime8executorNtB4_16ContractExecutor27normalize_args_for_function0B8_
FN:510,_RNCNvMNtNtCsjDzxbYtLkYp_16soroban_debugger7runtime8executorNtB4_16ContractExecutor27normalize_args_for_functions0_0B8_
FN:540,_RNCNvMNtNtCsjDzxbYtLkYp_16soroban_debugger7runtime8executorNtB4_16ContractExecutor27normalize_args_for_functions1_0B8_
FN:492,_RNCNvMNtNtCsjDzxbYtLkYp_16soroban_debugger7runtime8executorNtB4_16ContractExecutor27normalize_args_for_functions_0B8_
FN:135,_RNCNvMNtNtCsjDzxbYtLkYp_16soroban_debugger7runtime8executorNtB4_16ContractExecutor28generate_repl_account_strkey0B8_
FN:136,_RNCNvMNtNtCsjDzxbYtLkYp_16soroban_debugger7runtime8executorNtB4_16ContractExecutor28generate_repl_account_strkeys_0B8_
FN:422,_RNCNvMNtNtCsjDzxbYtLkYp_16soroban_debugger7runtime8executorNtB4_16ContractExecutor6finish0B8_
FN:222,_RNCNvMNtNtCsjDzxbYtLkYp_16soroban_debugger7runtime8executorNtB4_16ContractExecutor7execute0B8_
FN:279,_RNCNvMNtNtCsjDzxbYtLkYp_16soroban_debugger7runtime8executorNtB4_16ContractExecutor7executes0_0B8_
FN:240,_RNCNvMNtNtCsjDzxbYtLkYp_16soroban_debugger7runtime8executorNtB4_16ContractExecutor7executes_0B8_
FN:78,_RNvXNvMNtNtCsjDzxbYtLkYp_16soroban_debugger7runtime8executorNtB5_16ContractExecutor3newNtB2_13ProgressGuardNtNtNtCslH02haMvknO_4core3ops4drop4Drop4drop
FN:392,_RNvMNtNtCsjDzxbYtLkYp_16soroban_debugger7runtime8executorNtB2_16ContractExecutor10get_events
FN:474,_RNvMNtNtCsjDzxbYtLkYp_16soroban_debugger7runtime8executorNtB2_16ContractExecutor10parse_args
FN:119,_RNvMNtNtCsjDzxbYtLkYp_16soroban_debugger7runtime8executorNtB2_16ContractExecutor11set_timeout
FN:387,_RNvMNtNtCsjDzxbYtLkYp_16soroban_debugger7runtime8executorNtB2_16ContractExecutor13get_auth_tree
FN:340,_RNvMNtNtCsjDzxbYtLkYp_16soroban_debugger7runtime8executorNtB2_16ContractExecutor14last_execution
FN:355,_RNvMNtNtCsjDzxbYtLkYp_16soroban_debugger7runtime8executorNtB2_16ContractExecutor14set_mock_specs
FN:445,_RNvMNtNtCsjDzxbYtLkYp_16soroban_debugger7runtime8executorNtB2_16ContractExecutor15restore_storage
FN:433,_RNvMNtNtCsjDzxbYtLkYp_16soroban_debugger7runtime8executorNtB2_16ContractExecutor16snapshot_storage
FN:365,_RNvMNtNtCsjDzxbYtLkYp_16soroban_debugger7runtime8executorNtB2_16ContractExecutor17get_mock_call_log
FN:360,_RNvMNtNtCsjDzxbYtLkYp_16soroban_debugger7runtime8executorNtB2_16ContractExecutor17set_mock_registry
FN:401,_RNvMNtNtCsjDzxbYtLkYp_16soroban_debugger7runtime8executorNtB2_16ContractExecutor19get_ledger_snapshot
FN:345,_RNvMNtNtCsjDzxbYtLkYp_16soroban_debugger7runtime8executorNtB2_16ContractExecutor19last_memory_summary
FN:350,_RNvMNtNtCsjDzxbYtLkYp_16soroban_debugger7runtime8executorNtB2_16ContractExecutor19set_initial_storage
FN:396,_RNvMNtNtCsjDzxbYtLkYp_16soroban_debugger7runtime8executorNtB2_16ContractExecutor20get_storage_snapshot
FN:124,_RNvMNtNtCsjDzxbYtLkYp_16soroban_debugger7runtime8executorNtB2_16ContractExecutor21enable_mock_all_auths
FN:460,_RNvMNtNtCsjDzxbYtLkYp_16soroban_debugger7runtime8executorNtB2_16ContractExecutor21get_diagnostic_events
FN:373,_RNvMNtNtCsjDzxbYtLkYp_16soroban_debugger7runtime8executorNtB2_16ContractExecutor22get_instruction_counts
FN:575,_RNvMNtNtCsjDzxbYtLkYp_16soroban_debugger7runtime8executorNtB2_16ContractExecutor22parse_contract_address
FN:546,_RNvMNtNtCsjDzxbYtLkYp_16soroban_debugger7runtime8executorNtB2_16ContractExecutor24install_mock_dispatchers
FN:486,_RNvMNtNtCsjDzxbYtLkYp_16soroban_debugger7runtime8executorNtB2_16ContractExecutor27normalize_args_for_function
FN:129,_RNvMNtNtCsjDzxbYtLkYp_16soroban_debugger7runtime8executorNtB2_16ContractExecutor28generate_repl_account_strkey
FN:115,_RNvMNtNtCsjDzxbYtLkYp_16soroban_debugger7runtime8executorNtB2_16ContractExecutor3env
FN:62,_RNvMNtNtCsjDzxbYtLkYp_16soroban_debugger7runtime8executorNtB2_16ContractExecutor3new
FN:382,_RNvMNtNtCsjDzxbYtLkYp_16soroban_debugger7runtime8executorNtB2_16ContractExecutor4host
FN:407,_RNvMNtNtCsjDzxbYtLkYp_16soroban_debugger7runtime8executorNtB2_16ContractExecutor6finish
FN:151,_RNvMNtNtCsjDzxbYtLkYp_16soroban_debugger7runtime8executorNtB2_16ContractExecutor7execute
FN:616,_RNvNtNtCsjDzxbYtLkYp_16soroban_debugger7runtime8executor14json_type_name
FN:609,_RNvNtNtCsjDzxbYtLkYp_16soroban_debugger7runtime8executor19is_typed_annotation
FN:589,_RNvNtNtCsjDzxbYtLkYp_16soroban_debugger7runtime8executor26tuple_arity_from_type_name
FN:448,_RNCNvMNtNtCs2jO2QXn3WZ6_16soroban_debugger7runtime8executorNtB4_16ContractExecutor15restore_storage0B8_
FN:452,_RNCNvMNtNtCs2jO2QXn3WZ6_16soroban_debugger7runtime8executorNtB4_16ContractExecutor15restore_storages_0B8_
FN:437,_RNCNvMNtNtCs2jO2QXn3WZ6_16soroban_debugger7runtime8executorNtB4_16ContractExecutor16snapshot_storage0B8_
FN:438,_RNCNvMNtNtCs2jO2QXn3WZ6_16soroban_debugger7runtime8executorNtB4_16ContractExecutor16snapshot_storages_0B8_
FN:465,_RNCNvMNtNtCs2jO2QXn3WZ6_16soroban_debugger7runtime8executorNtB4_16ContractExecutor21get_diagnostic_events0B8_
FN:576,_RNCNvMNtNtCs2jO2QXn3WZ6_16soroban_debugger7runtime8executorNtB4_16ContractExecutor22parse_contract_address0B8_
FN:565,_RNCNvMNtNtCs2jO2QXn3WZ6_16soroban_debugger7runtime8executorNtB4_16ContractExecutor24install_mock_dispatchers0B8_
FN:422,_RNCNvMNtNtCs2jO2QXn3WZ6_16soroban_debugger7runtime8executorNtB4_16ContractExecutor6finish0B8_
FN:392,_RNvMNtNtCs2jO2QXn3WZ6_16soroban_debugger7runtime8executorNtB2_16ContractExecutor10get_events
FN:119,_RNvMNtNtCs2jO2QXn3WZ6_16soroban_debugger7runtime8executorNtB2_16ContractExecutor11set_timeout
FN:387,_RNvMNtNtCs2jO2QXn3WZ6_16soroban_debugger7runtime8executorNtB2_16ContractExecutor13get_auth_tree
FN:340,_RNvMNtNtCs2jO2QXn3WZ6_16soroban_debugger7runtime8executorNtB2_16ContractExecutor14last_execution
FN:355,_RNvMNtNtCs2jO2QXn3WZ6_16soroban_debugger7runtime8executorNtB2_16ContractExecutor14set_mock_specs
FN:445,_RNvMNtNtCs2jO2QXn3WZ6_16soroban_debugger7runtime8executorNtB2_16ContractExecutor15restore_storage
FN:433,_RNvMNtNtCs2jO2QXn3WZ6_16soroban_debugger7runtime8executorNtB2_16ContractExecutor16snapshot_storage
FN:365,_RNvMNtNtCs2jO2QXn3WZ6_16soroban_debugger7runtime8executorNtB2_16ContractExecutor17get_mock_call_log
FN:360,_RNvMNtNtCs2jO2QXn3WZ6_16soroban_debugger7runtime8executorNtB2_16ContractExecutor17set_mock_registry
FN:401,_RNvMNtNtCs2jO2QXn3WZ6_16soroban_debugger7runtime8executorNtB2_16ContractExecutor19get_ledger_snapshot
FN:345,_RNvMNtNtCs2jO2QXn3WZ6_16soroban_debugger7runtime8executorNtB2_16ContractExecutor19last_memory_summary
FN:460,_RNvMNtNtCs2jO2QXn3WZ6_16soroban_debugger7runtime8executorNtB2_16ContractExecutor21get_diagnostic_events
FN:373,_RNvMNtNtCs2jO2QXn3WZ6_16soroban_debugger7runtime8executorNtB2_16ContractExecutor22get_instruction_counts
FN:575,_RNvMNtNtCs2jO2QXn3WZ6_16soroban_debugger7runtime8executorNtB2_16ContractExecutor22parse_contract_address
FN:546,_RNvMNtNtCs2jO2QXn3WZ6_16soroban_debugger7runtime8executorNtB2_16ContractExecutor24install_mock_dispatchers
FN:115,_RNvMNtNtCs2jO2QXn3WZ6_16soroban_debugger7runtime8executorNtB2_16ContractExecutor3env
FN:382,_RNvMNtNtCs2jO2QXn3WZ6_16soroban_debugger7runtime8executorNtB2_16ContractExecutor4host
FN:407,_RNvMNtNtCs2jO2QXn3WZ6_16soroban_debugger7runtime8executorNtB2_16ContractExecutor6finish
FN:632,_RNvNtNtNtCs2jO2QXn3WZ6_16soroban_debugger7runtime8executor5testss_34tuple_arity_counts_top_level_types
FN:480,_RNCNvMNtNtCs2jO2QXn3WZ6_16soroban_debugger7runtime8executorNtB4_16ContractExecutor10parse_args0B8_
FN:488,_RNCNvMNtNtCs2jO2QXn3WZ6_16soroban_debugger7runtime8executorNtB4_16ContractExecutor27normalize_args_for_function0B8_
FN:510,_RNCNvMNtNtCs2jO2QXn3WZ6_16soroban_debugger7runtime8executorNtB4_16ContractExecutor27normalize_args_for_functions0_0B8_
FN:540,_RNCNvMNtNtCs2jO2QXn3WZ6_16soroban_debugger7runtime8executorNtB4_16ContractExecutor27normalize_args_for_functions1_0B8_
FN:492,_RNCNvMNtNtCs2jO2QXn3WZ6_16soroban_debugger7runtime8executorNtB4_16ContractExecutor27normalize_args_for_functions_0B8_
FN:135,_RNCNvMNtNtCs2jO2QXn3WZ6_16soroban_debugger7runtime8executorNtB4_16ContractExecutor28generate_repl_account_strkey0B8_
FN:136,_RNCNvMNtNtCs2jO2QXn3WZ6_16soroban_debugger7runtime8executorNtB4_16ContractExecutor28generate_repl_account_strkeys_0B8_
FN:222,_RNCNvMNtNtCs2jO2QXn3WZ6_16soroban_debugger7runtime8executorNtB4_16ContractExecutor7execute0B8_
FN:279,_RNCNvMNtNtCs2jO2QXn3WZ6_16soroban_debugger7runtime8executorNtB4_16ContractExecutor7executes0_0B8_
FN:240,_RNCNvMNtNtCs2jO2QXn3WZ6_16soroban_debugger7runtime8executorNtB4_16ContractExecutor7executes_0B8_
FN:474,_RNvMNtNtCs2jO2QXn3WZ6_16soroban_debugger7runtime8executorNtB2_16ContractExecutor10parse_args
FN:350,_RNvMNtNtCs2jO2QXn3WZ6_16soroban_debugger7runtime8executorNtB2_16ContractExecutor19set_initial_storage
FN:396,_RNvMNtNtCs2jO2QXn3WZ6_16soroban_debugger7runtime8executorNtB2_16ContractExecutor20get_storage_snapshot
FN:124,_RNvMNtNtCs2jO2QXn3WZ6_16soroban_debugger7runtime8executorNtB2_16ContractExecutor21enable_mock_all_auths
FN:486,_RNvMNtNtCs2jO2QXn3WZ6_16soroban_debugger7runtime8executorNtB2_16ContractExecutor27normalize_args_for_function
FN:129,_RNvMNtNtCs2jO2QXn3WZ6_16soroban_debugger7runtime8executorNtB2_16ContractExecutor28generate_repl_account_strkey
FN:62,_RNvMNtNtCs2jO2QXn3WZ6_16soroban_debugger7runtime8executorNtB2_16ContractExecutor3new
FN:151,_RNvMNtNtCs2jO2QXn3WZ6_16soroban_debugger7runtime8executorNtB2_16ContractExecutor7execute
FN:616,_RNvNtNtCs2jO2QXn3WZ6_16soroban_debugger7runtime8executor14json_type_name
FN:609,_RNvNtNtCs2jO2QXn3WZ6_16soroban_debugger7runtime8executor19is_typed_annotation
FN:589,_RNvNtNtCs2jO2QXn3WZ6_16soroban_debugger7runtime8executor26tuple_arity_from_type_name
FN:78,_RNvXNvMNtNtCs2jO2QXn3WZ6_16soroban_debugger7runtime8executorNtB5_16ContractExecutor3newNtB2_13ProgressGuardNtNtNtCslH02haMvknO_4core3ops4drop4Drop4drop
FNDA:0,_RNCNvMNtNtCsjDzxbYtLkYp_16soroban_debugger7runtime8executorNtB4_16ContractExecutor10parse_args0B8_
FNDA:0,_RNCNvMNtNtCsjDzxbYtLkYp_16soroban_debugger7runtime8executorNtB4_16ContractExecutor15restore_storage0B8_
FNDA:0,_RNCNvMNtNtCsjDzxbYtLkYp_16soroban_debugger7runtime8executorNtB4_16ContractExecutor15restore_storages_0B8_
FNDA:0,_RNCNvMNtNtCsjDzxbYtLkYp_16soroban_debugger7runtime8executorNtB4_16ContractExecutor16snapshot_storage0B8_
FNDA:0,_RNCNvMNtNtCsjDzxbYtLkYp_16soroban_debugger7runtime8executorNtB4_16ContractExecutor16snapshot_storages_0B8_
FNDA:0,_RNCNvMNtNtCsjDzxbYtLkYp_16soroban_debugger7runtime8executorNtB4_16ContractExecutor21get_diagnostic_events0B8_
FNDA:0,_RNCNvMNtNtCsjDzxbYtLkYp_16soroban_debugger7runtime8executorNtB4_16ContractExecutor22parse_contract_address0B8_
FNDA:0,_RNCNvMNtNtCsjDzxbYtLkYp_16soroban_debugger7runtime8executorNtB4_16ContractExecutor24install_mock_dispatchers0B8_
FNDA:0,_RNCNvMNtNtCsjDzxbYtLkYp_16soroban_debugger7runtime8executorNtB4_16ContractExecutor27normalize_args_for_function0B8_
FNDA:0,_RNCNvMNtNtCsjDzxbYtLkYp_16soroban_debugger7runtime8executorNtB4_16ContractExecutor27normalize_args_for_functions0_0B8_
FNDA:0,_RNCNvMNtNtCsjDzxbYtLkYp_16soroban_debugger7runtime8executorNtB4_16ContractExecutor27normalize_args_for_functions1_0B8_
FNDA:0,_RNCNvMNtNtCsjDzxbYtLkYp_16soroban_debugger7runtime8executorNtB4_16ContractExecutor27normalize_args_for_functions_0B8_
FNDA:0,_RNCNvMNtNtCsjDzxbYtLkYp_16soroban_debugger7runtime8executorNtB4_16ContractExecutor28generate_repl_account_strkey0B8_
FNDA:0,_RNCNvMNtNtCsjDzxbYtLkYp_16soroban_debugger7runtime8executorNtB4_16ContractExecutor28generate_repl_account_strkeys_0B8_
FNDA:0,_RNCNvMNtNtCsjDzxbYtLkYp_16soroban_debugger7runtime8executorNtB4_16ContractExecutor6finish0B8_
FNDA:0,_RNCNvMNtNtCsjDzxbYtLkYp_16soroban_debugger7runtime8executorNtB4_16ContractExecutor7execute0B8_
FNDA:0,_RNCNvMNtNtCsjDzxbYtLkYp_16soroban_debugger7runtime8executorNtB4_16ContractExecutor7executes0_0B8_
FNDA:0,_RNCNvMNtNtCsjDzxbYtLkYp_16soroban_debugger7runtime8executorNtB4_16ContractExecutor7executes_0B8_
FNDA:26,_RNvXNvMNtNtCsjDzxbYtLkYp_16soroban_debugger7runtime8executorNtB5_16ContractExecutor3newNtB2_13ProgressGuardNtNtNtCslH02haMvknO_4core3ops4drop4Drop4drop
FNDA:0,_RNvMNtNtCsjDzxbYtLkYp_16soroban_debugger7runtime8executorNtB2_16ContractExecutor10get_events
FNDA:0,_RNvMNtNtCsjDzxbYtLkYp_16soroban_debugger7runtime8executorNtB2_16ContractExecutor10parse_args
FNDA:0,_RNvMNtNtCsjDzxbYtLkYp_16soroban_debugger7runtime8executorNtB2_16ContractExecutor11set_timeout
FNDA:0,_RNvMNtNtCsjDzxbYtLkYp_16soroban_debugger7runtime8executorNtB2_16ContractExecutor13get_auth_tree
FNDA:0,_RNvMNtNtCsjDzxbYtLkYp_16soroban_debugger7runtime8executorNtB2_16ContractExecutor14last_execution
FNDA:0,_RNvMNtNtCsjDzxbYtLkYp_16soroban_debugger7runtime8executorNtB2_16ContractExecutor14set_mock_specs
FNDA:0,_RNvMNtNtCsjDzxbYtLkYp_16soroban_debugger7runtime8executorNtB2_16ContractExecutor15restore_storage
FNDA:0,_RNvMNtNtCsjDzxbYtLkYp_16soroban_debugger7runtime8executorNtB2_16ContractExecutor16snapshot_storage
FNDA:0,_RNvMNtNtCsjDzxbYtLkYp_16soroban_debugger7runtime8executorNtB2_16ContractExecutor17get_mock_call_log
FNDA:0,_RNvMNtNtCsjDzxbYtLkYp_16soroban_debugger7runtime8executorNtB2_16ContractExecutor17set_mock_registry
FNDA:0,_RNvMNtNtCsjDzxbYtLkYp_16soroban_debugger7runtime8executorNtB2_16ContractExecutor19get_ledger_snapshot
FNDA:0,_RNvMNtNtCsjDzxbYtLkYp_16soroban_debugger7runtime8executorNtB2_16ContractExecutor19last_memory_summary
FNDA:0,_RNvMNtNtCsjDzxbYtLkYp_16soroban_debugger7runtime8executorNtB2_16ContractExecutor19set_initial_storage
FNDA:0,_RNvMNtNtCsjDzxbYtLkYp_16soroban_debugger7runtime8executorNtB2_16ContractExecutor20get_storage_snapshot
FNDA:0,_RNvMNtNtCsjDzxbYtLkYp_16soroban_debugger7runtime8executorNtB2_16ContractExecutor21enable_mock_all_auths
FNDA:0,_RNvMNtNtCsjDzxbYtLkYp_16soroban_debugger7runtime8executorNtB2_16ContractExecutor21get_diagnostic_events
FNDA:0,_RNvMNtNtCsjDzxbYtLkYp_16soroban_debugger7runtime8executorNtB2_16ContractExecutor22get_instruction_counts
FNDA:0,_RNvMNtNtCsjDzxbYtLkYp_16soroban_debugger7runtime8executorNtB2_16ContractExecutor22parse_contract_address
FNDA:0,_RNvMNtNtCsjDzxbYtLkYp_16soroban_debugger7runtime8executorNtB2_16ContractExecutor24install_mock_dispatchers
FNDA:0,_RNvMNtNtCsjDzxbYtLkYp_16soroban_debugger7runtime8executorNtB2_16ContractExecutor27normalize_args_for_function
FNDA:0,_RNvMNtNtCsjDzxbYtLkYp_16soroban_debugger7runtime8executorNtB2_16ContractExecutor28generate_repl_account_strkey
FNDA:0,_RNvMNtNtCsjDzxbYtLkYp_16soroban_debugger7runtime8executorNtB2_16ContractExecutor3env
FNDA:26,_RNvMNtNtCsjDzxbYtLkYp_16soroban_debugger7runtime8executorNtB2_16ContractExecutor3new
FNDA:0,_RNvMNtNtCsjDzxbYtLkYp_16soroban_debugger7runtime8executorNtB2_16ContractExecutor4host
FNDA:0,_RNvMNtNtCsjDzxbYtLkYp_16soroban_debugger7runtime8executorNtB2_16ContractExecutor6finish
FNDA:0,_RNvMNtNtCsjDzxbYtLkYp_16soroban_debugger7runtime8executorNtB2_16ContractExecutor7execute
FNDA:0,_RNvNtNtCsjDzxbYtLkYp_16soroban_debugger7runtime8executor14json_type_name
FNDA:0,_RNvNtNtCsjDzxbYtLkYp_16soroban_debugger7runtime8executor19is_typed_annotation
FNDA:0,_RNvNtNtCsjDzxbYtLkYp_16soroban_debugger7runtime8executor26tuple_arity_from_type_name
FNDA:0,_RNCNvMNtNtCs2jO2QXn3WZ6_16soroban_debugger7runtime8executorNtB4_16ContractExecutor15restore_storage0B8_
FNDA:0,_RNCNvMNtNtCs2jO2QXn3WZ6_16soroban_debugger7runtime8executorNtB4_16ContractExecutor15restore_storages_0B8_
FNDA:0,_RNCNvMNtNtCs2jO2QXn3WZ6_16soroban_debugger7runtime8executorNtB4_16ContractExecutor16snapshot_storage0B8_
FNDA:0,_RNCNvMNtNtCs2jO2QXn3WZ6_16soroban_debugger7runtime8executorNtB4_16ContractExecutor16snapshot_storages_0B8_
FNDA:0,_RNCNvMNtNtCs2jO2QXn3WZ6_16soroban_debugger7runtime8executorNtB4_16ContractExecutor21get_diagnostic_events0B8_
FNDA:0,_RNCNvMNtNtCs2jO2QXn3WZ6_16soroban_debugger7runtime8executorNtB4_16ContractExecutor22parse_contract_address0B8_
FNDA:0,_RNCNvMNtNtCs2jO2QXn3WZ6_16soroban_debugger7runtime8executorNtB4_16ContractExecutor24install_mock_dispatchers0B8_
FNDA:0,_RNCNvMNtNtCs2jO2QXn3WZ6_16soroban_debugger7runtime8executorNtB4_16ContractExecutor6finish0B8_
FNDA:0,_RNvMNtNtCs2jO2QXn3WZ6_16soroban_debugger7runtime8executorNtB2_16ContractExecutor10get_events
FNDA:0,_RNvMNtNtCs2jO2QXn3WZ6_16soroban_debugger7runtime8executorNtB2_16ContractExecutor11set_timeout
FNDA:0,_RNvMNtNtCs2jO2QXn3WZ6_16soroban_debugger7runtime8executorNtB2_16ContractExecutor13get_auth_tree
FNDA:0,_RNvMNtNtCs2jO2QXn3WZ6_16soroban_debugger7runtime8executorNtB2_16ContractExecutor14last_execution
FNDA:0,_RNvMNtNtCs2jO2QXn3WZ6_16soroban_debugger7runtime8executorNtB2_16ContractExecutor14set_mock_specs
FNDA:0,_RNvMNtNtCs2jO2QXn3WZ6_16soroban_debugger7runtime8executorNtB2_16ContractExecutor15restore_storage
FNDA:0,_RNvMNtNtCs2jO2QXn3WZ6_16soroban_debugger7runtime8executorNtB2_16ContractExecutor16snapshot_storage
FNDA:0,_RNvMNtNtCs2jO2QXn3WZ6_16soroban_debugger7runtime8executorNtB2_16ContractExecutor17get_mock_call_log
FNDA:0,_RNvMNtNtCs2jO2QXn3WZ6_16soroban_debugger7runtime8executorNtB2_16ContractExecutor17set_mock_registry
FNDA:0,_RNvMNtNtCs2jO2QXn3WZ6_16soroban_debugger7runtime8executorNtB2_16ContractExecutor19get_ledger_snapshot
FNDA:0,_RNvMNtNtCs2jO2QXn3WZ6_16soroban_debugger7runtime8executorNtB2_16ContractExecutor19last_memory_summary
FNDA:0,_RNvMNtNtCs2jO2QXn3WZ6_16soroban_debugger7runtime8executorNtB2_16ContractExecutor21get_diagnostic_events
FNDA:0,_RNvMNtNtCs2jO2QXn3WZ6_16soroban_debugger7runtime8executorNtB2_16ContractExecutor22get_instruction_counts
FNDA:0,_RNvMNtNtCs2jO2QXn3WZ6_16soroban_debugger7runtime8executorNtB2_16ContractExecutor22parse_contract_address
FNDA:0,_RNvMNtNtCs2jO2QXn3WZ6_16soroban_debugger7runtime8executorNtB2_16ContractExecutor24install_mock_dispatchers
FNDA:0,_RNvMNtNtCs2jO2QXn3WZ6_16soroban_debugger7runtime8executorNtB2_16ContractExecutor3env
FNDA:0,_RNvMNtNtCs2jO2QXn3WZ6_16soroban_debugger7runtime8executorNtB2_16ContractExecutor4host
FNDA:0,_RNvMNtNtCs2jO2QXn3WZ6_16soroban_debugger7runtime8executorNtB2_16ContractExecutor6finish
FNDA:1,_RNvNtNtNtCs2jO2QXn3WZ6_16soroban_debugger7runtime8executor5testss_34tuple_arity_counts_top_level_types
FNDA:0,_RNCNvMNtNtCs2jO2QXn3WZ6_16soroban_debugger7runtime8executorNtB4_16ContractExecutor10parse_args0B8_
FNDA:0,_RNCNvMNtNtCs2jO2QXn3WZ6_16soroban_debugger7runtime8executorNtB4_16ContractExecutor27normalize_args_for_function0B8_
FNDA:0,_RNCNvMNtNtCs2jO2QXn3WZ6_16soroban_debugger7runtime8executorNtB4_16ContractExecutor27normalize_args_for_functions0_0B8_
FNDA:0,_RNCNvMNtNtCs2jO2QXn3WZ6_16soroban_debugger7runtime8executorNtB4_16ContractExecutor27normalize_args_for_functions1_0B8_
FNDA:0,_RNCNvMNtNtCs2jO2QXn3WZ6_16soroban_debugger7runtime8executorNtB4_16ContractExecutor27normalize_args_for_functions_0B8_
FNDA:0,_RNCNvMNtNtCs2jO2QXn3WZ6_16soroban_debugger7runtime8executorNtB4_16ContractExecutor28generate_repl_account_strkey0B8_
FNDA:0,_RNCNvMNtNtCs2jO2QXn3WZ6_16soroban_debugger7runtime8executorNtB4_16ContractExecutor28generate_repl_account_strkeys_0B8_
FNDA:0,_RNCNvMNtNtCs2jO2QXn3WZ6_16soroban_debugger7runtime8executorNtB4_16ContractExecutor7execute0B8_
FNDA:0,_RNCNvMNtNtCs2jO2QXn3WZ6_16soroban_debugger7runtime8executorNtB4_16ContractExecutor7executes0_0B8_
FNDA:0,_RNCNvMNtNtCs2jO2QXn3WZ6_16soroban_debugger7runtime8executorNtB4_16ContractExecutor7executes_0B8_
FNDA:0,_RNvMNtNtCs2jO2QXn3WZ6_16soroban_debugger7runtime8executorNtB2_16ContractExecutor10parse_args
FNDA:0,_RNvMNtNtCs2jO2QXn3WZ6_16soroban_debugger7runtime8executorNtB2_16ContractExecutor19set_initial_storage
FNDA:0,_RNvMNtNtCs2jO2QXn3WZ6_16soroban_debugger7runtime8executorNtB2_16ContractExecutor20get_storage_snapshot
FNDA:0,_RNvMNtNtCs2jO2QXn3WZ6_16soroban_debugger7runtime8executorNtB2_16ContractExecutor21enable_mock_all_auths
FNDA:0,_RNvMNtNtCs2jO2QXn3WZ6_16soroban_debugger7runtime8executorNtB2_16ContractExecutor27normalize_args_for_function
FNDA:0,_RNvMNtNtCs2jO2QXn3WZ6_16soroban_debugger7runtime8executorNtB2_16ContractExecutor28generate_repl_account_strkey
FNDA:0,_RNvMNtNtCs2jO2QXn3WZ6_16soroban_debugger7runtime8executorNtB2_16ContractExecutor3new
FNDA:0,_RNvMNtNtCs2jO2QXn3WZ6_16soroban_debugger7runtime8executorNtB2_16ContractExecutor7execute
FNDA:0,_RNvNtNtCs2jO2QXn3WZ6_16soroban_debugger7runtime8executor14json_type_name
FNDA:0,_RNvNtNtCs2jO2QXn3WZ6_16soroban_debugger7runtime8executor19is_typed_annotation
FNDA:2,_RNvNtNtCs2jO2QXn3WZ6_16soroban_debugger7runtime8executor26tuple_arity_from_type_name
FNDA:0,_RNvXNvMNtNtCs2jO2QXn3WZ6_16soroban_debugger7runtime8executorNtB5_16ContractExecutor3newNtB2_13ProgressGuardNtNtNtCslH02haMvknO_4core3ops4drop4Drop4drop
FNF:49
FNH:4
DA:62,26
DA:63,26
DA:66,26
DA:67,26
DA:68,26
DA:69,26
DA:70,26
DA:71,26
DA:73,26
DA:78,26
DA:79,26
DA:80,26
DA:82,26
DA:84,26
DA:85,26
DA:86,26
DA:87,26
DA:90,26
DA:91,26
DA:93,26
DA:95,26
DA:96,26
DA:97,26
DA:98,0
DA:100,26
DA:101,26
DA:103,26
DA:104,26
DA:105,26
DA:106,26
DA:107,26
DA:108,26
DA:109,26
DA:110,26
DA:111,26
DA:112,26
DA:113,26
DA:115,0
DA:116,0
DA:117,0
DA:119,0
DA:120,0
DA:121,0
DA:124,0
DA:125,0
DA:126,0
DA:129,0
DA:132,0
DA:133,0
DA:134,0
DA:135,0
DA:136,0
DA:138,0
DA:139,0
DA:140,0
DA:143,0
DA:144,0
DA:145,0
DA:146,0
DA:147,0
DA:151,0
DA:152,0
DA:153,0
DA:154,0
DA:155,0
DA:156,0
DA:157,0
DA:158,0
DA:160,0
DA:163,0
DA:164,0
DA:165,0
DA:166,0
DA:167,0
DA:168,0
DA:170,0
DA:171,0
DA:174,0
DA:175,0
DA:176,0
DA:177,0
DA:178,0
DA:181,0
DA:182,0
DA:183,0
DA:184,0
DA:187,0
DA:189,0
DA:190,0
DA:191,0
DA:192,0
DA:193,0
DA:194,0
DA:198,0
DA:200,0
DA:202,0
DA:203,0
DA:205,0
DA:207,0
DA:210,0
DA:211,0
DA:212,0
DA:213,0
DA:214,0
DA:217,0
DA:220,0
DA:221,0
DA:222,0
DA:223,0
DA:225,0
DA:226,0
DA:227,0
DA:228,0
DA:229,0
DA:230,0
DA:231,0
DA:232,0
DA:235,0
DA:237,0
DA:238,0
DA:239,0
DA:240,0
DA:241,0
DA:242,0
DA:244,0
DA:248,0
DA:250,0
DA:252,0
DA:253,0
DA:256,0
DA:257,0
DA:258,0
DA:259,0
DA:261,0
DA:264,0
DA:267,0
DA:268,0
DA:269,0
DA:271,0
DA:274,0
DA:276,0
DA:277,0
DA:278,0
DA:279,0
DA:280,0
DA:281,0
DA:282,0
DA:284,0
DA:285,0
DA:286,0
DA:287,0
DA:288,0
DA:289,0
DA:290,0
DA:292,0
DA:293,0
DA:294,0
DA:295,0
DA:296,0
DA:297,0
DA:300,0
DA:301,0
DA:304,0
DA:305,0
DA:306,0
DA:307,0
DA:309,0
DA:310,0
DA:311,0
DA:312,0
DA:313,0
DA:314,0
DA:315,0
DA:318,0
DA:320,0
DA:323,0
DA:324,0
DA:325,0
DA:327,0
DA:328,0
DA:329,0
DA:330,0
DA:331,0
DA:332,0
DA:333,0
DA:334,0
DA:336,0
DA:337,0
DA:340,0
DA:341,0
DA:342,0
DA:345,0
DA:346,0
DA:347,0
DA:350,0
DA:351,0
DA:352,0
DA:353,0
DA:355,0
DA:356,0
DA:357,0
DA:358,0
DA:360,0
DA:361,0
DA:362,0
DA:363,0
DA:365,0
DA:366,0
DA:367,0
DA:368,0
DA:370,0
DA:373,0
DA:375,0
DA:376,0
DA:377,0
DA:378,0
DA:379,0
DA:382,0
DA:383,0
DA:384,0
DA:387,0
DA:388,0
DA:389,0
DA:392,0
DA:393,0
DA:394,0
DA:396,0
DA:397,0
DA:398,0
DA:401,0
DA:402,0
DA:403,0
DA:407,0
DA:408,0
DA:409,0
DA:410,0
DA:411,0
DA:412,0
DA:413,0
DA:414,0
DA:416,0
DA:417,0
DA:419,0
DA:420,0
DA:422,0
DA:423,0
DA:424,0
DA:425,0
DA:426,0
DA:427,0
DA:429,0
DA:430,0
DA:433,0
DA:434,0
DA:435,0
DA:436,0
DA:437,0
DA:438,0
DA:439,0
DA:440,0
DA:441,0
DA:442,0
DA:445,0
DA:446,0
DA:447,0
DA:448,0
DA:449,0
DA:450,0
DA:451,0
DA:452,0
DA:453,0
DA:454,0
DA:455,0
DA:456,0
DA:457,0
DA:460,0
DA:461,0
DA:462,0
DA:463,0
DA:464,0
DA:465,0
DA:466,0
DA:467,0
DA:469,0
DA:470,0
DA:471,0
DA:472,0
DA:474,0
DA:475,0
DA:476,0
DA:478,0
DA:479,0
DA:480,0
DA:481,0
DA:482,0
DA:483,0
DA:484,0
DA:486,0
DA:487,0
DA:488,0
DA:489,0
DA:492,0
DA:493,0
DA:494,0
DA:496,0
DA:497,0
DA:500,0
DA:501,0
DA:502,0
DA:503,0
DA:504,0
DA:505,0
DA:506,0
DA:507,0
DA:509,0
DA:510,0
DA:511,0
DA:512,0
DA:513,0
DA:514,0
DA:515,0
DA:517,0
DA:518,0
DA:519,0
DA:520,0
DA:521,0
DA:522,0
DA:523,0
DA:524,0
DA:527,0
DA:528,0
DA:529,0
DA:530,0
DA:531,0
DA:532,0
DA:533,0
DA:534,0
DA:536,0
DA:537,0
DA:540,0
DA:541,0
DA:542,0
DA:543,0
DA:544,0
DA:546,0
DA:547,0
DA:548,0
DA:550,0
DA:551,0
DA:552,0
DA:553,0
DA:557,0
DA:558,0
DA:559,0
DA:560,0
DA:561,0
DA:562,0
DA:563,0
DA:564,0
DA:565,0
DA:566,0
DA:567,0
DA:568,0
DA:569,0
DA:570,0
DA:573,0
DA:574,0
DA:575,0
DA:576,0
DA:577,0
DA:578,0
DA:579,0
DA:580,0
DA:581,0
DA:582,0
DA:583,0
DA:584,0
DA:586,0
DA:589,2
DA:590,2
DA:591,2
DA:592,0
DA:593,2
DA:595,2
DA:596,2
DA:597,53
DA:598,4
DA:599,3
DA:600,3
DA:601,4
DA:602,44
DA:606,2
DA:607,2
DA:609,0
DA:610,0
DA:611,0
DA:612,0
DA:614,0
DA:616,0
DA:617,0
DA:618,0
DA:619,0
DA:620,0
DA:621,0
DA:622,0
DA:623,0
DA:625,0
DA:632,1
DA:633,1
DA:634,1
DA:635,1
DA:638,1
BRF:0
BRH:0
LF:438
LH:55
end_of_record
SF:/home/admin/Desktop/opensource/soroban-debugger/src/runtime/instruction.rs
FN:246,_RNCNvMs0_NtNtCsjDzxbYtLkYp_16soroban_debugger7runtime11instructionNtB7_17InstructionParser19parse_function_body0Bb_
FN:254,_RNCNvMs0_NtNtCsjDzxbYtLkYp_16soroban_debugger7runtime11instructionNtB7_17InstructionParser19parse_function_bodys_0Bb_
FN:227,_RNCNvMs0_NtNtCsjDzxbYtLkYp_16soroban_debugger7runtime11instructionNtB7_17InstructionParser5parse0Bb_
FN:170,_RNvMNtNtCsjDzxbYtLkYp_16soroban_debugger7runtime11instructionNtB2_11Instruction15is_control_flow
FN:21,_RNvMNtNtCsjDzxbYtLkYp_16soroban_debugger7runtime11instructionNtB2_11Instruction3new
FN:36,_RNvMNtNtCsjDzxbYtLkYp_16soroban_debugger7runtime11instructionNtB2_11Instruction4name
FN:186,_RNvMNtNtCsjDzxbYtLkYp_16soroban_debugger7runtime11instructionNtB2_11Instruction7is_call
FN:144,_RNvMNtNtCsjDzxbYtLkYp_16soroban_debugger7runtime11instructionNtB2_11Instruction8operands
FN:276,_RNvMs0_NtNtCsjDzxbYtLkYp_16soroban_debugger7runtime11instructionNtB5_17InstructionParser12instructions
FN:269,_RNvMs0_NtNtCsjDzxbYtLkYp_16soroban_debugger7runtime11instructionNtB5_17InstructionParser19make_owned_operator
FN:239,_RNvMs0_NtNtCsjDzxbYtLkYp_16soroban_debugger7runtime11instructionNtB5_17InstructionParser19parse_function_body
FN:212,_RNvMs0_NtNtCsjDzxbYtLkYp_16soroban_debugger7runtime11instructionNtB5_17InstructionParser3new
FN:219,_RNvMs0_NtNtCsjDzxbYtLkYp_16soroban_debugger7runtime11instructionNtB5_17InstructionParser5parse
FN:282,_RNvXs1_NtNtCsjDzxbYtLkYp_16soroban_debugger7runtime11instructionNtB5_17InstructionParserNtNtCslH02haMvknO_4core7default7Default7default
FN:195,_RNvXs_NtNtCsjDzxbYtLkYp_16soroban_debugger7runtime11instructionNtB4_11InstructionNtNtCslH02haMvknO_4core3fmt7Display3fmt
FN:246,_RNCNvMs0_NtNtCs2jO2QXn3WZ6_16soroban_debugger7runtime11instructionNtB7_17InstructionParser19parse_function_body0Bb_
FN:254,_RNCNvMs0_NtNtCs2jO2QXn3WZ6_16soroban_debugger7runtime11instructionNtB7_17InstructionParser19parse_function_bodys_0Bb_
FN:227,_RNCNvMs0_NtNtCs2jO2QXn3WZ6_16soroban_debugger7runtime11instructionNtB7_17InstructionParser5parse0Bb_
FN:276,_RNvMs0_NtNtCs2jO2QXn3WZ6_16soroban_debugger7runtime11instructionNtB5_17InstructionParser12instructions
FN:269,_RNvMs0_NtNtCs2jO2QXn3WZ6_16soroban_debugger7runtime11instructionNtB5_17InstructionParser19make_owned_operator
FN:239,_RNvMs0_NtNtCs2jO2QXn3WZ6_16soroban_debugger7runtime11instructionNtB5_17InstructionParser19parse_function_body
FN:212,_RNvMs0_NtNtCs2jO2QXn3WZ6_16soroban_debugger7runtime11instructionNtB5_17InstructionParser3new
FN:219,_RNvMs0_NtNtCs2jO2QXn3WZ6_16soroban_debugger7runtime11instructionNtB5_17InstructionParser5parse
FN:282,_RNvXs1_NtNtCs2jO2QXn3WZ6_16soroban_debugger7runtime11instructionNtB5_17InstructionParserNtNtCslH02haMvknO_4core7default7Default7default
FN:170,_RNvMNtNtCs2jO2QXn3WZ6_16soroban_debugger7runtime11instructionNtB2_11Instruction15is_control_flow
FN:21,_RNvMNtNtCs2jO2QXn3WZ6_16soroban_debugger7runtime11instructionNtB2_11Instruction3new
FN:36,_RNvMNtNtCs2jO2QXn3WZ6_16soroban_debugger7runtime11instructionNtB2_11Instruction4name
FN:186,_RNvMNtNtCs2jO2QXn3WZ6_16soroban_debugger7runtime11instructionNtB2_11Instruction7is_call
FN:144,_RNvMNtNtCs2jO2QXn3WZ6_16soroban_debugger7runtime11instructionNtB2_11Instruction8operands
FN:195,_RNvXs_NtNtCs2jO2QXn3WZ6_16soroban_debugger7runtime11instructionNtB4_11InstructionNtNtCslH02haMvknO_4core3fmt7Display3fmt
FN:292,_RNvNtNtNtCs2jO2QXn3WZ6_16soroban_debugger7runtime11instruction5testss_24test_instruction_display
FN:298,_RNvNtNtNtCs2jO2QXn3WZ6_16soroban_debugger7runtime11instruction5testss_25test_instruction_operands
FN:304,_RNvNtNtNtCs2jO2QXn3WZ6_16soroban_debugger7runtime11instruction5testss_27test_control_flow_detection
FNDA:0,_RNCNvMs0_NtNtCsjDzxbYtLkYp_16soroban_debugger7runtime11instructionNtB7_17InstructionParser19parse_function_body0Bb_
FNDA:0,_RNCNvMs0_NtNtCsjDzxbYtLkYp_16soroban_debugger7runtime11instructionNtB7_17InstructionParser19parse_function_bodys_0Bb_
FNDA:0,_RNCNvMs0_NtNtCsjDzxbYtLkYp_16soroban_debugger7runtime11instructionNtB7_17InstructionParser5parse0Bb_
FNDA:4,_RNvMNtNtCsjDzxbYtLkYp_16soroban_debugger7runtime11instructionNtB2_11Instruction15is_control_flow
FNDA:226,_RNvMNtNtCsjDzxbYtLkYp_16soroban_debugger7runtime11instructionNtB2_11Instruction3new
FNDA:12,_RNvMNtNtCsjDzxbYtLkYp_16soroban_debugger7runtime11instructionNtB2_11Instruction4name
FNDA:10,_RNvMNtNtCsjDzxbYtLkYp_16soroban_debugger7runtime11instructionNtB2_11Instruction7is_call
FNDA:16,_RNvMNtNtCsjDzxbYtLkYp_16soroban_debugger7runtime11instructionNtB2_11Instruction8operands
FNDA:0,_RNvMs0_NtNtCsjDzxbYtLkYp_16soroban_debugger7runtime11instructionNtB5_17InstructionParser12instructions
FNDA:204,_RNvMs0_NtNtCsjDzxbYtLkYp_16soroban_debugger7runtime11instructionNtB5_17InstructionParser19make_owned_operator
FNDA:204,_RNvMs0_NtNtCsjDzxbYtLkYp_16soroban_debugger7runtime11instructionNtB5_17InstructionParser19parse_function_body
FNDA:6,_RNvMs0_NtNtCsjDzxbYtLkYp_16soroban_debugger7runtime11instructionNtB5_17InstructionParser3new
FNDA:204,_RNvMs0_NtNtCsjDzxbYtLkYp_16soroban_debugger7runtime11instructionNtB5_17InstructionParser5parse
FNDA:0,_RNvXs1_NtNtCsjDzxbYtLkYp_16soroban_debugger7runtime11instructionNtB5_17InstructionParserNtNtCslH02haMvknO_4core7default7Default7default
FNDA:2,_RNvXs_NtNtCsjDzxbYtLkYp_16soroban_debugger7runtime11instructionNtB4_11InstructionNtNtCslH02haMvknO_4core3fmt7Display3fmt
FNDA:0,_RNCNvMs0_NtNtCs2jO2QXn3WZ6_16soroban_debugger7runtime11instructionNtB7_17InstructionParser19parse_function_body0Bb_
FNDA:0,_RNCNvMs0_NtNtCs2jO2QXn3WZ6_16soroban_debugger7runtime11instructionNtB7_17InstructionParser19parse_function_bodys_0Bb_
FNDA:0,_RNCNvMs0_NtNtCs2jO2QXn3WZ6_16soroban_debugger7runtime11instructionNtB7_17InstructionParser5parse0Bb_
FNDA:0,_RNvMs0_NtNtCs2jO2QXn3WZ6_16soroban_debugger7runtime11instructionNtB5_17InstructionParser12instructions
FNDA:0,_RNvMs0_NtNtCs2jO2QXn3WZ6_16soroban_debugger7runtime11instructionNtB5_17InstructionParser19make_owned_operator
FNDA:0,_RNvMs0_NtNtCs2jO2QXn3WZ6_16soroban_debugger7runtime11instructionNtB5_17InstructionParser19parse_function_body
FNDA:0,_RNvMs0_NtNtCs2jO2QXn3WZ6_16soroban_debugger7runtime11instructionNtB5_17InstructionParser3new
FNDA:0,_RNvMs0_NtNtCs2jO2QXn3WZ6_16soroban_debugger7runtime11instructionNtB5_17InstructionParser5parse
FNDA:0,_RNvXs1_NtNtCs2jO2QXn3WZ6_16soroban_debugger7runtime11instructionNtB5_17InstructionParserNtNtCslH02haMvknO_4core7default7Default7default
FNDA:2,_RNvMNtNtCs2jO2QXn3WZ6_16soroban_debugger7runtime11instructionNtB2_11Instruction15is_control_flow
FNDA:6,_RNvMNtNtCs2jO2QXn3WZ6_16soroban_debugger7runtime11instructionNtB2_11Instruction3new
FNDA:1,_RNvMNtNtCs2jO2QXn3WZ6_16soroban_debugger7runtime11instructionNtB2_11Instruction4name
FNDA:4,_RNvMNtNtCs2jO2QXn3WZ6_16soroban_debugger7runtime11instructionNtB2_11Instruction7is_call
FNDA:2,_RNvMNtNtCs2jO2QXn3WZ6_16soroban_debugger7runtime11instructionNtB2_11Instruction8operands
FNDA:1,_RNvXs_NtNtCs2jO2QXn3WZ6_16soroban_debugger7runtime11instructionNtB4_11InstructionNtNtCslH02haMvknO_4core3fmt7Display3fmt
FNDA:1,_RNvNtNtNtCs2jO2QXn3WZ6_16soroban_debugger7runtime11instruction5testss_24test_instruction_display
FNDA:1,_RNvNtNtNtCs2jO2QXn3WZ6_16soroban_debugger7runtime11instruction5testss_25test_instruction_operands
FNDA:1,_RNvNtNtNtCs2jO2QXn3WZ6_16soroban_debugger7runtime11instruction5testss_27test_control_flow_detection
FNF:18
FNH:13
DA:21,232
DA:22,232
DA:23,232
DA:24,232
DA:25,232
DA:26,232
DA:27,232
DA:28,232
DA:29,232
DA:30,232
DA:31,232
DA:32,232
DA:33,232
DA:36,13
DA:37,13
DA:38,0
DA:39,0
DA:40,0
DA:41,0
DA:42,0
DA:43,0
DA:44,0
DA:45,0
DA:46,0
DA:47,0
DA:48,0
DA:49,0
DA:50,0
DA:51,0
DA:52,0
DA:53,4
DA:54,0
DA:55,0
DA:56,0
DA:57,0
DA:58,0
DA:59,0
DA:60,0
DA:61,0
DA:62,0
DA:63,0
DA:64,0
DA:65,0
DA:66,0
DA:67,0
DA:68,0
DA:69,0
DA:70,0
DA:71,0
DA:72,0
DA:73,0
DA:74,0
DA:75,0
DA:76,0
DA:77,0
DA:78,0
DA:79,0
DA:80,0
DA:81,0
DA:82,0
DA:83,9
DA:84,0
DA:85,0
DA:86,0
DA:87,0
DA:88,0
DA:89,0
DA:90,0
DA:91,0
DA:92,0
DA:93,0
DA:94,0
DA:95,0
DA:96,0
DA:97,0
DA:98,0
DA:99,0
DA:100,0
DA:101,0
DA:102,0
DA:103,0
DA:104,0
DA:105,0
DA:106,0
DA:107,0
DA:108,0
DA:109,0
DA:110,0
DA:111,0
DA:112,0
DA:113,0
DA:114,0
DA:115,0
DA:116,0
DA:117,0
DA:118,0
DA:119,0
DA:120,0
DA:121,0
DA:122,0
DA:123,0
DA:124,0
DA:125,0
DA:126,0
DA:127,0
DA:128,0
DA:129,0
DA:130,0
DA:131,0
DA:132,0
DA:133,0
DA:134,0
DA:135,0
DA:136,0
DA:137,0
DA:138,0
DA:139,0
DA:141,13
DA:144,18
DA:145,18
DA:146,2
DA:147,7
DA:148,0
DA:149,0
DA:150,7
DA:152,0
DA:153,0
DA:155,0
DA:156,0
DA:158,9
DA:159,0
DA:160,0
DA:161,0
DA:162,0
DA:163,0
DA:165,0
DA:167,18
DA:170,6
DA:171,3
DA:172,6
DA:183,6
DA:186,14
DA:187,8
DA:188,14
DA:191,14
DA:195,3
DA:196,3
DA:197,3
DA:198,0
DA:200,3
DA:202,3
DA:212,6
DA:213,6
DA:214,6
DA:215,6
DA:216,6
DA:219,204
DA:222,204
DA:224,204
DA:226,1224
DA:227,1224
DA:229,1224
DA:230,204
DA:231,204
DA:232,1020
DA:235,204
DA:236,204
DA:239,204
DA:240,204
DA:241,204
DA:242,204
DA:243,204
DA:244,204
DA:245,204
DA:246,204
DA:248,204
DA:250,408
DA:251,204
DA:252,204
DA:253,204
DA:254,204
DA:257,204
DA:259,204
DA:260,204
DA:262,204
DA:265,204
DA:266,204
DA:269,204
DA:272,204
DA:273,204
DA:276,0
DA:277,0
DA:278,0
DA:282,0
DA:283,0
DA:284,0
DA:292,1
DA:293,1
DA:294,1
DA:295,1
DA:298,1
DA:299,1
DA:300,1
DA:301,1
DA:304,1
DA:305,1
DA:306,1
DA:307,1
DA:309,1
DA:310,1
DA:311,1
DA:312,1
BRF:0
BRH:0
LF:215
LH:93
end_of_record
SF:/home/admin/Desktop/opensource/soroban-debugger/src/runtime/instrumentation.rs
FN:119,_RINvMs0_NtNtCsjDzxbYtLkYp_16soroban_debugger7runtime15instrumentationNtB6_12Instrumenter8set_hookpEBa_
FN:187,_RNvMs0_NtNtCsjDzxbYtLkYp_16soroban_debugger7runtime15instrumentationNtB5_12Instrumenter16instrument_block
FN:52,_RNvMNtNtCsjDzxbYtLkYp_16soroban_debugger7runtime15instrumentationNtB2_18InstructionCounter10get_sorted
FN:38,_RNvMNtNtCsjDzxbYtLkYp_16soroban_debugger7runtime15instrumentationNtB2_18InstructionCounter3get
FN:20,_RNvMNtNtCsjDzxbYtLkYp_16soroban_debugger7runtime15instrumentationNtB2_18InstructionCounter3new
FN:64,_RNvMNtNtCsjDzxbYtLkYp_16soroban_debugger7runtime15instrumentationNtB2_18InstructionCounter5reset
FN:47,_RNvMNtNtCsjDzxbYtLkYp_16soroban_debugger7runtime15instrumentationNtB2_18InstructionCounter9get_total
FN:28,_RNvMNtNtCsjDzxbYtLkYp_16soroban_debugger7runtime15instrumentationNtB2_18InstructionCounter9increment
FN:148,_RNvMs0_NtNtCsjDzxbYtLkYp_16soroban_debugger7runtime15instrumentationNtB5_12Instrumenter10instrument
FN:114,_RNvMs0_NtNtCsjDzxbYtLkYp_16soroban_debugger7runtime15instrumentationNtB5_12Instrumenter10is_enabled
FN:209,_RNvMs0_NtNtCsjDzxbYtLkYp_16soroban_debugger7runtime15instrumentationNtB5_12Instrumenter10parse_only
FN:127,_RNvMs0_NtNtCsjDzxbYtLkYp_16soroban_debugger7runtime15instrumentationNtB5_12Instrumenter11remove_hook
FN:140,_RNvMs0_NtNtCsjDzxbYtLkYp_16soroban_debugger7runtime15instrumentationNtB5_12Instrumenter12instructions
FN:132,_RNvMs0_NtNtCsjDzxbYtLkYp_16soroban_debugger7runtime15instrumentationNtB5_12Instrumenter18parse_instructions
FN:174,_RNvMs0_NtNtCsjDzxbYtLkYp_16soroban_debugger7runtime15instrumentationNtB5_12Instrumenter19instrument_function
FN:94,_RNvMs0_NtNtCsjDzxbYtLkYp_16soroban_debugger7runtime15instrumentationNtB5_12Instrumenter3new
FN:104,_RNvMs0_NtNtCsjDzxbYtLkYp_16soroban_debugger7runtime15instrumentationNtB5_12Instrumenter6enable
FN:109,_RNvMs0_NtNtCsjDzxbYtLkYp_16soroban_debugger7runtime15instrumentationNtB5_12Instrumenter7disable
FN:198,_RNvMs0_NtNtCsjDzxbYtLkYp_16soroban_debugger7runtime15instrumentationNtB5_12Instrumenter9call_hook
FN:217,_RNvXs1_NtNtCsjDzxbYtLkYp_16soroban_debugger7runtime15instrumentationNtB5_12InstrumenterNtNtCslH02haMvknO_4core7default7Default7default
FN:75,_RNvXs_NtNtCsjDzxbYtLkYp_16soroban_debugger7runtime15instrumentationNtB4_18InstructionCounterNtNtCslH02haMvknO_4core7default7Default7default
FN:57,_RNCNCNvMNtNtCsjDzxbYtLkYp_16soroban_debugger7runtime15instrumentationNtB6_18InstructionCounter10get_sorted00Ba_
FN:57,_RNCNvMNtNtCsjDzxbYtLkYp_16soroban_debugger7runtime15instrumentationNtB4_18InstructionCounter10get_sorted0B8_
FN:59,_RNCNvMNtNtCsjDzxbYtLkYp_16soroban_debugger7runtime15instrumentationNtB4_18InstructionCounter10get_sorteds_0B8_
FN:42,_RNCNvMNtNtCsjDzxbYtLkYp_16soroban_debugger7runtime15instrumentationNtB4_18InstructionCounter3get0B8_
FN:48,_RNCNvMNtNtCsjDzxbYtLkYp_16soroban_debugger7runtime15instrumentationNtB4_18InstructionCounter9get_total0B8_
FN:157,_RNCNvMs0_NtNtCsjDzxbYtLkYp_16soroban_debugger7runtime15instrumentationNtB7_12Instrumenter10instrument0Bb_
FN:119,_RINvMs0_NtNtCs2jO2QXn3WZ6_16soroban_debugger7runtime15instrumentationNtB6_12Instrumenter8set_hookpEBa_
FN:57,_RNCNCNvMNtNtCs2jO2QXn3WZ6_16soroban_debugger7runtime15instrumentationNtB6_18InstructionCounter10get_sorted00Ba_
FN:57,_RNCNvMNtNtCs2jO2QXn3WZ6_16soroban_debugger7runtime15instrumentationNtB4_18InstructionCounter10get_sorted0B8_
FN:59,_RNCNvMNtNtCs2jO2QXn3WZ6_16soroban_debugger7runtime15instrumentationNtB4_18InstructionCounter10get_sorteds_0B8_
FN:42,_RNCNvMNtNtCs2jO2QXn3WZ6_16soroban_debugger7runtime15instrumentationNtB4_18InstructionCounter3get0B8_
FN:48,_RNCNvMNtNtCs2jO2QXn3WZ6_16soroban_debugger7runtime15instrumentationNtB4_18InstructionCounter9get_total0B8_
FN:157,_RNCNvMs0_NtNtCs2jO2QXn3WZ6_16soroban_debugger7runtime15instrumentationNtB7_12Instrumenter10instrument0Bb_
FN:52,_RNvMNtNtCs2jO2QXn3WZ6_16soroban_debugger7runtime15instrumentationNtB2_18InstructionCounter10get_sorted
FN:38,_RNvMNtNtCs2jO2QXn3WZ6_16soroban_debugger7runtime15instrumentationNtB2_18InstructionCounter3get
FN:20,_RNvMNtNtCs2jO2QXn3WZ6_16soroban_debugger7runtime15instrumentationNtB2_18InstructionCounter3new
FN:64,_RNvMNtNtCs2jO2QXn3WZ6_16soroban_debugger7runtime15instrumentationNtB2_18InstructionCounter5reset
FN:47,_RNvMNtNtCs2jO2QXn3WZ6_16soroban_debugger7runtime15instrumentationNtB2_18InstructionCounter9get_total
FN:28,_RNvMNtNtCs2jO2QXn3WZ6_16soroban_debugger7runtime15instrumentationNtB2_18InstructionCounter9increment
FN:148,_RNvMs0_NtNtCs2jO2QXn3WZ6_16soroban_debugger7runtime15instrumentationNtB5_12Instrumenter10instrument
FN:114,_RNvMs0_NtNtCs2jO2QXn3WZ6_16soroban_debugger7runtime15instrumentationNtB5_12Instrumenter10is_enabled
FN:209,_RNvMs0_NtNtCs2jO2QXn3WZ6_16soroban_debugger7runtime15instrumentationNtB5_12Instrumenter10parse_only
FN:127,_RNvMs0_NtNtCs2jO2QXn3WZ6_16soroban_debugger7runtime15instrumentationNtB5_12Instrumenter11remove_hook
FN:140,_RNvMs0_NtNtCs2jO2QXn3WZ6_16soroban_debugger7runtime15instrumentationNtB5_12Instrumenter12instructions
FN:187,_RNvMs0_NtNtCs2jO2QXn3WZ6_16soroban_debugger7runtime15instrumentationNtB5_12Instrumenter16instrument_block
FN:132,_RNvMs0_NtNtCs2jO2QXn3WZ6_16soroban_debugger7runtime15instrumentationNtB5_12Instrumenter18parse_instructions
FN:174,_RNvMs0_NtNtCs2jO2QXn3WZ6_16soroban_debugger7runtime15instrumentationNtB5_12Instrumenter19instrument_function
FN:94,_RNvMs0_NtNtCs2jO2QXn3WZ6_16soroban_debugger7runtime15instrumentationNtB5_12Instrumenter3new
FN:104,_RNvMs0_NtNtCs2jO2QXn3WZ6_16soroban_debugger7runtime15instrumentationNtB5_12Instrumenter6enable
FN:109,_RNvMs0_NtNtCs2jO2QXn3WZ6_16soroban_debugger7runtime15instrumentationNtB5_12Instrumenter7disable
FN:198,_RNvMs0_NtNtCs2jO2QXn3WZ6_16soroban_debugger7runtime15instrumentationNtB5_12Instrumenter9call_hook
FN:217,_RNvXs1_NtNtCs2jO2QXn3WZ6_16soroban_debugger7runtime15instrumentationNtB5_12InstrumenterNtNtCslH02haMvknO_4core7default7Default7default
FN:75,_RNvXs_NtNtCs2jO2QXn3WZ6_16soroban_debugger7runtime15instrumentationNtB4_18InstructionCounterNtNtCslH02haMvknO_4core7default7Default7default
FNDA:0,_RINvMs0_NtNtCsjDzxbYtLkYp_16soroban_debugger7runtime15instrumentationNtB6_12Instrumenter8set_hookpEBa_
FNDA:0,_RNvMs0_NtNtCsjDzxbYtLkYp_16soroban_debugger7runtime15instrumentationNtB5_12Instrumenter16instrument_block
FNDA:0,_RNvMNtNtCsjDzxbYtLkYp_16soroban_debugger7runtime15instrumentationNtB2_18InstructionCounter10get_sorted
FNDA:0,_RNvMNtNtCsjDzxbYtLkYp_16soroban_debugger7runtime15instrumentationNtB2_18InstructionCounter3get
FNDA:0,_RNvMNtNtCsjDzxbYtLkYp_16soroban_debugger7runtime15instrumentationNtB2_18InstructionCounter3new
FNDA:0,_RNvMNtNtCsjDzxbYtLkYp_16soroban_debugger7runtime15instrumentationNtB2_18InstructionCounter5reset
FNDA:0,_RNvMNtNtCsjDzxbYtLkYp_16soroban_debugger7runtime15instrumentationNtB2_18InstructionCounter9get_total
FNDA:0,_RNvMNtNtCsjDzxbYtLkYp_16soroban_debugger7runtime15instrumentationNtB2_18InstructionCounter9increment
FNDA:0,_RNvMs0_NtNtCsjDzxbYtLkYp_16soroban_debugger7runtime15instrumentationNtB5_12Instrumenter10instrument
FNDA:0,_RNvMs0_NtNtCsjDzxbYtLkYp_16soroban_debugger7runtime15instrumentationNtB5_12Instrumenter10is_enabled
FNDA:0,_RNvMs0_NtNtCsjDzxbYtLkYp_16soroban_debugger7runtime15instrumentationNtB5_12Instrumenter10parse_only
FNDA:0,_RNvMs0_NtNtCsjDzxbYtLkYp_16soroban_debugger7runtime15instrumentationNtB5_12Instrumenter11remove_hook
FNDA:0,_RNvMs0_NtNtCsjDzxbYtLkYp_16soroban_debugger7runtime15instrumentationNtB5_12Instrumenter12instructions
FNDA:0,_RNvMs0_NtNtCsjDzxbYtLkYp_16soroban_debugger7runtime15instrumentationNtB5_12Instrumenter18parse_instructions
FNDA:0,_RNvMs0_NtNtCsjDzxbYtLkYp_16soroban_debugger7runtime15instrumentationNtB5_12Instrumenter19instrument_function
FNDA:0,_RNvMs0_NtNtCsjDzxbYtLkYp_16soroban_debugger7runtime15instrumentationNtB5_12Instrumenter3new
FNDA:0,_RNvMs0_NtNtCsjDzxbYtLkYp_16soroban_debugger7runtime15instrumentationNtB5_12Instrumenter6enable
FNDA:0,_RNvMs0_NtNtCsjDzxbYtLkYp_16soroban_debugger7runtime15instrumentationNtB5_12Instrumenter7disable
FNDA:0,_RNvMs0_NtNtCsjDzxbYtLkYp_16soroban_debugger7runtime15instrumentationNtB5_12Instrumenter9call_hook
FNDA:0,_RNvXs1_NtNtCsjDzxbYtLkYp_16soroban_debugger7runtime15instrumentationNtB5_12InstrumenterNtNtCslH02haMvknO_4core7default7Default7default
FNDA:0,_RNvXs_NtNtCsjDzxbYtLkYp_16soroban_debugger7runtime15instrumentationNtB4_18InstructionCounterNtNtCslH02haMvknO_4core7default7Default7default
FNDA:0,_RNCNCNvMNtNtCsjDzxbYtLkYp_16soroban_debugger7runtime15instrumentationNtB6_18InstructionCounter10get_sorted00Ba_
FNDA:0,_RNCNvMNtNtCsjDzxbYtLkYp_16soroban_debugger7runtime15instrumentationNtB4_18InstructionCounter10get_sorted0B8_
FNDA:0,_RNCNvMNtNtCsjDzxbYtLkYp_16soroban_debugger7runtime15instrumentationNtB4_18InstructionCounter10get_sorteds_0B8_
FNDA:0,_RNCNvMNtNtCsjDzxbYtLkYp_16soroban_debugger7runtime15instrumentationNtB4_18InstructionCounter3get0B8_
FNDA:0,_RNCNvMNtNtCsjDzxbYtLkYp_16soroban_debugger7runtime15instrumentationNtB4_18InstructionCounter9get_total0B8_
FNDA:0,_RNCNvMs0_NtNtCsjDzxbYtLkYp_16soroban_debugger7runtime15instrumentationNtB7_12Instrumenter10instrument0Bb_
FNDA:0,_RINvMs0_NtNtCs2jO2QXn3WZ6_16soroban_debugger7runtime15instrumentationNtB6_12Instrumenter8set_hookpEBa_
FNDA:0,_RNCNCNvMNtNtCs2jO2QXn3WZ6_16soroban_debugger7runtime15instrumentationNtB6_18InstructionCounter10get_sorted00Ba_
FNDA:0,_RNCNvMNtNtCs2jO2QXn3WZ6_16soroban_debugger7runtime15instrumentationNtB4_18InstructionCounter10get_sorted0B8_
FNDA:0,_RNCNvMNtNtCs2jO2QXn3WZ6_16soroban_debugger7runtime15instrumentationNtB4_18InstructionCounter10get_sorteds_0B8_
FNDA:0,_RNCNvMNtNtCs2jO2QXn3WZ6_16soroban_debugger7runtime15instrumentationNtB4_18InstructionCounter3get0B8_
FNDA:0,_RNCNvMNtNtCs2jO2QXn3WZ6_16soroban_debugger7runtime15instrumentationNtB4_18InstructionCounter9get_total0B8_
FNDA:0,_RNCNvMs0_NtNtCs2jO2QXn3WZ6_16soroban_debugger7runtime15instrumentationNtB7_12Instrumenter10instrument0Bb_
FNDA:0,_RNvMNtNtCs2jO2QXn3WZ6_16soroban_debugger7runtime15instrumentationNtB2_18InstructionCounter10get_sorted
FNDA:0,_RNvMNtNtCs2jO2QXn3WZ6_16soroban_debugger7runtime15instrumentationNtB2_18InstructionCounter3get
FNDA:0,_RNvMNtNtCs2jO2QXn3WZ6_16soroban_debugger7runtime15instrumentationNtB2_18InstructionCounter3new
FNDA:0,_RNvMNtNtCs2jO2QXn3WZ6_16soroban_debugger7runtime15instrumentationNtB2_18InstructionCounter5reset
FNDA:0,_RNvMNtNtCs2jO2QXn3WZ6_16soroban_debugger7runtime15instrumentationNtB2_18InstructionCounter9get_total
FNDA:0,_RNvMNtNtCs2jO2QXn3WZ6_16soroban_debugger7runtime15instrumentationNtB2_18InstructionCounter9increment
FNDA:0,_RNvMs0_NtNtCs2jO2QXn3WZ6_16soroban_debugger7runtime15instrumentationNtB5_12Instrumenter10instrument
FNDA:0,_RNvMs0_NtNtCs2jO2QXn3WZ6_16soroban_debugger7runtime15instrumentationNtB5_12Instrumenter10is_enabled
FNDA:0,_RNvMs0_NtNtCs2jO2QXn3WZ6_16soroban_debugger7runtime15instrumentationNtB5_12Instrumenter10parse_only
FNDA:0,_RNvMs0_NtNtCs2jO2QXn3WZ6_16soroban_debugger7runtime15instrumentationNtB5_12Instrumenter11remove_hook
FNDA:0,_RNvMs0_NtNtCs2jO2QXn3WZ6_16soroban_debugger7runtime15instrumentationNtB5_12Instrumenter12instructions
FNDA:0,_RNvMs0_NtNtCs2jO2QXn3WZ6_16soroban_debugger7runtime15instrumentationNtB5_12Instrumenter16instrument_block
FNDA:0,_RNvMs0_NtNtCs2jO2QXn3WZ6_16soroban_debugger7runtime15instrumentationNtB5_12Instrumenter18parse_instructions
FNDA:0,_RNvMs0_NtNtCs2jO2QXn3WZ6_16soroban_debugger7runtime15instrumentationNtB5_12Instrumenter19instrument_function
FNDA:0,_RNvMs0_NtNtCs2jO2QXn3WZ6_16soroban_debugger7runtime15instrumentationNtB5_12Instrumenter3new
FNDA:0,_RNvMs0_NtNtCs2jO2QXn3WZ6_16soroban_debugger7runtime15instrumentationNtB5_12Instrumenter6enable
FNDA:0,_RNvMs0_NtNtCs2jO2QXn3WZ6_16soroban_debugger7runtime15instrumentationNtB5_12Instrumenter7disable
FNDA:0,_RNvMs0_NtNtCs2jO2QXn3WZ6_16soroban_debugger7runtime15instrumentationNtB5_12Instrumenter9call_hook
FNDA:0,_RNvXs1_NtNtCs2jO2QXn3WZ6_16soroban_debugger7runtime15instrumentationNtB5_12InstrumenterNtNtCslH02haMvknO_4core7default7Default7default
FNDA:0,_RNvXs_NtNtCs2jO2QXn3WZ6_16soroban_debugger7runtime15instrumentationNtB4_18InstructionCounterNtNtCslH02haMvknO_4core7default7Default7default
FNF:27
FNH:0
DA:20,0
DA:21,0
DA:22,0
DA:23,0
DA:24,0
DA:25,0
DA:28,0
DA:29,0
DA:30,0
DA:31,0
DA:32,0
DA:33,0
DA:34,0
DA:35,0
DA:38,0
DA:39,0
DA:40,0
DA:41,0
DA:42,0
DA:43,0
DA:44,0
DA:47,0
DA:48,0
DA:49,0
DA:52,0
DA:53,0
DA:54,0
DA:55,0
DA:56,0
DA:57,0
DA:58,0
DA:59,0
DA:60,0
DA:61,0
DA:64,0
DA:65,0
DA:66,0
DA:67,0
DA:68,0
DA:69,0
DA:70,0
DA:71,0
DA:75,0
DA:76,0
DA:77,0
DA:94,0
DA:95,0
DA:96,0
DA:97,0
DA:98,0
DA:99,0
DA:100,0
DA:101,0
DA:104,0
DA:105,0
DA:106,0
DA:109,0
DA:110,0
DA:111,0
DA:114,0
DA:115,0
DA:116,0
DA:119,0
DA:120,0
DA:121,0
DA:123,0
DA:124,0
DA:127,0
DA:128,0
DA:129,0
DA:132,0
DA:133,0
DA:134,0
DA:135,0
DA:136,0
DA:137,0
DA:140,0
DA:141,0
DA:142,0
DA:148,0
DA:149,0
DA:151,0
DA:152,0
DA:155,0
DA:156,0
DA:157,0
DA:160,0
DA:161,0
DA:164,0
DA:165,0
DA:166,0
DA:170,0
DA:171,0
DA:174,0
DA:175,0
DA:176,0
DA:177,0
DA:178,0
DA:179,0
DA:182,0
DA:183,0
DA:187,0
DA:188,0
DA:189,0
DA:190,0
DA:191,0
DA:194,0
DA:195,0
DA:198,0
DA:199,0
DA:200,0
DA:202,0
DA:204,0
DA:206,0
DA:209,0
DA:210,0
DA:211,0
DA:212,0
DA:213,0
DA:217,0
DA:218,0
DA:219,0
BRF:0
BRH:0
LF:128
LH:0
end_of_record
SF:/home/admin/Desktop/opensource/soroban-debugger/src/runtime/mocking.rs
FN:91,_RNCNvMNtNtCsjDzxbYtLkYp_16soroban_debugger7runtime7mockingNtB4_12MockRegistry10parse_spec0B8_
FN:113,_RNCNvMNtNtCsjDzxbYtLkYp_16soroban_debugger7runtime7mockingNtB4_12MockRegistry10parse_specs0_0B8_
FN:96,_RNCNvMNtNtCsjDzxbYtLkYp_16soroban_debugger7runtime7mockingNtB4_12MockRegistry10parse_specs_0B8_
FN:53,_RNCNvMNtNtCsjDzxbYtLkYp_16soroban_debugger7runtime7mockingNtB4_12MockRegistry19mocked_contract_ids0B8_
FN:90,_RNvMNtNtCsjDzxbYtLkYp_16soroban_debugger7runtime7mockingNtB2_12MockRegistry10parse_spec
FN:56,_RNvMNtNtCsjDzxbYtLkYp_16soroban_debugger7runtime7mockingNtB2_12MockRegistry12resolve_call
FN:39,_RNvMNtNtCsjDzxbYtLkYp_16soroban_debugger7runtime7mockingNtB2_12MockRegistry14from_cli_specs
FN:52,_RNvMNtNtCsjDzxbYtLkYp_16soroban_debugger7runtime7mockingNtB2_12MockRegistry19mocked_contract_ids
FN:86,_RNvMNtNtCsjDzxbYtLkYp_16soroban_debugger7runtime7mockingNtB2_12MockRegistry5calls
FN:138,_RNvMs_NtNtCsjDzxbYtLkYp_16soroban_debugger7runtime7mockingNtB4_22MockContractDispatcher3new
FN:145,_RNvMs_NtNtCsjDzxbYtLkYp_16soroban_debugger7runtime7mockingNtB4_22MockContractDispatcher5boxed
FN:151,_RNvXs0_NtNtCsjDzxbYtLkYp_16soroban_debugger7runtime7mockingNtB5_22MockContractDispatcherNtNtNtCs80c0TC3YTDq_16soroban_env_host4host5frame19ContractFunctionSet4call
FN:53,_RNCNvMNtNtCs2jO2QXn3WZ6_16soroban_debugger7runtime7mockingNtB4_12MockRegistry19mocked_contract_ids0B8_
FN:52,_RNvMNtNtCs2jO2QXn3WZ6_16soroban_debugger7runtime7mockingNtB2_12MockRegistry19mocked_contract_ids
FN:138,_RNvMs_NtNtCs2jO2QXn3WZ6_16soroban_debugger7runtime7mockingNtB4_22MockContractDispatcher3new
FN:145,_RNvMs_NtNtCs2jO2QXn3WZ6_16soroban_debugger7runtime7mockingNtB4_22MockContractDispatcher5boxed
FN:151,_RNvXs0_NtNtCs2jO2QXn3WZ6_16soroban_debugger7runtime7mockingNtB5_22MockContractDispatcherNtNtNtCs80c0TC3YTDq_16soroban_env_host4host5frame19ContractFunctionSet4call
FN:90,_RNvMNtNtCs2jO2QXn3WZ6_16soroban_debugger7runtime7mockingNtB2_12MockRegistry10parse_spec
FN:56,_RNvMNtNtCs2jO2QXn3WZ6_16soroban_debugger7runtime7mockingNtB2_12MockRegistry12resolve_call
FN:39,_RNvMNtNtCs2jO2QXn3WZ6_16soroban_debugger7runtime7mockingNtB2_12MockRegistry14from_cli_specs
FN:86,_RNvMNtNtCs2jO2QXn3WZ6_16soroban_debugger7runtime7mockingNtB2_12MockRegistry5calls
FN:91,_RNCNvMNtNtCs2jO2QXn3WZ6_16soroban_debugger7runtime7mockingNtB4_12MockRegistry10parse_spec0B8_
FN:113,_RNCNvMNtNtCs2jO2QXn3WZ6_16soroban_debugger7runtime7mockingNtB4_12MockRegistry10parse_specs0_0B8_
FN:96,_RNCNvMNtNtCs2jO2QXn3WZ6_16soroban_debugger7runtime7mockingNtB4_12MockRegistry10parse_specs_0B8_
FN:201,_RNvNtNtNtCs2jO2QXn3WZ6_16soroban_debugger7runtime7mocking5testss_33logs_unmocked_cross_contract_call
FN:183,_RNvNtNtNtCs2jO2QXn3WZ6_16soroban_debugger7runtime7mocking5testss_35resolves_mocked_cross_contract_call
FNDA:0,_RNCNvMNtNtCsjDzxbYtLkYp_16soroban_debugger7runtime7mockingNtB4_12MockRegistry10parse_spec0B8_
FNDA:0,_RNCNvMNtNtCsjDzxbYtLkYp_16soroban_debugger7runtime7mockingNtB4_12MockRegistry10parse_specs0_0B8_
FNDA:0,_RNCNvMNtNtCsjDzxbYtLkYp_16soroban_debugger7runtime7mockingNtB4_12MockRegistry10parse_specs_0B8_
FNDA:0,_RNCNvMNtNtCsjDzxbYtLkYp_16soroban_debugger7runtime7mockingNtB4_12MockRegistry19mocked_contract_ids0B8_
FNDA:0,_RNvMNtNtCsjDzxbYtLkYp_16soroban_debugger7runtime7mockingNtB2_12MockRegistry10parse_spec
FNDA:0,_RNvMNtNtCsjDzxbYtLkYp_16soroban_debugger7runtime7mockingNtB2_12MockRegistry12resolve_call
FNDA:0,_RNvMNtNtCsjDzxbYtLkYp_16soroban_debugger7runtime7mockingNtB2_12MockRegistry14from_cli_specs
FNDA:0,_RNvMNtNtCsjDzxbYtLkYp_16soroban_debugger7runtime7mockingNtB2_12MockRegistry19mocked_contract_ids
FNDA:0,_RNvMNtNtCsjDzxbYtLkYp_16soroban_debugger7runtime7mockingNtB2_12MockRegistry5calls
FNDA:0,_RNvMs_NtNtCsjDzxbYtLkYp_16soroban_debugger7runtime7mockingNtB4_22MockContractDispatcher3new
FNDA:0,_RNvMs_NtNtCsjDzxbYtLkYp_16soroban_debugger7runtime7mockingNtB4_22MockContractDispatcher5boxed
FNDA:0,_RNvXs0_NtNtCsjDzxbYtLkYp_16soroban_debugger7runtime7mockingNtB5_22MockContractDispatcherNtNtNtCs80c0TC3YTDq_16soroban_env_host4host5frame19ContractFunctionSet4call
FNDA:0,_RNCNvMNtNtCs2jO2QXn3WZ6_16soroban_debugger7runtime7mockingNtB4_12MockRegistry19mocked_contract_ids0B8_
FNDA:0,_RNvMNtNtCs2jO2QXn3WZ6_16soroban_debugger7runtime7mockingNtB2_12MockRegistry19mocked_contract_ids
FNDA:0,_RNvMs_NtNtCs2jO2QXn3WZ6_16soroban_debugger7runtime7mockingNtB4_22MockContractDispatcher3new
FNDA:0,_RNvMs_NtNtCs2jO2QXn3WZ6_16soroban_debugger7runtime7mockingNtB4_22MockContractDispatcher5boxed
FNDA:0,_RNvXs0_NtNtCs2jO2QXn3WZ6_16soroban_debugger7runtime7mockingNtB5_22MockContractDispatcherNtNtNtCs80c0TC3YTDq_16soroban_env_host4host5frame19ContractFunctionSet4call
FNDA:2,_RNvMNtNtCs2jO2QXn3WZ6_16soroban_debugger7runtime7mockingNtB2_12MockRegistry10parse_spec
FNDA:2,_RNvMNtNtCs2jO2QXn3WZ6_16soroban_debugger7runtime7mockingNtB2_12MockRegistry12resolve_call
FNDA:2,_RNvMNtNtCs2jO2QXn3WZ6_16soroban_debugger7runtime7mockingNtB2_12MockRegistry14from_cli_specs
FNDA:4,_RNvMNtNtCs2jO2QXn3WZ6_16soroban_debugger7runtime7mockingNtB2_12MockRegistry5calls
FNDA:0,_RNCNvMNtNtCs2jO2QXn3WZ6_16soroban_debugger7runtime7mockingNtB4_12MockRegistry10parse_spec0B8_
FNDA:0,_RNCNvMNtNtCs2jO2QXn3WZ6_16soroban_debugger7runtime7mockingNtB4_12MockRegistry10parse_specs0_0B8_
FNDA:0,_RNCNvMNtNtCs2jO2QXn3WZ6_16soroban_debugger7runtime7mockingNtB4_12MockRegistry10parse_specs_0B8_
FNDA:1,_RNvNtNtNtCs2jO2QXn3WZ6_16soroban_debugger7runtime7mocking5testss_33logs_unmocked_cross_contract_call
FNDA:1,_RNvNtNtNtCs2jO2QXn3WZ6_16soroban_debugger7runtime7mocking5testss_35resolves_mocked_cross_contract_call
FNF:14
FNH:6
DA:39,2
DA:40,2
DA:41,2
DA:42,2
DA:43,2
DA:44,2
DA:46,2
DA:47,2
DA:48,2
DA:49,2
DA:50,2
DA:52,0
DA:53,0
DA:54,0
DA:56,2
DA:57,2
DA:58,2
DA:59,2
DA:60,2
DA:61,2
DA:62,2
DA:63,2
DA:64,2
DA:65,2
DA:66,2
DA:67,1
DA:68,1
DA:69,1
DA:70,1
DA:71,1
DA:72,1
DA:73,1
DA:74,1
DA:75,1
DA:76,1
DA:77,1
DA:78,1
DA:79,1
DA:80,1
DA:81,1
DA:82,1
DA:83,1
DA:84,2
DA:86,4
DA:87,4
DA:88,4
DA:90,2
DA:91,2
DA:92,0
DA:93,0
DA:94,0
DA:95,0
DA:96,2
DA:97,0
DA:98,0
DA:99,0
DA:100,0
DA:101,2
DA:102,2
DA:103,2
DA:104,2
DA:105,0
DA:106,0
DA:107,0
DA:108,0
DA:109,2
DA:111,2
DA:112,2
DA:113,2
DA:114,2
DA:115,0
DA:116,0
DA:117,0
DA:118,0
DA:119,2
DA:121,2
DA:122,2
DA:123,2
DA:124,2
DA:125,2
DA:126,2
DA:127,2
DA:128,2
DA:129,2
DA:138,0
DA:139,0
DA:140,0
DA:141,0
DA:142,0
DA:143,0
DA:145,0
DA:146,0
DA:147,0
DA:151,0
DA:152,0
DA:153,0
DA:154,0
DA:155,0
DA:156,0
DA:157,0
DA:158,0
DA:160,0
DA:162,0
DA:163,0
DA:164,0
DA:166,0
DA:167,0
DA:168,0
DA:172,0
DA:173,0
DA:174,0
DA:183,1
DA:184,1
DA:185,1
DA:186,1
DA:187,1
DA:189,1
DA:190,1
DA:191,1
DA:195,1
DA:196,1
DA:197,1
DA:198,1
DA:201,1
DA:202,1
DA:203,1
DA:204,1
DA:205,1
DA:207,1
DA:208,1
DA:209,1
DA:213,1
DA:214,1
DA:215,1
DA:216,1
BRF:0
BRH:0
LF:141
LH:89
end_of_record
SF:/home/admin/Desktop/opensource/soroban-debugger/src/scenario.rs
FN:30,_RNCNvNtCsjDzxbYtLkYp_16soroban_debugger8scenario12run_scenario0B5_
FN:46,_RNCNvNtCsjDzxbYtLkYp_16soroban_debugger8scenario12run_scenarios0_0B5_
FN:53,_RNCNvNtCsjDzxbYtLkYp_16soroban_debugger8scenario12run_scenarios1_0B5_
FN:38,_RNCNvNtCsjDzxbYtLkYp_16soroban_debugger8scenario12run_scenarios_0B5_
FN:25,_RNvNtCsjDzxbYtLkYp_16soroban_debugger8scenario12run_scenario
FN:30,_RNCNvNtCs2jO2QXn3WZ6_16soroban_debugger8scenario12run_scenario0B5_
FN:46,_RNCNvNtCs2jO2QXn3WZ6_16soroban_debugger8scenario12run_scenarios0_0B5_
FN:53,_RNCNvNtCs2jO2QXn3WZ6_16soroban_debugger8scenario12run_scenarios1_0B5_
FN:38,_RNCNvNtCs2jO2QXn3WZ6_16soroban_debugger8scenario12run_scenarios_0B5_
FN:25,_RNvNtCs2jO2QXn3WZ6_16soroban_debugger8scenario12run_scenario
FN:220,_RNCNvNtNtCs2jO2QXn3WZ6_16soroban_debugger8scenario5testss_29test_scenario_deserialization0B7_
FN:185,_RNvNtNtCs2jO2QXn3WZ6_16soroban_debugger8scenario5testss_29test_scenario_deserialization
FNDA:0,_RNCNvNtCsjDzxbYtLkYp_16soroban_debugger8scenario12run_scenario0B5_
FNDA:0,_RNCNvNtCsjDzxbYtLkYp_16soroban_debugger8scenario12run_scenarios0_0B5_
FNDA:0,_RNCNvNtCsjDzxbYtLkYp_16soroban_debugger8scenario12run_scenarios1_0B5_
FNDA:0,_RNCNvNtCsjDzxbYtLkYp_16soroban_debugger8scenario12run_scenarios_0B5_
FNDA:0,_RNvNtCsjDzxbYtLkYp_16soroban_debugger8scenario12run_scenario
FNDA:0,_RNCNvNtCs2jO2QXn3WZ6_16soroban_debugger8scenario12run_scenario0B5_
FNDA:0,_RNCNvNtCs2jO2QXn3WZ6_16soroban_debugger8scenario12run_scenarios0_0B5_
FNDA:0,_RNCNvNtCs2jO2QXn3WZ6_16soroban_debugger8scenario12run_scenarios1_0B5_
FNDA:0,_RNCNvNtCs2jO2QXn3WZ6_16soroban_debugger8scenario12run_scenarios_0B5_
FNDA:0,_RNvNtCs2jO2QXn3WZ6_16soroban_debugger8scenario12run_scenario
FNDA:1,_RNCNvNtNtCs2jO2QXn3WZ6_16soroban_debugger8scenario5testss_29test_scenario_deserialization0B7_
FNDA:1,_RNvNtNtCs2jO2QXn3WZ6_16soroban_debugger8scenario5testss_29test_scenario_deserialization
FNF:7
FNH:2
DA:25,0
DA:26,0
DA:28,0
DA:30,0
DA:31,0
DA:32,0
DA:33,0
DA:34,0
DA:35,0
DA:37,0
DA:38,0
DA:40,0
DA:42,0
DA:44,0
DA:46,0
DA:47,0
DA:48,0
DA:50,0
DA:52,0
DA:53,0
DA:54,0
DA:55,0
DA:56,0
DA:57,0
DA:59,0
DA:61,0
DA:63,0
DA:67,0
DA:68,0
DA:70,0
DA:71,0
DA:72,0
DA:74,0
DA:77,0
DA:78,0
DA:80,0
DA:84,0
DA:86,0
DA:88,0
DA:89,0
DA:90,0
DA:91,0
DA:92,0
DA:93,0
DA:94,0
DA:95,0
DA:96,0
DA:97,0
DA:98,0
DA:99,0
DA:100,0
DA:101,0
DA:102,0
DA:103,0
DA:104,0
DA:105,0
DA:106,0
DA:107,0
DA:109,0
DA:110,0
DA:111,0
DA:112,0
DA:113,0
DA:114,0
DA:115,0
DA:119,0
DA:120,0
DA:121,0
DA:122,0
DA:123,0
DA:124,0
DA:125,0
DA:126,0
DA:127,0
DA:128,0
DA:129,0
DA:130,0
DA:131,0
DA:132,0
DA:133,0
DA:134,0
DA:135,0
DA:136,0
DA:137,0
DA:138,0
DA:139,0
DA:140,0
DA:141,0
DA:142,0
DA:143,0
DA:144,0
DA:145,0
DA:146,0
DA:148,0
DA:149,0
DA:150,0
DA:151,0
DA:152,0
DA:154,0
DA:155,0
DA:156,0
DA:157,0
DA:158,0
DA:159,0
DA:160,0
DA:162,0
DA:164,0
DA:165,0
DA:169,0
DA:170,0
DA:172,0
DA:174,0
DA:176,0
DA:178,0
DA:185,1
DA:186,1
DA:187,1
DA:188,1
DA:189,1
DA:190,1
DA:191,1
DA:192,1
DA:193,1
DA:194,1
DA:195,1
DA:196,1
DA:197,1
DA:198,1
DA:199,1
DA:201,1
DA:202,1
DA:204,1
DA:205,1
DA:206,1
DA:207,1
DA:208,1
DA:210,1
DA:211,1
DA:212,1
DA:213,1
DA:214,1
DA:215,1
DA:216,1
DA:217,1
DA:218,1
DA:219,1
DA:220,1
DA:223,1
BRF:0
BRH:0
LF:156
LH:35
end_of_record
SF:/home/admin/Desktop/opensource/soroban-debugger/src/server/debug_server.rs
FN:74,_RINvMNtNtCsjDzxbYtLkYp_16soroban_debugger6server12debug_serverNtB3_11DebugServer24handle_single_connectionpEB7_
FN:161,_RINvNtNtCsjDzxbYtLkYp_16soroban_debugger6server12debug_server13send_responsepEB6_
FN:77,_RNCINvMNtNtCsjDzxbYtLkYp_16soroban_debugger6server12debug_serverNtB5_11DebugServer24handle_single_connectionpE0B9_
FN:164,_RNCINvNtNtCsjDzxbYtLkYp_16soroban_debugger6server12debug_server13send_responsepE0B8_
FN:85,_RNCNCINvMNtNtCsjDzxbYtLkYp_16soroban_debugger6server12debug_serverNtB7_11DebugServer24handle_single_connectionpE00Bb_
FN:166,_RNCNCINvNtNtCsjDzxbYtLkYp_16soroban_debugger6server12debug_server13send_responsepE00Ba_
FN:170,_RNCNCINvNtNtCsjDzxbYtLkYp_16soroban_debugger6server12debug_server13send_responsepE0s_0Ba_
FN:44,_RNCNCNvMNtNtCsjDzxbYtLkYp_16soroban_debugger6server12debug_serverNtB6_11DebugServer3run00Ba_
FN:56,_RNCNCNvMNtNtCsjDzxbYtLkYp_16soroban_debugger6server12debug_serverNtB6_11DebugServer3run0s0_0Ba_
FN:50,_RNCNCNvMNtNtCsjDzxbYtLkYp_16soroban_debugger6server12debug_serverNtB6_11DebugServer3run0s_0Ba_
FN:40,_RNCNvMNtNtCsjDzxbYtLkYp_16soroban_debugger6server12debug_serverNtB4_11DebugServer3run0B8_
FN:21,_RNvMNtNtCsjDzxbYtLkYp_16soroban_debugger6server12debug_serverNtB2_11DebugServer3new
FN:40,_RNvMNtNtCsjDzxbYtLkYp_16soroban_debugger6server12debug_serverNtB2_11DebugServer3run
FN:174,_RNvNtNtCsjDzxbYtLkYp_16soroban_debugger6server12debug_server15load_tls_config
FN:176,_RNCNvNtNtCsjDzxbYtLkYp_16soroban_debugger6server12debug_server15load_tls_config0B7_
FN:185,_RNCNvNtNtCsjDzxbYtLkYp_16soroban_debugger6server12debug_server15load_tls_configs0_0B7_
FN:188,_RNCNvNtNtCsjDzxbYtLkYp_16soroban_debugger6server12debug_server15load_tls_configs1_0B7_
FN:198,_RNCNvNtNtCsjDzxbYtLkYp_16soroban_debugger6server12debug_server15load_tls_configs2_0B7_
FN:179,_RNCNvNtNtCsjDzxbYtLkYp_16soroban_debugger6server12debug_server15load_tls_configs_0B7_
FN:74,_RINvMNtNtCs2jO2QXn3WZ6_16soroban_debugger6server12debug_serverNtB3_11DebugServer24handle_single_connectionpEB7_
FN:161,_RINvNtNtCs2jO2QXn3WZ6_16soroban_debugger6server12debug_server13send_responsepEB6_
FN:77,_RNCINvMNtNtCs2jO2QXn3WZ6_16soroban_debugger6server12debug_serverNtB5_11DebugServer24handle_single_connectionpE0B9_
FN:164,_RNCINvNtNtCs2jO2QXn3WZ6_16soroban_debugger6server12debug_server13send_responsepE0B8_
FN:85,_RNCNCINvMNtNtCs2jO2QXn3WZ6_16soroban_debugger6server12debug_serverNtB7_11DebugServer24handle_single_connectionpE00Bb_
FN:166,_RNCNCINvNtNtCs2jO2QXn3WZ6_16soroban_debugger6server12debug_server13send_responsepE00Ba_
FN:170,_RNCNCINvNtNtCs2jO2QXn3WZ6_16soroban_debugger6server12debug_server13send_responsepE0s_0Ba_
FN:44,_RNCNCNvMNtNtCs2jO2QXn3WZ6_16soroban_debugger6server12debug_serverNtB6_11DebugServer3run00Ba_
FN:56,_RNCNCNvMNtNtCs2jO2QXn3WZ6_16soroban_debugger6server12debug_serverNtB6_11DebugServer3run0s0_0Ba_
FN:50,_RNCNCNvMNtNtCs2jO2QXn3WZ6_16soroban_debugger6server12debug_serverNtB6_11DebugServer3run0s_0Ba_
FN:40,_RNCNvMNtNtCs2jO2QXn3WZ6_16soroban_debugger6server12debug_serverNtB4_11DebugServer3run0B8_
FN:176,_RNCNvNtNtCs2jO2QXn3WZ6_16soroban_debugger6server12debug_server15load_tls_config0B7_
FN:185,_RNCNvNtNtCs2jO2QXn3WZ6_16soroban_debugger6server12debug_server15load_tls_configs0_0B7_
FN:188,_RNCNvNtNtCs2jO2QXn3WZ6_16soroban_debugger6server12debug_server15load_tls_configs1_0B7_
FN:198,_RNCNvNtNtCs2jO2QXn3WZ6_16soroban_debugger6server12debug_server15load_tls_configs2_0B7_
FN:179,_RNCNvNtNtCs2jO2QXn3WZ6_16soroban_debugger6server12debug_server15load_tls_configs_0B7_
FN:21,_RNvMNtNtCs2jO2QXn3WZ6_16soroban_debugger6server12debug_serverNtB2_11DebugServer3new
FN:40,_RNvMNtNtCs2jO2QXn3WZ6_16soroban_debugger6server12debug_serverNtB2_11DebugServer3run
FN:174,_RNvNtNtCs2jO2QXn3WZ6_16soroban_debugger6server12debug_server15load_tls_config
FNDA:0,_RINvMNtNtCsjDzxbYtLkYp_16soroban_debugger6server12debug_serverNtB3_11DebugServer24handle_single_connectionpEB7_
FNDA:0,_RINvNtNtCsjDzxbYtLkYp_16soroban_debugger6server12debug_server13send_responsepEB6_
FNDA:0,_RNCINvMNtNtCsjDzxbYtLkYp_16soroban_debugger6server12debug_serverNtB5_11DebugServer24handle_single_connectionpE0B9_
FNDA:0,_RNCINvNtNtCsjDzxbYtLkYp_16soroban_debugger6server12debug_server13send_responsepE0B8_
FNDA:0,_RNCNCINvMNtNtCsjDzxbYtLkYp_16soroban_debugger6server12debug_serverNtB7_11DebugServer24handle_single_connectionpE00Bb_
FNDA:0,_RNCNCINvNtNtCsjDzxbYtLkYp_16soroban_debugger6server12debug_server13send_responsepE00Ba_
FNDA:0,_RNCNCINvNtNtCsjDzxbYtLkYp_16soroban_debugger6server12debug_server13send_responsepE0s_0Ba_
FNDA:0,_RNCNCNvMNtNtCsjDzxbYtLkYp_16soroban_debugger6server12debug_serverNtB6_11DebugServer3run00Ba_
FNDA:0,_RNCNCNvMNtNtCsjDzxbYtLkYp_16soroban_debugger6server12debug_serverNtB6_11DebugServer3run0s0_0Ba_
FNDA:0,_RNCNCNvMNtNtCsjDzxbYtLkYp_16soroban_debugger6server12debug_serverNtB6_11DebugServer3run0s_0Ba_
FNDA:0,_RNCNvMNtNtCsjDzxbYtLkYp_16soroban_debugger6server12debug_serverNtB4_11DebugServer3run0B8_
FNDA:0,_RNvMNtNtCsjDzxbYtLkYp_16soroban_debugger6server12debug_serverNtB2_11DebugServer3new
FNDA:0,_RNvMNtNtCsjDzxbYtLkYp_16soroban_debugger6server12debug_serverNtB2_11DebugServer3run
FNDA:0,_RNvNtNtCsjDzxbYtLkYp_16soroban_debugger6server12debug_server15load_tls_config
FNDA:0,_RNCNvNtNtCsjDzxbYtLkYp_16soroban_debugger6server12debug_server15load_tls_config0B7_
FNDA:0,_RNCNvNtNtCsjDzxbYtLkYp_16soroban_debugger6server12debug_server15load_tls_configs0_0B7_
FNDA:0,_RNCNvNtNtCsjDzxbYtLkYp_16soroban_debugger6server12debug_server15load_tls_configs1_0B7_
FNDA:0,_RNCNvNtNtCsjDzxbYtLkYp_16soroban_debugger6server12debug_server15load_tls_configs2_0B7_
FNDA:0,_RNCNvNtNtCsjDzxbYtLkYp_16soroban_debugger6server12debug_server15load_tls_configs_0B7_
FNDA:0,_RINvMNtNtCs2jO2QXn3WZ6_16soroban_debugger6server12debug_serverNtB3_11DebugServer24handle_single_connectionpEB7_
FNDA:0,_RINvNtNtCs2jO2QXn3WZ6_16soroban_debugger6server12debug_server13send_responsepEB6_
FNDA:0,_RNCINvMNtNtCs2jO2QXn3WZ6_16soroban_debugger6server12debug_serverNtB5_11DebugServer24handle_single_connectionpE0B9_
FNDA:0,_RNCINvNtNtCs2jO2QXn3WZ6_16soroban_debugger6server12debug_server13send_responsepE0B8_
FNDA:0,_RNCNCINvMNtNtCs2jO2QXn3WZ6_16soroban_debugger6server12debug_serverNtB7_11DebugServer24handle_single_connectionpE00Bb_
FNDA:0,_RNCNCINvNtNtCs2jO2QXn3WZ6_16soroban_debugger6server12debug_server13send_responsepE00Ba_
FNDA:0,_RNCNCINvNtNtCs2jO2QXn3WZ6_16soroban_debugger6server12debug_server13send_responsepE0s_0Ba_
FNDA:0,_RNCNCNvMNtNtCs2jO2QXn3WZ6_16soroban_debugger6server12debug_serverNtB6_11DebugServer3run00Ba_
FNDA:0,_RNCNCNvMNtNtCs2jO2QXn3WZ6_16soroban_debugger6server12debug_serverNtB6_11DebugServer3run0s0_0Ba_
FNDA:0,_RNCNCNvMNtNtCs2jO2QXn3WZ6_16soroban_debugger6server12debug_serverNtB6_11DebugServer3run0s_0Ba_
FNDA:0,_RNCNvMNtNtCs2jO2QXn3WZ6_16soroban_debugger6server12debug_serverNtB4_11DebugServer3run0B8_
FNDA:0,_RNCNvNtNtCs2jO2QXn3WZ6_16soroban_debugger6server12debug_server15load_tls_config0B7_
FNDA:0,_RNCNvNtNtCs2jO2QXn3WZ6_16soroban_debugger6server12debug_server15load_tls_configs0_0B7_
FNDA:0,_RNCNvNtNtCs2jO2QXn3WZ6_16soroban_debugger6server12debug_server15load_tls_configs1_0B7_
FNDA:0,_RNCNvNtNtCs2jO2QXn3WZ6_16soroban_debugger6server12debug_server15load_tls_configs2_0B7_
FNDA:0,_RNCNvNtNtCs2jO2QXn3WZ6_16soroban_debugger6server12debug_server15load_tls_configs_0B7_
FNDA:0,_RNvMNtNtCs2jO2QXn3WZ6_16soroban_debugger6server12debug_serverNtB2_11DebugServer3new
FNDA:0,_RNvMNtNtCs2jO2QXn3WZ6_16soroban_debugger6server12debug_serverNtB2_11DebugServer3run
FNDA:0,_RNvNtNtCs2jO2QXn3WZ6_16soroban_debugger6server12debug_server15load_tls_config
FNF:19
FNH:0
DA:21,0
DA:22,0
DA:23,0
DA:24,0
DA:25,0
DA:26,0
DA:27,0
DA:28,0
DA:30,0
DA:33,0
DA:34,0
DA:35,0
DA:36,0
DA:37,0
DA:38,0
DA:40,0
DA:41,0
DA:42,0
DA:43,0
DA:44,0
DA:45,0
DA:47,0
DA:48,0
DA:49,0
DA:50,0
DA:53,0
DA:54,0
DA:55,0
DA:56,0
DA:57,0
DA:59,0
DA:60,0
DA:61,0
DA:62,0
DA:63,0
DA:64,0
DA:66,0
DA:68,0
DA:69,0
DA:70,0
DA:72,0
DA:74,0
DA:75,0
DA:76,0
DA:77,0
DA:78,0
DA:79,0
DA:82,0
DA:83,0
DA:84,0
DA:85,0
DA:86,0
DA:87,0
DA:88,0
DA:90,0
DA:91,0
DA:92,0
DA:93,0
DA:94,0
DA:97,0
DA:99,0
DA:101,0
DA:102,0
DA:104,0
DA:105,0
DA:106,0
DA:107,0
DA:109,0
DA:110,0
DA:113,0
DA:114,0
DA:115,0
DA:116,0
DA:117,0
DA:118,0
DA:120,0
DA:122,0
DA:124,0
DA:126,0
DA:127,0
DA:128,0
DA:130,0
DA:131,0
DA:132,0
DA:134,0
DA:135,0
DA:136,0
DA:138,0
DA:139,0
DA:140,0
DA:143,0
DA:144,0
DA:146,0
DA:147,0
DA:148,0
DA:149,0
DA:154,0
DA:157,0
DA:158,0
DA:161,0
DA:162,0
DA:163,0
DA:164,0
DA:165,0
DA:166,0
DA:167,0
DA:168,0
DA:169,0
DA:170,0
DA:171,0
DA:172,0
DA:174,0
DA:175,0
DA:176,0
DA:177,0
DA:178,0
DA:179,0
DA:180,0
DA:181,0
DA:182,0
DA:184,0
DA:185,0
DA:186,0
DA:187,0
DA:188,0
DA:189,0
DA:190,0
DA:191,0
DA:192,0
DA:194,0
DA:195,0
DA:196,0
DA:197,0
DA:198,0
DA:200,0
DA:201,0
BRF:0
BRH:0
LF:148
LH:0
end_of_record
SF:/home/admin/Desktop/opensource/soroban-debugger/src/server/protocol.rs
FN:141,_RNvMNtNtCsjDzxbYtLkYp_16soroban_debugger6server8protocolNtB2_12DebugMessage7request
FN:149,_RNvMNtNtCsjDzxbYtLkYp_16soroban_debugger6server8protocolNtB2_12DebugMessage8response
FN:141,_RNvMNtNtCs2jO2QXn3WZ6_16soroban_debugger6server8protocolNtB2_12DebugMessage7request
FN:149,_RNvMNtNtCs2jO2QXn3WZ6_16soroban_debugger6server8protocolNtB2_12DebugMessage8response
FNDA:0,_RNvMNtNtCsjDzxbYtLkYp_16soroban_debugger6server8protocolNtB2_12DebugMessage7request
FNDA:0,_RNvMNtNtCsjDzxbYtLkYp_16soroban_debugger6server8protocolNtB2_12DebugMessage8response
FNDA:0,_RNvMNtNtCs2jO2QXn3WZ6_16soroban_debugger6server8protocolNtB2_12DebugMessage7request
FNDA:0,_RNvMNtNtCs2jO2QXn3WZ6_16soroban_debugger6server8protocolNtB2_12DebugMessage8response
FNF:2
FNH:0
DA:141,0
DA:142,0
DA:143,0
DA:144,0
DA:145,0
DA:146,0
DA:147,0
DA:149,0
DA:150,0
DA:151,0
DA:152,0
DA:153,0
DA:154,0
DA:155,0
BRF:0
BRH:0
LF:14
LH:0
end_of_record
SF:/home/admin/Desktop/opensource/soroban-debugger/src/simulator/loader.rs
FN:19,_RINvMNtNtCsjDzxbYtLkYp_16soroban_debugger9simulator6loaderNtB3_14SnapshotLoader9from_fileRNtNtCs7dz5ZklJ0d7_3std4path7PathBufEB7_
FN:24,_RNCINvMNtNtCsjDzxbYtLkYp_16soroban_debugger9simulator6loaderNtB5_14SnapshotLoader9from_fileRNtNtCs7dz5ZklJ0d7_3std4path7PathBufE0B9_
FN:32,_RNCINvMNtNtCsjDzxbYtLkYp_16soroban_debugger9simulator6loaderNtB5_14SnapshotLoader9from_fileRNtNtCs7dz5ZklJ0d7_3std4path7PathBufEs_0B9_
FN:130,_RNCNvMNtNtCsjDzxbYtLkYp_16soroban_debugger9simulator6loaderNtB4_14SnapshotLoader13list_accounts0B8_
FN:139,_RNCNvMNtNtCsjDzxbYtLkYp_16soroban_debugger9simulator6loaderNtB4_14SnapshotLoader14list_contracts0B8_
FN:116,_RNvMNtNtCsjDzxbYtLkYp_16soroban_debugger9simulator6loaderNtB2_14SnapshotLoader11get_account
FN:121,_RNvMNtNtCsjDzxbYtLkYp_16soroban_debugger9simulator6loaderNtB2_14SnapshotLoader12get_contract
FN:61,_RNvMNtNtCsjDzxbYtLkYp_16soroban_debugger9simulator6loaderNtB2_14SnapshotLoader12snapshot_mut
FN:50,_RNvMNtNtCsjDzxbYtLkYp_16soroban_debugger9simulator6loaderNtB2_14SnapshotLoader13from_snapshot
FN:126,_RNvMNtNtCsjDzxbYtLkYp_16soroban_debugger9simulator6loaderNtB2_14SnapshotLoader13list_accounts
FN:135,_RNvMNtNtCsjDzxbYtLkYp_16soroban_debugger9simulator6loaderNtB2_14SnapshotLoader14list_contracts
FN:102,_RNvMNtNtCsjDzxbYtLkYp_16soroban_debugger9simulator6loaderNtB2_14SnapshotLoader19validate_references
FN:70,_RNvMNtNtCsjDzxbYtLkYp_16soroban_debugger9simulator6loaderNtB2_14SnapshotLoader20apply_to_environment
FN:56,_RNvMNtNtCsjDzxbYtLkYp_16soroban_debugger9simulator6loaderNtB2_14SnapshotLoader8snapshot
FN:90,_RNvMNtNtCsjDzxbYtLkYp_16soroban_debugger9simulator6loaderNtB2_14SnapshotLoader8validate
FN:178,_RNvMs_NtNtCsjDzxbYtLkYp_16soroban_debugger9simulator6loaderNtB4_14LoadedSnapshot12snapshot_mut
FN:163,_RNvMs_NtNtCsjDzxbYtLkYp_16soroban_debugger9simulator6loaderNtB4_14LoadedSnapshot13account_count
FN:168,_RNvMs_NtNtCsjDzxbYtLkYp_16soroban_debugger9simulator6loaderNtB4_14LoadedSnapshot14contract_count
FN:183,_RNvMs_NtNtCsjDzxbYtLkYp_16soroban_debugger9simulator6loaderNtB4_14LoadedSnapshot14format_summary
FN:153,_RNvMs_NtNtCsjDzxbYtLkYp_16soroban_debugger9simulator6loaderNtB4_14LoadedSnapshot15ledger_sequence
FN:158,_RNvMs_NtNtCsjDzxbYtLkYp_16soroban_debugger9simulator6loaderNtB4_14LoadedSnapshot18network_passphrase
FN:173,_RNvMs_NtNtCsjDzxbYtLkYp_16soroban_debugger9simulator6loaderNtB4_14LoadedSnapshot8snapshot
FN:121,_RNvMNtNtCs2jO2QXn3WZ6_16soroban_debugger9simulator6loaderNtB2_14SnapshotLoader12get_contract
FN:61,_RNvMNtNtCs2jO2QXn3WZ6_16soroban_debugger9simulator6loaderNtB2_14SnapshotLoader12snapshot_mut
FN:178,_RNvMs_NtNtCs2jO2QXn3WZ6_16soroban_debugger9simulator6loaderNtB4_14LoadedSnapshot12snapshot_mut
FN:163,_RNvMs_NtNtCs2jO2QXn3WZ6_16soroban_debugger9simulator6loaderNtB4_14LoadedSnapshot13account_count
FN:168,_RNvMs_NtNtCs2jO2QXn3WZ6_16soroban_debugger9simulator6loaderNtB4_14LoadedSnapshot14contract_count
FN:183,_RNvMs_NtNtCs2jO2QXn3WZ6_16soroban_debugger9simulator6loaderNtB4_14LoadedSnapshot14format_summary
FN:173,_RNvMs_NtNtCs2jO2QXn3WZ6_16soroban_debugger9simulator6loaderNtB4_14LoadedSnapshot8snapshot
FN:19,_RINvMNtNtCs2jO2QXn3WZ6_16soroban_debugger9simulator6loaderNtB3_14SnapshotLoader9from_fileRNtNtCs7dz5ZklJ0d7_3std4path4PathEB7_
FN:24,_RNCINvMNtNtCs2jO2QXn3WZ6_16soroban_debugger9simulator6loaderNtB5_14SnapshotLoader9from_fileRNtNtCs7dz5ZklJ0d7_3std4path4PathE0B9_
FN:32,_RNCINvMNtNtCs2jO2QXn3WZ6_16soroban_debugger9simulator6loaderNtB5_14SnapshotLoader9from_fileRNtNtCs7dz5ZklJ0d7_3std4path4PathEs_0B9_
FN:130,_RNCNvMNtNtCs2jO2QXn3WZ6_16soroban_debugger9simulator6loaderNtB4_14SnapshotLoader13list_accounts0B8_
FN:139,_RNCNvMNtNtCs2jO2QXn3WZ6_16soroban_debugger9simulator6loaderNtB4_14SnapshotLoader14list_contracts0B8_
FN:116,_RNvMNtNtCs2jO2QXn3WZ6_16soroban_debugger9simulator6loaderNtB2_14SnapshotLoader11get_account
FN:50,_RNvMNtNtCs2jO2QXn3WZ6_16soroban_debugger9simulator6loaderNtB2_14SnapshotLoader13from_snapshot
FN:126,_RNvMNtNtCs2jO2QXn3WZ6_16soroban_debugger9simulator6loaderNtB2_14SnapshotLoader13list_accounts
FN:135,_RNvMNtNtCs2jO2QXn3WZ6_16soroban_debugger9simulator6loaderNtB2_14SnapshotLoader14list_contracts
FN:102,_RNvMNtNtCs2jO2QXn3WZ6_16soroban_debugger9simulator6loaderNtB2_14SnapshotLoader19validate_references
FN:70,_RNvMNtNtCs2jO2QXn3WZ6_16soroban_debugger9simulator6loaderNtB2_14SnapshotLoader20apply_to_environment
FN:56,_RNvMNtNtCs2jO2QXn3WZ6_16soroban_debugger9simulator6loaderNtB2_14SnapshotLoader8snapshot
FN:90,_RNvMNtNtCs2jO2QXn3WZ6_16soroban_debugger9simulator6loaderNtB2_14SnapshotLoader8validate
FN:153,_RNvMs_NtNtCs2jO2QXn3WZ6_16soroban_debugger9simulator6loaderNtB4_14LoadedSnapshot15ledger_sequence
FN:158,_RNvMs_NtNtCs2jO2QXn3WZ6_16soroban_debugger9simulator6loaderNtB4_14LoadedSnapshot18network_passphrase
FN:217,_RNvNtNtNtCs2jO2QXn3WZ6_16soroban_debugger9simulator6loader5testss_19test_load_from_file
FN:236,_RNvNtNtNtCs2jO2QXn3WZ6_16soroban_debugger9simulator6loader5testss_25test_apply_to_environment
FN:262,_RNvNtNtNtCs2jO2QXn3WZ6_16soroban_debugger9simulator6loader5testss_28test_get_account_from_loader
FN:246,_RNvNtNtNtCs2jO2QXn3WZ6_16soroban_debugger9simulator6loader5testss_32test_list_accounts_and_contracts
FN:229,_RNvNtNtNtCs2jO2QXn3WZ6_16soroban_debugger9simulator6loader5testss_41test_validation_passes_for_valid_snapshot
FNDA:2,_RINvMNtNtCsjDzxbYtLkYp_16soroban_debugger9simulator6loaderNtB3_14SnapshotLoader9from_fileRNtNtCs7dz5ZklJ0d7_3std4path7PathBufEB7_
FNDA:2,_RNCINvMNtNtCsjDzxbYtLkYp_16soroban_debugger9simulator6loaderNtB5_14SnapshotLoader9from_fileRNtNtCs7dz5ZklJ0d7_3std4path7PathBufE0B9_
FNDA:0,_RNCINvMNtNtCsjDzxbYtLkYp_16soroban_debugger9simulator6loaderNtB5_14SnapshotLoader9from_fileRNtNtCs7dz5ZklJ0d7_3std4path7PathBufEs_0B9_
FNDA:0,_RNCNvMNtNtCsjDzxbYtLkYp_16soroban_debugger9simulator6loaderNtB4_14SnapshotLoader13list_accounts0B8_
FNDA:0,_RNCNvMNtNtCsjDzxbYtLkYp_16soroban_debugger9simulator6loaderNtB4_14SnapshotLoader14list_contracts0B8_
FNDA:0,_RNvMNtNtCsjDzxbYtLkYp_16soroban_debugger9simulator6loaderNtB2_14SnapshotLoader11get_account
FNDA:0,_RNvMNtNtCsjDzxbYtLkYp_16soroban_debugger9simulator6loaderNtB2_14SnapshotLoader12get_contract
FNDA:0,_RNvMNtNtCsjDzxbYtLkYp_16soroban_debugger9simulator6loaderNtB2_14SnapshotLoader12snapshot_mut
FNDA:0,_RNvMNtNtCsjDzxbYtLkYp_16soroban_debugger9simulator6loaderNtB2_14SnapshotLoader13from_snapshot
FNDA:0,_RNvMNtNtCsjDzxbYtLkYp_16soroban_debugger9simulator6loaderNtB2_14SnapshotLoader13list_accounts
FNDA:0,_RNvMNtNtCsjDzxbYtLkYp_16soroban_debugger9simulator6loaderNtB2_14SnapshotLoader14list_contracts
FNDA:0,_RNvMNtNtCsjDzxbYtLkYp_16soroban_debugger9simulator6loaderNtB2_14SnapshotLoader19validate_references
FNDA:0,_RNvMNtNtCsjDzxbYtLkYp_16soroban_debugger9simulator6loaderNtB2_14SnapshotLoader20apply_to_environment
FNDA:0,_RNvMNtNtCsjDzxbYtLkYp_16soroban_debugger9simulator6loaderNtB2_14SnapshotLoader8snapshot
FNDA:0,_RNvMNtNtCsjDzxbYtLkYp_16soroban_debugger9simulator6loaderNtB2_14SnapshotLoader8validate
FNDA:0,_RNvMs_NtNtCsjDzxbYtLkYp_16soroban_debugger9simulator6loaderNtB4_14LoadedSnapshot12snapshot_mut
FNDA:0,_RNvMs_NtNtCsjDzxbYtLkYp_16soroban_debugger9simulator6loaderNtB4_14LoadedSnapshot13account_count
FNDA:0,_RNvMs_NtNtCsjDzxbYtLkYp_16soroban_debugger9simulator6loaderNtB4_14LoadedSnapshot14contract_count
FNDA:0,_RNvMs_NtNtCsjDzxbYtLkYp_16soroban_debugger9simulator6loaderNtB4_14LoadedSnapshot14format_summary
FNDA:0,_RNvMs_NtNtCsjDzxbYtLkYp_16soroban_debugger9simulator6loaderNtB4_14LoadedSnapshot15ledger_sequence
FNDA:0,_RNvMs_NtNtCsjDzxbYtLkYp_16soroban_debugger9simulator6loaderNtB4_14LoadedSnapshot18network_passphrase
FNDA:0,_RNvMs_NtNtCsjDzxbYtLkYp_16soroban_debugger9simulator6loaderNtB4_14LoadedSnapshot8snapshot
FNDA:0,_RNvMNtNtCs2jO2QXn3WZ6_16soroban_debugger9simulator6loaderNtB2_14SnapshotLoader12get_contract
FNDA:0,_RNvMNtNtCs2jO2QXn3WZ6_16soroban_debugger9simulator6loaderNtB2_14SnapshotLoader12snapshot_mut
FNDA:0,_RNvMs_NtNtCs2jO2QXn3WZ6_16soroban_debugger9simulator6loaderNtB4_14LoadedSnapshot12snapshot_mut
FNDA:0,_RNvMs_NtNtCs2jO2QXn3WZ6_16soroban_debugger9simulator6loaderNtB4_14LoadedSnapshot13account_count
FNDA:0,_RNvMs_NtNtCs2jO2QXn3WZ6_16soroban_debugger9simulator6loaderNtB4_14LoadedSnapshot14contract_count
FNDA:0,_RNvMs_NtNtCs2jO2QXn3WZ6_16soroban_debugger9simulator6loaderNtB4_14LoadedSnapshot14format_summary
FNDA:0,_RNvMs_NtNtCs2jO2QXn3WZ6_16soroban_debugger9simulator6loaderNtB4_14LoadedSnapshot8snapshot
FNDA:1,_RINvMNtNtCs2jO2QXn3WZ6_16soroban_debugger9simulator6loaderNtB3_14SnapshotLoader9from_fileRNtNtCs7dz5ZklJ0d7_3std4path4PathEB7_
FNDA:0,_RNCINvMNtNtCs2jO2QXn3WZ6_16soroban_debugger9simulator6loaderNtB5_14SnapshotLoader9from_fileRNtNtCs7dz5ZklJ0d7_3std4path4PathE0B9_
FNDA:0,_RNCINvMNtNtCs2jO2QXn3WZ6_16soroban_debugger9simulator6loaderNtB5_14SnapshotLoader9from_fileRNtNtCs7dz5ZklJ0d7_3std4path4PathEs_0B9_
FNDA:1,_RNCNvMNtNtCs2jO2QXn3WZ6_16soroban_debugger9simulator6loaderNtB4_14SnapshotLoader13list_accounts0B8_
FNDA:1,_RNCNvMNtNtCs2jO2QXn3WZ6_16soroban_debugger9simulator6loaderNtB4_14SnapshotLoader14list_contracts0B8_
FNDA:1,_RNvMNtNtCs2jO2QXn3WZ6_16soroban_debugger9simulator6loaderNtB2_14SnapshotLoader11get_account
FNDA:4,_RNvMNtNtCs2jO2QXn3WZ6_16soroban_debugger9simulator6loaderNtB2_14SnapshotLoader13from_snapshot
FNDA:1,_RNvMNtNtCs2jO2QXn3WZ6_16soroban_debugger9simulator6loaderNtB2_14SnapshotLoader13list_accounts
FNDA:1,_RNvMNtNtCs2jO2QXn3WZ6_16soroban_debugger9simulator6loaderNtB2_14SnapshotLoader14list_contracts
FNDA:1,_RNvMNtNtCs2jO2QXn3WZ6_16soroban_debugger9simulator6loaderNtB2_14SnapshotLoader19validate_references
FNDA:1,_RNvMNtNtCs2jO2QXn3WZ6_16soroban_debugger9simulator6loaderNtB2_14SnapshotLoader20apply_to_environment
FNDA:1,_RNvMNtNtCs2jO2QXn3WZ6_16soroban_debugger9simulator6loaderNtB2_14SnapshotLoader8snapshot
FNDA:1,_RNvMNtNtCs2jO2QXn3WZ6_16soroban_debugger9simulator6loaderNtB2_14SnapshotLoader8validate
FNDA:1,_RNvMs_NtNtCs2jO2QXn3WZ6_16soroban_debugger9simulator6loaderNtB4_14LoadedSnapshot15ledger_sequence
FNDA:1,_RNvMs_NtNtCs2jO2QXn3WZ6_16soroban_debugger9simulator6loaderNtB4_14LoadedSnapshot18network_passphrase
FNDA:1,_RNvNtNtNtCs2jO2QXn3WZ6_16soroban_debugger9simulator6loader5testss_19test_load_from_file
FNDA:1,_RNvNtNtNtCs2jO2QXn3WZ6_16soroban_debugger9simulator6loader5testss_25test_apply_to_environment
FNDA:1,_RNvNtNtNtCs2jO2QXn3WZ6_16soroban_debugger9simulator6loader5testss_28test_get_account_from_loader
FNDA:1,_RNvNtNtNtCs2jO2QXn3WZ6_16soroban_debugger9simulator6loader5testss_32test_list_accounts_and_contracts
FNDA:1,_RNvNtNtNtCs2jO2QXn3WZ6_16soroban_debugger9simulator6loader5testss_41test_validation_passes_for_valid_snapshot
FNF:27
FNH:19
DA:19,3
DA:20,3
DA:21,3
DA:24,3
DA:25,2
DA:26,2
DA:27,2
DA:28,2
DA:29,2
DA:32,1
DA:33,0
DA:34,0
DA:37,1
DA:39,1
DA:41,0
DA:42,0
DA:46,1
DA:47,3
DA:50,4
DA:51,4
DA:52,4
DA:53,4
DA:56,1
DA:57,1
DA:58,1
DA:61,0
DA:62,0
DA:63,0
DA:70,1
DA:71,1
DA:73,1
DA:74,1
DA:75,1
DA:76,1
DA:77,1
DA:78,1
DA:79,1
DA:81,1
DA:83,1
DA:84,1
DA:85,1
DA:86,1
DA:87,1
DA:90,1
DA:91,1
DA:92,1
DA:95,1
DA:97,1
DA:98,1
DA:99,1
DA:102,1
DA:106,1
DA:108,0
DA:109,0
DA:112,1
DA:113,1
DA:116,1
DA:117,1
DA:118,1
DA:121,0
DA:122,0
DA:123,0
DA:126,1
DA:127,1
DA:128,1
DA:129,1
DA:130,1
DA:131,1
DA:132,1
DA:135,1
DA:136,1
DA:137,1
DA:138,1
DA:139,1
DA:140,1
DA:141,1
DA:153,1
DA:154,1
DA:155,1
DA:158,1
DA:159,1
DA:160,1
DA:163,0
DA:164,0
DA:165,0
DA:168,0
DA:169,0
DA:170,0
DA:173,0
DA:174,0
DA:175,0
DA:178,0
DA:179,0
DA:180,0
DA:183,0
DA:184,0
DA:197,0
DA:217,1
DA:218,1
DA:219,1
DA:221,1
DA:222,1
DA:224,1
DA:225,1
DA:226,1
DA:229,1
DA:230,1
DA:231,1
DA:232,1
DA:233,1
DA:236,1
DA:237,1
DA:238,1
DA:239,1
DA:241,1
DA:242,1
DA:243,1
DA:246,1
DA:247,1
DA:248,1
DA:249,1
DA:250,1
DA:251,1
DA:252,1
DA:253,1
DA:255,1
DA:257,1
DA:258,1
DA:259,1
DA:262,1
DA:263,1
DA:264,1
DA:265,1
DA:266,1
DA:268,1
DA:269,1
DA:271,1
DA:272,1
DA:273,1
BRF:0
BRH:0
LF:145
LH:115
end_of_record
SF:/home/admin/Desktop/opensource/soroban-debugger/src/simulator/snapshot.rs
FN:79,_RINvMNtNtCsjDzxbYtLkYp_16soroban_debugger9simulator8snapshotNtB3_15SnapshotManager13validate_filepEB7_
FN:44,_RINvMNtNtCsjDzxbYtLkYp_16soroban_debugger9simulator8snapshotNtB3_15SnapshotManager4loadpEB7_
FN:18,_RINvMNtNtCsjDzxbYtLkYp_16soroban_debugger9simulator8snapshotNtB3_15SnapshotManager4savepEB7_
FN:49,_RNCINvMNtNtCsjDzxbYtLkYp_16soroban_debugger9simulator8snapshotNtB5_15SnapshotManager4loadpE0B9_
FN:57,_RNCINvMNtNtCsjDzxbYtLkYp_16soroban_debugger9simulator8snapshotNtB5_15SnapshotManager4loadpEs_0B9_
FN:26,_RNCINvMNtNtCsjDzxbYtLkYp_16soroban_debugger9simulator8snapshotNtB5_15SnapshotManager4savepE0B9_
FN:31,_RNCINvMNtNtCsjDzxbYtLkYp_16soroban_debugger9simulator8snapshotNtB5_15SnapshotManager4savepEs_0B9_
FN:284,_RNCNvMs_NtNtCsjDzxbYtLkYp_16soroban_debugger9simulator8snapshotNtB6_12SnapshotDiff14format_summary0Ba_
FN:130,_RNCNvMs_NtNtCsjDzxbYtLkYp_16soroban_debugger9simulator8snapshotNtB6_12SnapshotDiff7compute0Ba_
FN:169,_RNCNvMs_NtNtCsjDzxbYtLkYp_16soroban_debugger9simulator8snapshotNtB6_12SnapshotDiff7computes0_0Ba_
FN:174,_RNCNvMs_NtNtCsjDzxbYtLkYp_16soroban_debugger9simulator8snapshotNtB6_12SnapshotDiff7computes1_0Ba_
FN:132,_RNCNvMs_NtNtCsjDzxbYtLkYp_16soroban_debugger9simulator8snapshotNtB6_12SnapshotDiff7computes_0Ba_
FN:79,_RINvMNtNtCs2jO2QXn3WZ6_16soroban_debugger9simulator8snapshotNtB3_15SnapshotManager13validate_filepEB7_
FN:284,_RNCNvMs_NtNtCs2jO2QXn3WZ6_16soroban_debugger9simulator8snapshotNtB6_12SnapshotDiff14format_summary0Ba_
FN:207,_RNvMs_NtNtCs2jO2QXn3WZ6_16soroban_debugger9simulator8snapshotNtB4_12SnapshotDiff14format_summary
FN:44,_RINvMNtNtCs2jO2QXn3WZ6_16soroban_debugger9simulator8snapshotNtB3_15SnapshotManager4loadRNtNtCs7dz5ZklJ0d7_3std4path7PathBufEB7_
FN:18,_RINvMNtNtCs2jO2QXn3WZ6_16soroban_debugger9simulator8snapshotNtB3_15SnapshotManager4saveRNtNtCs7dz5ZklJ0d7_3std4path7PathBufEB7_
FN:49,_RNCINvMNtNtCs2jO2QXn3WZ6_16soroban_debugger9simulator8snapshotNtB5_15SnapshotManager4loadRNtNtCs7dz5ZklJ0d7_3std4path7PathBufE0B9_
FN:57,_RNCINvMNtNtCs2jO2QXn3WZ6_16soroban_debugger9simulator8snapshotNtB5_15SnapshotManager4loadRNtNtCs7dz5ZklJ0d7_3std4path7PathBufEs_0B9_
FN:26,_RNCINvMNtNtCs2jO2QXn3WZ6_16soroban_debugger9simulator8snapshotNtB5_15SnapshotManager4saveRNtNtCs7dz5ZklJ0d7_3std4path7PathBufE0B9_
FN:31,_RNCINvMNtNtCs2jO2QXn3WZ6_16soroban_debugger9simulator8snapshotNtB5_15SnapshotManager4saveRNtNtCs7dz5ZklJ0d7_3std4path7PathBufEs_0B9_
FN:130,_RNCNvMs_NtNtCs2jO2QXn3WZ6_16soroban_debugger9simulator8snapshotNtB6_12SnapshotDiff7compute0Ba_
FN:169,_RNCNvMs_NtNtCs2jO2QXn3WZ6_16soroban_debugger9simulator8snapshotNtB6_12SnapshotDiff7computes0_0Ba_
FN:174,_RNCNvMs_NtNtCs2jO2QXn3WZ6_16soroban_debugger9simulator8snapshotNtB6_12SnapshotDiff7computes1_0Ba_
FN:132,_RNCNvMs_NtNtCs2jO2QXn3WZ6_16soroban_debugger9simulator8snapshotNtB6_12SnapshotDiff7computes_0Ba_
FN:399,_RNvNtNtNtCs2jO2QXn3WZ6_16soroban_debugger9simulator8snapshot5testss_20test_diff_no_changes
FN:387,_RNvNtNtNtCs2jO2QXn3WZ6_16soroban_debugger9simulator8snapshot5testss_21test_diff_has_changes
FN:336,_RNvNtNtNtCs2jO2QXn3WZ6_16soroban_debugger9simulator8snapshot5testss_27test_save_and_load_snapshot
FN:353,_RNvNtNtNtCs2jO2QXn3WZ6_16soroban_debugger9simulator8snapshot5testss_28test_compute_account_changes
FN:372,_RNvNtNtNtCs2jO2QXn3WZ6_16soroban_debugger9simulator8snapshot5testss_30test_compute_account_additions
FN:74,_RNvMNtNtCs2jO2QXn3WZ6_16soroban_debugger9simulator8snapshotNtB2_15SnapshotManager14diff_snapshots
FN:298,_RNvMs_NtNtCs2jO2QXn3WZ6_16soroban_debugger9simulator8snapshotNtB4_12SnapshotDiff11has_changes
FN:112,_RNvMs_NtNtCs2jO2QXn3WZ6_16soroban_debugger9simulator8snapshotNtB4_12SnapshotDiff7compute
FNDA:0,_RINvMNtNtCsjDzxbYtLkYp_16soroban_debugger9simulator8snapshotNtB3_15SnapshotManager13validate_filepEB7_
FNDA:0,_RINvMNtNtCsjDzxbYtLkYp_16soroban_debugger9simulator8snapshotNtB3_15SnapshotManager4loadpEB7_
FNDA:0,_RINvMNtNtCsjDzxbYtLkYp_16soroban_debugger9simulator8snapshotNtB3_15SnapshotManager4savepEB7_
FNDA:0,_RNCINvMNtNtCsjDzxbYtLkYp_16soroban_debugger9simulator8snapshotNtB5_15SnapshotManager4loadpE0B9_
FNDA:0,_RNCINvMNtNtCsjDzxbYtLkYp_16soroban_debugger9simulator8snapshotNtB5_15SnapshotManager4loadpEs_0B9_
FNDA:0,_RNCINvMNtNtCsjDzxbYtLkYp_16soroban_debugger9simulator8snapshotNtB5_15SnapshotManager4savepE0B9_
FNDA:0,_RNCINvMNtNtCsjDzxbYtLkYp_16soroban_debugger9simulator8snapshotNtB5_15SnapshotManager4savepEs_0B9_
FNDA:0,_RNCNvMs_NtNtCsjDzxbYtLkYp_16soroban_debugger9simulator8snapshotNtB6_12SnapshotDiff14format_summary0Ba_
FNDA:0,_RNCNvMs_NtNtCsjDzxbYtLkYp_16soroban_debugger9simulator8snapshotNtB6_12SnapshotDiff7compute0Ba_
FNDA:0,_RNCNvMs_NtNtCsjDzxbYtLkYp_16soroban_debugger9simulator8snapshotNtB6_12SnapshotDiff7computes0_0Ba_
FNDA:0,_RNCNvMs_NtNtCsjDzxbYtLkYp_16soroban_debugger9simulator8snapshotNtB6_12SnapshotDiff7computes1_0Ba_
FNDA:0,_RNCNvMs_NtNtCsjDzxbYtLkYp_16soroban_debugger9simulator8snapshotNtB6_12SnapshotDiff7computes_0Ba_
FNDA:0,_RINvMNtNtCs2jO2QXn3WZ6_16soroban_debugger9simulator8snapshotNtB3_15SnapshotManager13validate_filepEB7_
FNDA:0,_RNCNvMs_NtNtCs2jO2QXn3WZ6_16soroban_debugger9simulator8snapshotNtB6_12SnapshotDiff14format_summary0Ba_
FNDA:0,_RNvMs_NtNtCs2jO2QXn3WZ6_16soroban_debugger9simulator8snapshotNtB4_12SnapshotDiff14format_summary
FNDA:1,_RINvMNtNtCs2jO2QXn3WZ6_16soroban_debugger9simulator8snapshotNtB3_15SnapshotManager4loadRNtNtCs7dz5ZklJ0d7_3std4path7PathBufEB7_
FNDA:1,_RINvMNtNtCs2jO2QXn3WZ6_16soroban_debugger9simulator8snapshotNtB3_15SnapshotManager4saveRNtNtCs7dz5ZklJ0d7_3std4path7PathBufEB7_
FNDA:0,_RNCINvMNtNtCs2jO2QXn3WZ6_16soroban_debugger9simulator8snapshotNtB5_15SnapshotManager4loadRNtNtCs7dz5ZklJ0d7_3std4path7PathBufE0B9_
FNDA:0,_RNCINvMNtNtCs2jO2QXn3WZ6_16soroban_debugger9simulator8snapshotNtB5_15SnapshotManager4loadRNtNtCs7dz5ZklJ0d7_3std4path7PathBufEs_0B9_
FNDA:0,_RNCINvMNtNtCs2jO2QXn3WZ6_16soroban_debugger9simulator8snapshotNtB5_15SnapshotManager4saveRNtNtCs7dz5ZklJ0d7_3std4path7PathBufE0B9_
FNDA:0,_RNCINvMNtNtCs2jO2QXn3WZ6_16soroban_debugger9simulator8snapshotNtB5_15SnapshotManager4saveRNtNtCs7dz5ZklJ0d7_3std4path7PathBufEs_0B9_
FNDA:1,_RNCNvMs_NtNtCs2jO2QXn3WZ6_16soroban_debugger9simulator8snapshotNtB6_12SnapshotDiff7compute0Ba_
FNDA:0,_RNCNvMs_NtNtCs2jO2QXn3WZ6_16soroban_debugger9simulator8snapshotNtB6_12SnapshotDiff7computes0_0Ba_
FNDA:0,_RNCNvMs_NtNtCs2jO2QXn3WZ6_16soroban_debugger9simulator8snapshotNtB6_12SnapshotDiff7computes1_0Ba_
FNDA:3,_RNCNvMs_NtNtCs2jO2QXn3WZ6_16soroban_debugger9simulator8snapshotNtB6_12SnapshotDiff7computes_0Ba_
FNDA:1,_RNvNtNtNtCs2jO2QXn3WZ6_16soroban_debugger9simulator8snapshot5testss_20test_diff_no_changes
FNDA:1,_RNvNtNtNtCs2jO2QXn3WZ6_16soroban_debugger9simulator8snapshot5testss_21test_diff_has_changes
FNDA:1,_RNvNtNtNtCs2jO2QXn3WZ6_16soroban_debugger9simulator8snapshot5testss_27test_save_and_load_snapshot
FNDA:1,_RNvNtNtNtCs2jO2QXn3WZ6_16soroban_debugger9simulator8snapshot5testss_28test_compute_account_changes
FNDA:1,_RNvNtNtNtCs2jO2QXn3WZ6_16soroban_debugger9simulator8snapshot5testss_30test_compute_account_additions
FNDA:4,_RNvMNtNtCs2jO2QXn3WZ6_16soroban_debugger9simulator8snapshotNtB2_15SnapshotManager14diff_snapshots
FNDA:2,_RNvMs_NtNtCs2jO2QXn3WZ6_16soroban_debugger9simulator8snapshotNtB4_12SnapshotDiff11has_changes
FNDA:4,_RNvMs_NtNtCs2jO2QXn3WZ6_16soroban_debugger9simulator8snapshotNtB4_12SnapshotDiff7compute
FNF:21
FNH:12
DA:18,1
DA:19,1
DA:20,1
DA:23,1
DA:26,1
DA:27,0
DA:28,0
DA:31,1
DA:32,0
DA:33,0
DA:34,0
DA:35,0
DA:36,0
DA:38,1
DA:40,1
DA:41,1
DA:44,1
DA:45,1
DA:46,1
DA:49,1
DA:50,0
DA:51,0
DA:52,0
DA:53,0
DA:54,0
DA:57,1
DA:58,0
DA:59,0
DA:62,1
DA:64,1
DA:66,0
DA:67,0
DA:70,1
DA:71,1
DA:74,4
DA:75,4
DA:76,4
DA:79,0
DA:80,0
DA:81,0
DA:82,0
DA:83,0
DA:112,4
DA:113,4
DA:114,4
DA:115,4
DA:116,4
DA:117,4
DA:118,4
DA:119,4
DA:120,4
DA:121,4
DA:122,4
DA:123,4
DA:124,4
DA:125,4
DA:126,4
DA:129,4
DA:130,4
DA:131,4
DA:132,4
DA:134,4
DA:135,1
DA:136,0
DA:137,1
DA:140,4
DA:141,3
DA:142,2
DA:143,2
DA:146,4
DA:147,1
DA:148,1
DA:150,1
DA:151,1
DA:152,1
DA:153,1
DA:154,1
DA:155,1
DA:156,1
DA:157,1
DA:158,1
DA:160,1
DA:161,1
DA:162,1
DA:166,4
DA:167,4
DA:168,4
DA:169,4
DA:170,4
DA:171,4
DA:172,4
DA:173,4
DA:174,4
DA:175,4
DA:177,4
DA:178,0
DA:179,0
DA:180,0
DA:183,4
DA:184,0
DA:185,0
DA:186,0
DA:189,4
DA:190,0
DA:191,0
DA:193,0
DA:195,0
DA:196,0
DA:197,0
DA:198,0
DA:199,0
DA:200,0
DA:203,4
DA:204,4
DA:207,0
DA:208,0
DA:211,0
DA:212,0
DA:213,0
DA:214,0
DA:215,0
DA:216,0
DA:217,0
DA:219,0
DA:220,0
DA:221,0
DA:222,0
DA:223,0
DA:224,0
DA:225,0
DA:228,0
DA:229,0
DA:230,0
DA:231,0
DA:232,0
DA:233,0
DA:235,0
DA:236,0
DA:237,0
DA:238,0
DA:239,0
DA:240,0
DA:242,0
DA:243,0
DA:244,0
DA:245,0
DA:246,0
DA:247,0
DA:248,0
DA:249,0
DA:250,0
DA:251,0
DA:252,0
DA:253,0
DA:254,0
DA:255,0
DA:256,0
DA:257,0
DA:258,0
DA:259,0
DA:260,0
DA:262,0
DA:265,0
DA:266,0
DA:267,0
DA:268,0
DA:269,0
DA:270,0
DA:272,0
DA:273,0
DA:274,0
DA:275,0
DA:276,0
DA:277,0
DA:279,0
DA:280,0
DA:282,0
DA:283,0
DA:284,0
DA:285,0
DA:286,0
DA:288,0
DA:290,0
DA:291,0
DA:292,0
DA:294,0
DA:295,0
DA:298,2
DA:299,2
DA:300,2
DA:301,2
DA:302,1
DA:303,1
DA:304,1
DA:305,1
DA:306,1
DA:307,2
DA:336,1
DA:337,1
DA:338,1
DA:339,1
DA:340,1
DA:342,1
DA:343,1
DA:345,1
DA:346,1
DA:348,1
DA:349,1
DA:350,1
DA:353,1
DA:354,1
DA:355,1
DA:356,1
DA:357,1
DA:359,1
DA:360,1
DA:361,1
DA:362,1
DA:364,1
DA:366,1
DA:367,1
DA:368,1
DA:369,1
DA:372,1
DA:373,1
DA:375,1
DA:376,1
DA:377,1
DA:378,1
DA:380,1
DA:382,1
DA:383,1
DA:384,1
DA:387,1
DA:388,1
DA:389,1
DA:390,1
DA:391,1
DA:392,1
DA:394,1
DA:395,1
DA:396,1
DA:399,1
DA:400,1
DA:401,1
DA:403,1
DA:404,1
DA:405,1
BRF:0
BRH:0
LF:261
LH:140
end_of_record
SF:/home/admin/Desktop/opensource/soroban-debugger/src/simulator/state.rs
FN:62,_RINvMNtNtCsjDzxbYtLkYp_16soroban_debugger9simulator5stateNtB3_15NetworkSnapshot3newpEB7_
FN:220,_RINvMs0_NtNtCsjDzxbYtLkYp_16soroban_debugger9simulator5stateNtB6_12AccountState3newppEBa_
FN:338,_RINvMs1_NtNtCsjDzxbYtLkYp_16soroban_debugger9simulator5stateNtB6_13ContractState11set_storagepEBa_
FN:348,_RINvMs1_NtNtCsjDzxbYtLkYp_16soroban_debugger9simulator5stateNtB6_13ContractState12set_wasm_refpEBa_
FN:297,_RINvMs1_NtNtCsjDzxbYtLkYp_16soroban_debugger9simulator5stateNtB6_13ContractState3newppEBa_
FN:133,_RNvMNtNtCsjDzxbYtLkYp_16soroban_debugger9simulator5stateNtB2_15NetworkSnapshot11add_account
FN:111,_RNvMNtNtCsjDzxbYtLkYp_16soroban_debugger9simulator5stateNtB2_15NetworkSnapshot11get_account
FN:144,_RNvMNtNtCsjDzxbYtLkYp_16soroban_debugger9simulator5stateNtB2_15NetworkSnapshot12add_contract
FN:121,_RNvMNtNtCsjDzxbYtLkYp_16soroban_debugger9simulator5stateNtB2_15NetworkSnapshot12get_contract
FN:116,_RNvMNtNtCsjDzxbYtLkYp_16soroban_debugger9simulator5stateNtB2_15NetworkSnapshot15get_account_mut
FN:126,_RNvMNtNtCsjDzxbYtLkYp_16soroban_debugger9simulator5stateNtB2_15NetworkSnapshot16get_contract_mut
FN:156,_RNvMNtNtCsjDzxbYtLkYp_16soroban_debugger9simulator5stateNtB2_15NetworkSnapshot22update_ledger_metadata
FN:75,_RNvMNtNtCsjDzxbYtLkYp_16soroban_debugger9simulator5stateNtB2_15NetworkSnapshot8validate
FN:272,_RNvMs0_NtNtCsjDzxbYtLkYp_16soroban_debugger9simulator5stateNtB5_12AccountState8get_data
FN:262,_RNvMs0_NtNtCsjDzxbYtLkYp_16soroban_debugger9simulator5stateNtB5_12AccountState8set_data
FN:231,_RNvMs0_NtNtCsjDzxbYtLkYp_16soroban_debugger9simulator5stateNtB5_12AccountState8validate
FN:343,_RNvMs1_NtNtCsjDzxbYtLkYp_16soroban_debugger9simulator5stateNtB5_13ContractState11get_storage
FN:307,_RNvMs1_NtNtCsjDzxbYtLkYp_16soroban_debugger9simulator5stateNtB5_13ContractState8validate
FN:179,_RNvMs_NtNtCsjDzxbYtLkYp_16soroban_debugger9simulator5stateNtB4_14LedgerMetadata8validate
FN:137,_RNCNvMNtNtCsjDzxbYtLkYp_16soroban_debugger9simulator5stateNtB4_15NetworkSnapshot11add_account0B8_
FN:112,_RNCNvMNtNtCsjDzxbYtLkYp_16soroban_debugger9simulator5stateNtB4_15NetworkSnapshot11get_account0B8_
FN:149,_RNCNvMNtNtCsjDzxbYtLkYp_16soroban_debugger9simulator5stateNtB4_15NetworkSnapshot12add_contract0B8_
FN:122,_RNCNvMNtNtCsjDzxbYtLkYp_16soroban_debugger9simulator5stateNtB4_15NetworkSnapshot12get_contract0B8_
FN:117,_RNCNvMNtNtCsjDzxbYtLkYp_16soroban_debugger9simulator5stateNtB4_15NetworkSnapshot15get_account_mut0B8_
FN:129,_RNCNvMNtNtCsjDzxbYtLkYp_16soroban_debugger9simulator5stateNtB4_15NetworkSnapshot16get_contract_mut0B8_
FN:273,_RNCNvMs0_NtNtCsjDzxbYtLkYp_16soroban_debugger9simulator5stateNtB7_12AccountState8get_data0Bb_
FN:239,_RNCNvMs0_NtNtCsjDzxbYtLkYp_16soroban_debugger9simulator5stateNtB7_12AccountState8validate0Bb_
FN:250,_RNCNvMs0_NtNtCsjDzxbYtLkYp_16soroban_debugger9simulator5stateNtB7_12AccountState8validates_0Bb_
FN:325,_RNCNvMs1_NtNtCsjDzxbYtLkYp_16soroban_debugger9simulator5stateNtB7_13ContractState8validate0Bb_
FN:62,_RINvMNtNtCsjDzxbYtLkYp_16soroban_debugger9simulator5stateNtB3_15NetworkSnapshot3newNtNtCshQKOepsJxml_5alloc6string6StringECshWzZFnbKY5K_8property
FN:338,_RINvMs1_NtNtCsjDzxbYtLkYp_16soroban_debugger9simulator5stateNtB6_13ContractState11set_storageNtNtCshQKOepsJxml_5alloc6string6StringECshWzZFnbKY5K_8property
FN:297,_RINvMs1_NtNtCsjDzxbYtLkYp_16soroban_debugger9simulator5stateNtB6_13ContractState3newNtNtCshQKOepsJxml_5alloc6string6StringB1k_ECshWzZFnbKY5K_8property
FN:297,_RINvMs1_NtNtCsjDzxbYtLkYp_16soroban_debugger9simulator5stateNtB6_13ContractState3newReB1k_ECshWzZFnbKY5K_8property
FN:348,_RINvMs1_NtNtCs2jO2QXn3WZ6_16soroban_debugger9simulator5stateNtB6_13ContractState12set_wasm_refpEBa_
FN:117,_RNCNvMNtNtCs2jO2QXn3WZ6_16soroban_debugger9simulator5stateNtB4_15NetworkSnapshot15get_account_mut0B8_
FN:129,_RNCNvMNtNtCs2jO2QXn3WZ6_16soroban_debugger9simulator5stateNtB4_15NetworkSnapshot16get_contract_mut0B8_
FN:116,_RNvMNtNtCs2jO2QXn3WZ6_16soroban_debugger9simulator5stateNtB2_15NetworkSnapshot15get_account_mut
FN:126,_RNvMNtNtCs2jO2QXn3WZ6_16soroban_debugger9simulator5stateNtB2_15NetworkSnapshot16get_contract_mut
FN:156,_RNvMNtNtCs2jO2QXn3WZ6_16soroban_debugger9simulator5stateNtB2_15NetworkSnapshot22update_ledger_metadata
FN:358,_RNvNtNtNtCs2jO2QXn3WZ6_16soroban_debugger9simulator5state5testss_20test_create_snapshot
FN:366,_RNvNtNtNtCs2jO2QXn3WZ6_16soroban_debugger9simulator5state5testss_23test_account_validation
FN:375,_RNvNtNtNtCs2jO2QXn3WZ6_16soroban_debugger9simulator5state5testss_24test_contract_validation
FN:404,_RNvNtNtNtCs2jO2QXn3WZ6_16soroban_debugger9simulator5state5testss_28test_account_data_operations
FN:413,_RNvNtNtNtCs2jO2QXn3WZ6_16soroban_debugger9simulator5state5testss_32test_contract_storage_operations
FN:390,_RNvNtNtNtCs2jO2QXn3WZ6_16soroban_debugger9simulator5state5testss_43test_snapshot_validation_duplicate_accounts
FN:133,_RNvMNtNtCs2jO2QXn3WZ6_16soroban_debugger9simulator5stateNtB2_15NetworkSnapshot11add_account
FN:111,_RNvMNtNtCs2jO2QXn3WZ6_16soroban_debugger9simulator5stateNtB2_15NetworkSnapshot11get_account
FN:144,_RNvMNtNtCs2jO2QXn3WZ6_16soroban_debugger9simulator5stateNtB2_15NetworkSnapshot12add_contract
FN:121,_RNvMNtNtCs2jO2QXn3WZ6_16soroban_debugger9simulator5stateNtB2_15NetworkSnapshot12get_contract
FN:75,_RNvMNtNtCs2jO2QXn3WZ6_16soroban_debugger9simulator5stateNtB2_15NetworkSnapshot8validate
FN:272,_RNvMs0_NtNtCs2jO2QXn3WZ6_16soroban_debugger9simulator5stateNtB5_12AccountState8get_data
FN:262,_RNvMs0_NtNtCs2jO2QXn3WZ6_16soroban_debugger9simulator5stateNtB5_12AccountState8set_data
FN:231,_RNvMs0_NtNtCs2jO2QXn3WZ6_16soroban_debugger9simulator5stateNtB5_12AccountState8validate
FN:343,_RNvMs1_NtNtCs2jO2QXn3WZ6_16soroban_debugger9simulator5stateNtB5_13ContractState11get_storage
FN:307,_RNvMs1_NtNtCs2jO2QXn3WZ6_16soroban_debugger9simulator5stateNtB5_13ContractState8validate
FN:179,_RNvMs_NtNtCs2jO2QXn3WZ6_16soroban_debugger9simulator5stateNtB4_14LedgerMetadata8validate
FN:62,_RINvMNtNtCs2jO2QXn3WZ6_16soroban_debugger9simulator5stateNtB3_15NetworkSnapshot3newReEB7_
FN:220,_RINvMs0_NtNtCs2jO2QXn3WZ6_16soroban_debugger9simulator5stateNtB6_12AccountState3newReB1j_EBa_
FN:338,_RINvMs1_NtNtCs2jO2QXn3WZ6_16soroban_debugger9simulator5stateNtB6_13ContractState11set_storageReEBa_
FN:297,_RINvMs1_NtNtCs2jO2QXn3WZ6_16soroban_debugger9simulator5stateNtB6_13ContractState3newReB1k_EBa_
FN:137,_RNCNvMNtNtCs2jO2QXn3WZ6_16soroban_debugger9simulator5stateNtB4_15NetworkSnapshot11add_account0B8_
FN:112,_RNCNvMNtNtCs2jO2QXn3WZ6_16soroban_debugger9simulator5stateNtB4_15NetworkSnapshot11get_account0B8_
FN:149,_RNCNvMNtNtCs2jO2QXn3WZ6_16soroban_debugger9simulator5stateNtB4_15NetworkSnapshot12add_contract0B8_
FN:122,_RNCNvMNtNtCs2jO2QXn3WZ6_16soroban_debugger9simulator5stateNtB4_15NetworkSnapshot12get_contract0B8_
FN:273,_RNCNvMs0_NtNtCs2jO2QXn3WZ6_16soroban_debugger9simulator5stateNtB7_12AccountState8get_data0Bb_
FN:239,_RNCNvMs0_NtNtCs2jO2QXn3WZ6_16soroban_debugger9simulator5stateNtB7_12AccountState8validate0Bb_
FN:250,_RNCNvMs0_NtNtCs2jO2QXn3WZ6_16soroban_debugger9simulator5stateNtB7_12AccountState8validates_0Bb_
FN:325,_RNCNvMs1_NtNtCs2jO2QXn3WZ6_16soroban_debugger9simulator5stateNtB7_13ContractState8validate0Bb_
FNDA:0,_RINvMNtNtCsjDzxbYtLkYp_16soroban_debugger9simulator5stateNtB3_15NetworkSnapshot3newpEB7_
FNDA:0,_RINvMs0_NtNtCsjDzxbYtLkYp_16soroban_debugger9simulator5stateNtB6_12AccountState3newppEBa_
FNDA:0,_RINvMs1_NtNtCsjDzxbYtLkYp_16soroban_debugger9simulator5stateNtB6_13ContractState11set_storagepEBa_
FNDA:0,_RINvMs1_NtNtCsjDzxbYtLkYp_16soroban_debugger9simulator5stateNtB6_13ContractState12set_wasm_refpEBa_
FNDA:0,_RINvMs1_NtNtCsjDzxbYtLkYp_16soroban_debugger9simulator5stateNtB6_13ContractState3newppEBa_
FNDA:0,_RNvMNtNtCsjDzxbYtLkYp_16soroban_debugger9simulator5stateNtB2_15NetworkSnapshot11add_account
FNDA:0,_RNvMNtNtCsjDzxbYtLkYp_16soroban_debugger9simulator5stateNtB2_15NetworkSnapshot11get_account
FNDA:0,_RNvMNtNtCsjDzxbYtLkYp_16soroban_debugger9simulator5stateNtB2_15NetworkSnapshot12add_contract
FNDA:0,_RNvMNtNtCsjDzxbYtLkYp_16soroban_debugger9simulator5stateNtB2_15NetworkSnapshot12get_contract
FNDA:0,_RNvMNtNtCsjDzxbYtLkYp_16soroban_debugger9simulator5stateNtB2_15NetworkSnapshot15get_account_mut
FNDA:0,_RNvMNtNtCsjDzxbYtLkYp_16soroban_debugger9simulator5stateNtB2_15NetworkSnapshot16get_contract_mut
FNDA:0,_RNvMNtNtCsjDzxbYtLkYp_16soroban_debugger9simulator5stateNtB2_15NetworkSnapshot22update_ledger_metadata
FNDA:0,_RNvMNtNtCsjDzxbYtLkYp_16soroban_debugger9simulator5stateNtB2_15NetworkSnapshot8validate
FNDA:0,_RNvMs0_NtNtCsjDzxbYtLkYp_16soroban_debugger9simulator5stateNtB5_12AccountState8get_data
FNDA:0,_RNvMs0_NtNtCsjDzxbYtLkYp_16soroban_debugger9simulator5stateNtB5_12AccountState8set_data
FNDA:0,_RNvMs0_NtNtCsjDzxbYtLkYp_16soroban_debugger9simulator5stateNtB5_12AccountState8validate
FNDA:512,_RNvMs1_NtNtCsjDzxbYtLkYp_16soroban_debugger9simulator5stateNtB5_13ContractState11get_storage
FNDA:0,_RNvMs1_NtNtCsjDzxbYtLkYp_16soroban_debugger9simulator5stateNtB5_13ContractState8validate
FNDA:0,_RNvMs_NtNtCsjDzxbYtLkYp_16soroban_debugger9simulator5stateNtB4_14LedgerMetadata8validate
FNDA:0,_RNCNvMNtNtCsjDzxbYtLkYp_16soroban_debugger9simulator5stateNtB4_15NetworkSnapshot11add_account0B8_
FNDA:0,_RNCNvMNtNtCsjDzxbYtLkYp_16soroban_debugger9simulator5stateNtB4_15NetworkSnapshot11get_account0B8_
FNDA:0,_RNCNvMNtNtCsjDzxbYtLkYp_16soroban_debugger9simulator5stateNtB4_15NetworkSnapshot12add_contract0B8_
FNDA:0,_RNCNvMNtNtCsjDzxbYtLkYp_16soroban_debugger9simulator5stateNtB4_15NetworkSnapshot12get_contract0B8_
FNDA:0,_RNCNvMNtNtCsjDzxbYtLkYp_16soroban_debugger9simulator5stateNtB4_15NetworkSnapshot15get_account_mut0B8_
FNDA:0,_RNCNvMNtNtCsjDzxbYtLkYp_16soroban_debugger9simulator5stateNtB4_15NetworkSnapshot16get_contract_mut0B8_
FNDA:0,_RNCNvMs0_NtNtCsjDzxbYtLkYp_16soroban_debugger9simulator5stateNtB7_12AccountState8get_data0Bb_
FNDA:0,_RNCNvMs0_NtNtCsjDzxbYtLkYp_16soroban_debugger9simulator5stateNtB7_12AccountState8validate0Bb_
FNDA:0,_RNCNvMs0_NtNtCsjDzxbYtLkYp_16soroban_debugger9simulator5stateNtB7_12AccountState8validates_0Bb_
FNDA:0,_RNCNvMs1_NtNtCsjDzxbYtLkYp_16soroban_debugger9simulator5stateNtB7_13ContractState8validate0Bb_
FNDA:256,_RINvMNtNtCsjDzxbYtLkYp_16soroban_debugger9simulator5stateNtB3_15NetworkSnapshot3newNtNtCshQKOepsJxml_5alloc6string6StringECshWzZFnbKY5K_8property
FNDA:1024,_RINvMs1_NtNtCsjDzxbYtLkYp_16soroban_debugger9simulator5stateNtB6_13ContractState11set_storageNtNtCshQKOepsJxml_5alloc6string6StringECshWzZFnbKY5K_8property
FNDA:256,_RINvMs1_NtNtCsjDzxbYtLkYp_16soroban_debugger9simulator5stateNtB6_13ContractState3newNtNtCshQKOepsJxml_5alloc6string6StringB1k_ECshWzZFnbKY5K_8property
FNDA:512,_RINvMs1_NtNtCsjDzxbYtLkYp_16soroban_debugger9simulator5stateNtB6_13ContractState3newReB1k_ECshWzZFnbKY5K_8property
FNDA:0,_RINvMs1_NtNtCs2jO2QXn3WZ6_16soroban_debugger9simulator5stateNtB6_13ContractState12set_wasm_refpEBa_
FNDA:0,_RNCNvMNtNtCs2jO2QXn3WZ6_16soroban_debugger9simulator5stateNtB4_15NetworkSnapshot15get_account_mut0B8_
FNDA:0,_RNCNvMNtNtCs2jO2QXn3WZ6_16soroban_debugger9simulator5stateNtB4_15NetworkSnapshot16get_contract_mut0B8_
FNDA:0,_RNvMNtNtCs2jO2QXn3WZ6_16soroban_debugger9simulator5stateNtB2_15NetworkSnapshot15get_account_mut
FNDA:0,_RNvMNtNtCs2jO2QXn3WZ6_16soroban_debugger9simulator5stateNtB2_15NetworkSnapshot16get_contract_mut
FNDA:0,_RNvMNtNtCs2jO2QXn3WZ6_16soroban_debugger9simulator5stateNtB2_15NetworkSnapshot22update_ledger_metadata
FNDA:1,_RNvNtNtNtCs2jO2QXn3WZ6_16soroban_debugger9simulator5state5testss_20test_create_snapshot
FNDA:1,_RNvNtNtNtCs2jO2QXn3WZ6_16soroban_debugger9simulator5state5testss_23test_account_validation
FNDA:1,_RNvNtNtNtCs2jO2QXn3WZ6_16soroban_debugger9simulator5state5testss_24test_contract_validation
FNDA:1,_RNvNtNtNtCs2jO2QXn3WZ6_16soroban_debugger9simulator5state5testss_28test_account_data_operations
FNDA:1,_RNvNtNtNtCs2jO2QXn3WZ6_16soroban_debugger9simulator5state5testss_32test_contract_storage_operations
FNDA:1,_RNvNtNtNtCs2jO2QXn3WZ6_16soroban_debugger9simulator5state5testss_43test_snapshot_validation_duplicate_accounts
FNDA:9,_RNvMNtNtCs2jO2QXn3WZ6_16soroban_debugger9simulator5stateNtB2_15NetworkSnapshot11add_account
FNDA:3,_RNvMNtNtCs2jO2QXn3WZ6_16soroban_debugger9simulator5stateNtB2_15NetworkSnapshot11get_account
FNDA:1,_RNvMNtNtCs2jO2QXn3WZ6_16soroban_debugger9simulator5stateNtB2_15NetworkSnapshot12add_contract
FNDA:0,_RNvMNtNtCs2jO2QXn3WZ6_16soroban_debugger9simulator5stateNtB2_15NetworkSnapshot12get_contract
FNDA:8,_RNvMNtNtCs2jO2QXn3WZ6_16soroban_debugger9simulator5stateNtB2_15NetworkSnapshot8validate
FNDA:2,_RNvMs0_NtNtCs2jO2QXn3WZ6_16soroban_debugger9simulator5stateNtB5_12AccountState8get_data
FNDA:1,_RNvMs0_NtNtCs2jO2QXn3WZ6_16soroban_debugger9simulator5stateNtB5_12AccountState8set_data
FNDA:15,_RNvMs0_NtNtCs2jO2QXn3WZ6_16soroban_debugger9simulator5stateNtB5_12AccountState8validate
FNDA:1,_RNvMs1_NtNtCs2jO2QXn3WZ6_16soroban_debugger9simulator5stateNtB5_13ContractState11get_storage
FNDA:4,_RNvMs1_NtNtCs2jO2QXn3WZ6_16soroban_debugger9simulator5stateNtB5_13ContractState8validate
FNDA:8,_RNvMs_NtNtCs2jO2QXn3WZ6_16soroban_debugger9simulator5stateNtB4_14LedgerMetadata8validate
FNDA:15,_RINvMNtNtCs2jO2QXn3WZ6_16soroban_debugger9simulator5stateNtB3_15NetworkSnapshot3newReEB7_
FNDA:11,_RINvMs0_NtNtCs2jO2QXn3WZ6_16soroban_debugger9simulator5stateNtB6_12AccountState3newReB1j_EBa_
FNDA:1,_RINvMs1_NtNtCs2jO2QXn3WZ6_16soroban_debugger9simulator5stateNtB6_13ContractState11set_storageReEBa_
FNDA:4,_RINvMs1_NtNtCs2jO2QXn3WZ6_16soroban_debugger9simulator5stateNtB6_13ContractState3newReB1k_EBa_
FNDA:1,_RNCNvMNtNtCs2jO2QXn3WZ6_16soroban_debugger9simulator5stateNtB4_15NetworkSnapshot11add_account0B8_
FNDA:3,_RNCNvMNtNtCs2jO2QXn3WZ6_16soroban_debugger9simulator5stateNtB4_15NetworkSnapshot11get_account0B8_
FNDA:0,_RNCNvMNtNtCs2jO2QXn3WZ6_16soroban_debugger9simulator5stateNtB4_15NetworkSnapshot12add_contract0B8_
FNDA:0,_RNCNvMNtNtCs2jO2QXn3WZ6_16soroban_debugger9simulator5stateNtB4_15NetworkSnapshot12get_contract0B8_
FNDA:2,_RNCNvMs0_NtNtCs2jO2QXn3WZ6_16soroban_debugger9simulator5stateNtB7_12AccountState8get_data0Bb_
FNDA:120,_RNCNvMs0_NtNtCs2jO2QXn3WZ6_16soroban_debugger9simulator5stateNtB7_12AccountState8validate0Bb_
FNDA:1,_RNCNvMs0_NtNtCs2jO2QXn3WZ6_16soroban_debugger9simulator5stateNtB7_12AccountState8validates_0Bb_
FNDA:25,_RNCNvMs1_NtNtCs2jO2QXn3WZ6_16soroban_debugger9simulator5stateNtB7_13ContractState8validate0Bb_
FNF:35
FNH:26
DA:62,271
DA:63,271
DA:64,271
DA:65,271
DA:66,271
DA:67,271
DA:68,271
DA:69,271
DA:70,271
DA:71,271
DA:72,271
DA:75,8
DA:77,8
DA:80,8
DA:81,8
DA:82,4
DA:84,4
DA:85,0
DA:86,0
DA:87,0
DA:88,0
DA:89,0
DA:90,4
DA:94,8
DA:95,8
DA:96,1
DA:98,1
DA:99,0
DA:100,0
DA:101,0
DA:102,0
DA:103,0
DA:104,1
DA:107,8
DA:108,8
DA:111,3
DA:112,3
DA:113,3
DA:116,0
DA:117,0
DA:118,0
DA:121,0
DA:122,0
DA:123,0
DA:126,0
DA:127,0
DA:128,0
DA:129,0
DA:130,0
DA:133,9
DA:134,9
DA:137,9
DA:139,9
DA:140,9
DA:141,9
DA:144,1
DA:145,1
DA:148,1
DA:149,1
DA:151,1
DA:152,1
DA:153,1
DA:156,0
DA:157,0
DA:158,0
DA:159,0
DA:160,0
DA:161,0
DA:179,8
DA:180,8
DA:181,0
DA:182,0
DA:183,0
DA:184,8
DA:186,8
DA:187,0
DA:188,0
DA:189,0
DA:190,0
DA:191,8
DA:193,8
DA:194,8
DA:220,11
DA:221,11
DA:222,11
DA:223,11
DA:224,11
DA:225,11
DA:226,11
DA:227,11
DA:228,11
DA:231,15
DA:233,15
DA:234,0
DA:235,0
DA:236,0
DA:237,15
DA:239,120
DA:240,0
DA:241,0
DA:242,0
DA:243,0
DA:244,0
DA:245,15
DA:248,15
DA:249,15
DA:250,15
DA:251,1
DA:252,1
DA:253,1
DA:254,1
DA:255,1
DA:256,1
DA:258,14
DA:259,15
DA:262,1
DA:263,1
DA:264,1
DA:265,1
DA:266,1
DA:267,1
DA:268,1
DA:269,1
DA:272,2
DA:273,2
DA:274,2
DA:297,772
DA:298,772
DA:299,772
DA:300,772
DA:301,772
DA:302,772
DA:303,772
DA:304,772
DA:307,4
DA:308,4
DA:309,0
DA:310,0
DA:311,0
DA:312,0
DA:313,4
DA:315,4
DA:316,0
DA:317,0
DA:318,0
DA:319,4
DA:322,4
DA:323,4
DA:324,4
DA:325,25
DA:327,1
DA:328,1
DA:329,1
DA:330,1
DA:331,1
DA:332,3
DA:334,3
DA:335,4
DA:338,1025
DA:339,1025
DA:340,1025
DA:343,513
DA:344,513
DA:345,513
DA:348,0
DA:349,0
DA:350,0
DA:358,1
DA:359,1
DA:360,1
DA:361,1
DA:362,1
DA:363,1
DA:366,1
DA:367,1
DA:368,1
DA:370,1
DA:371,1
DA:372,1
DA:375,1
DA:376,1
DA:380,1
DA:382,1
DA:386,1
DA:387,1
DA:390,1
DA:391,1
DA:392,1
DA:393,1
DA:395,1
DA:396,1
DA:399,1
DA:400,1
DA:401,1
DA:404,1
DA:405,1
DA:406,1
DA:408,1
DA:409,1
DA:410,1
DA:413,1
DA:414,1
DA:418,1
DA:420,1
DA:421,1
DA:422,1
DA:424,1
BRF:0
BRH:0
LF:218
LH:162
end_of_record
SF:/home/admin/Desktop/opensource/soroban-debugger/src/ui/dashboard.rs
FN:404,_RINvNtNtCsjDzxbYtLkYp_16soroban_debugger2ui9dashboard7run_appINtNtNtCsfFfTWyGC814_7ratatui7backend9crossterm16CrosstermBackendNtNtNtCs7dz5ZklJ0d7_3std2io5stdio6StdoutEEB6_
FN:415,_RNCINvNtNtCsjDzxbYtLkYp_16soroban_debugger2ui9dashboard7run_appINtNtNtCsfFfTWyGC814_7ratatui7backend9crossterm16CrosstermBackendNtNtNtCs7dz5ZklJ0d7_3std2io5stdio6StdoutEE0B8_
FN:423,_RNCINvNtNtCsjDzxbYtLkYp_16soroban_debugger2ui9dashboard7run_appINtNtNtCsfFfTWyGC814_7ratatui7backend9crossterm16CrosstermBackendNtNtNtCs7dz5ZklJ0d7_3std2io5stdio6StdoutEEs0_0B8_
FN:426,_RNCINvNtNtCsjDzxbYtLkYp_16soroban_debugger2ui9dashboard7run_appINtNtNtCsfFfTWyGC814_7ratatui7backend9crossterm16CrosstermBackendNtNtNtCs7dz5ZklJ0d7_3std2io5stdio6StdoutEEs1_0B8_
FN:416,_RNCINvNtNtCsjDzxbYtLkYp_16soroban_debugger2ui9dashboard7run_appINtNtNtCsfFfTWyGC814_7ratatui7backend9crossterm16CrosstermBackendNtNtNtCs7dz5ZklJ0d7_3std2io5stdio6StdoutEEs_0B8_
FN:621,_RNCNCNvNtNtCsjDzxbYtLkYp_16soroban_debugger2ui9dashboard17render_call_stack00B9_
FN:626,_RNCNCNvNtNtCsjDzxbYtLkYp_16soroban_debugger2ui9dashboard17render_call_stack0s_0B9_
FN:256,_RNCNvMs_NtNtCsjDzxbYtLkYp_16soroban_debugger2ui9dashboardNtB6_12DashboardApp13refresh_state0Ba_
FN:257,_RNCNvMs_NtNtCsjDzxbYtLkYp_16soroban_debugger2ui9dashboardNtB6_12DashboardApp13refresh_states_0Ba_
FN:903,_RNCNvNtNtCsjDzxbYtLkYp_16soroban_debugger2ui9dashboard10render_log0B7_
FN:373,_RNCNvNtNtCsjDzxbYtLkYp_16soroban_debugger2ui9dashboard13run_dashboard0B7_
FN:380,_RNCNvNtNtCsjDzxbYtLkYp_16soroban_debugger2ui9dashboard13run_dashboards0_0B7_
FN:386,_RNCNvNtNtCsjDzxbYtLkYp_16soroban_debugger2ui9dashboard13run_dashboards1_0B7_
FN:392,_RNCNvNtNtCsjDzxbYtLkYp_16soroban_debugger2ui9dashboard13run_dashboards2_0B7_
FN:395,_RNCNvNtNtCsjDzxbYtLkYp_16soroban_debugger2ui9dashboard13run_dashboards3_0B7_
FN:375,_RNCNvNtNtCsjDzxbYtLkYp_16soroban_debugger2ui9dashboard13run_dashboards_0B7_
FN:686,_RNCNvNtNtCsjDzxbYtLkYp_16soroban_debugger2ui9dashboard14render_storage0B7_
FN:856,_RNCNvNtNtCsjDzxbYtLkYp_16soroban_debugger2ui9dashboard15build_sparkline0B7_
FN:613,_RNCNvNtNtCsjDzxbYtLkYp_16soroban_debugger2ui9dashboard17render_call_stack0B7_
FN:64,_RNvMNtNtCsjDzxbYtLkYp_16soroban_debugger2ui9dashboardNtB2_10ActivePane4next
FN:73,_RNvMNtNtCsjDzxbYtLkYp_16soroban_debugger2ui9dashboardNtB2_10ActivePane4prev
FN:82,_RNvMNtNtCsjDzxbYtLkYp_16soroban_debugger2ui9dashboardNtB2_10ActivePane5label
FN:293,_RNvMs_NtNtCsjDzxbYtLkYp_16soroban_debugger2ui9dashboardNtB4_12DashboardApp11do_continue
FN:214,_RNvMs_NtNtCsjDzxbYtLkYp_16soroban_debugger2ui9dashboardNtB4_12DashboardApp13refresh_state
FN:337,_RNvMs_NtNtCsjDzxbYtLkYp_16soroban_debugger2ui9dashboardNtB4_12DashboardApp16scroll_active_up
FN:308,_RNvMs_NtNtCsjDzxbYtLkYp_16soroban_debugger2ui9dashboardNtB4_12DashboardApp18scroll_active_down
FN:147,_RNvMs_NtNtCsjDzxbYtLkYp_16soroban_debugger2ui9dashboardNtB4_12DashboardApp3new
FN:275,_RNvMs_NtNtCsjDzxbYtLkYp_16soroban_debugger2ui9dashboardNtB4_12DashboardApp7do_step
FN:197,_RNvMs_NtNtCsjDzxbYtLkYp_16soroban_debugger2ui9dashboardNtB4_12DashboardApp8push_log
FN:1082,_RNvNtNtCsjDzxbYtLkYp_16soroban_debugger2ui9dashboard10pane_block
FN:869,_RNvNtNtCsjDzxbYtLkYp_16soroban_debugger2ui9dashboard10render_log
FN:1171,_RNvNtNtCsjDzxbYtLkYp_16soroban_debugger2ui9dashboard10shorten_id
FN:1126,_RNvNtNtCsjDzxbYtLkYp_16soroban_debugger2ui9dashboard11gauge_color
FN:567,_RNvNtNtCsjDzxbYtLkYp_16soroban_debugger2ui9dashboard11render_body
FN:736,_RNvNtNtCsjDzxbYtLkYp_16soroban_debugger2ui9dashboard13render_budget
FN:515,_RNvNtNtCsjDzxbYtLkYp_16soroban_debugger2ui9dashboard13render_header
FN:369,_RNvNtNtCsjDzxbYtLkYp_16soroban_debugger2ui9dashboard13run_dashboard
FN:663,_RNvNtNtCsjDzxbYtLkYp_16soroban_debugger2ui9dashboard14render_storage
FN:852,_RNvNtNtCsjDzxbYtLkYp_16soroban_debugger2ui9dashboard15build_sparkline
FN:1115,_RNvNtNtCsjDzxbYtLkYp_16soroban_debugger2ui9dashboard16format_timestamp
FN:591,_RNvNtNtCsjDzxbYtLkYp_16soroban_debugger2ui9dashboard17render_call_stack
FN:955,_RNvNtNtCsjDzxbYtLkYp_16soroban_debugger2ui9dashboard17render_status_bar
FN:991,_RNvNtNtCsjDzxbYtLkYp_16soroban_debugger2ui9dashboard19render_help_overlay
FN:488,_RNvNtNtCsjDzxbYtLkYp_16soroban_debugger2ui9dashboard2ui
FN:1068,_RNvNtNtCsjDzxbYtLkYp_16soroban_debugger2ui9dashboard4bind
FN:1136,_RNvNtNtCsjDzxbYtLkYp_16soroban_debugger2ui9dashboard7fmt_num
FN:1161,_RNvNtNtCsjDzxbYtLkYp_16soroban_debugger2ui9dashboard8truncate
FN:1149,_RNvNtNtCsjDzxbYtLkYp_16soroban_debugger2ui9dashboard9fmt_bytes
FN:404,_RINvNtNtCs2jO2QXn3WZ6_16soroban_debugger2ui9dashboard7run_apppEB6_
FN:415,_RNCINvNtNtCs2jO2QXn3WZ6_16soroban_debugger2ui9dashboard7run_apppE0B8_
FN:423,_RNCINvNtNtCs2jO2QXn3WZ6_16soroban_debugger2ui9dashboard7run_apppEs0_0B8_
FN:426,_RNCINvNtNtCs2jO2QXn3WZ6_16soroban_debugger2ui9dashboard7run_apppEs1_0B8_
FN:416,_RNCINvNtNtCs2jO2QXn3WZ6_16soroban_debugger2ui9dashboard7run_apppEs_0B8_
FN:621,_RNCNCNvNtNtCs2jO2QXn3WZ6_16soroban_debugger2ui9dashboard17render_call_stack00B9_
FN:626,_RNCNCNvNtNtCs2jO2QXn3WZ6_16soroban_debugger2ui9dashboard17render_call_stack0s_0B9_
FN:256,_RNCNvMs_NtNtCs2jO2QXn3WZ6_16soroban_debugger2ui9dashboardNtB6_12DashboardApp13refresh_state0Ba_
FN:257,_RNCNvMs_NtNtCs2jO2QXn3WZ6_16soroban_debugger2ui9dashboardNtB6_12DashboardApp13refresh_states_0Ba_
FN:903,_RNCNvNtNtCs2jO2QXn3WZ6_16soroban_debugger2ui9dashboard10render_log0B7_
FN:373,_RNCNvNtNtCs2jO2QXn3WZ6_16soroban_debugger2ui9dashboard13run_dashboard0B7_
FN:380,_RNCNvNtNtCs2jO2QXn3WZ6_16soroban_debugger2ui9dashboard13run_dashboards0_0B7_
FN:386,_RNCNvNtNtCs2jO2QXn3WZ6_16soroban_debugger2ui9dashboard13run_dashboards1_0B7_
FN:392,_RNCNvNtNtCs2jO2QXn3WZ6_16soroban_debugger2ui9dashboard13run_dashboards2_0B7_
FN:395,_RNCNvNtNtCs2jO2QXn3WZ6_16soroban_debugger2ui9dashboard13run_dashboards3_0B7_
FN:375,_RNCNvNtNtCs2jO2QXn3WZ6_16soroban_debugger2ui9dashboard13run_dashboards_0B7_
FN:686,_RNCNvNtNtCs2jO2QXn3WZ6_16soroban_debugger2ui9dashboard14render_storage0B7_
FN:856,_RNCNvNtNtCs2jO2QXn3WZ6_16soroban_debugger2ui9dashboard15build_sparkline0B7_
FN:613,_RNCNvNtNtCs2jO2QXn3WZ6_16soroban_debugger2ui9dashboard17render_call_stack0B7_
FN:64,_RNvMNtNtCs2jO2QXn3WZ6_16soroban_debugger2ui9dashboardNtB2_10ActivePane4next
FN:73,_RNvMNtNtCs2jO2QXn3WZ6_16soroban_debugger2ui9dashboardNtB2_10ActivePane4prev
FN:82,_RNvMNtNtCs2jO2QXn3WZ6_16soroban_debugger2ui9dashboardNtB2_10ActivePane5label
FN:293,_RNvMs_NtNtCs2jO2QXn3WZ6_16soroban_debugger2ui9dashboardNtB4_12DashboardApp11do_continue
FN:214,_RNvMs_NtNtCs2jO2QXn3WZ6_16soroban_debugger2ui9dashboardNtB4_12DashboardApp13refresh_state
FN:337,_RNvMs_NtNtCs2jO2QXn3WZ6_16soroban_debugger2ui9dashboardNtB4_12DashboardApp16scroll_active_up
FN:308,_RNvMs_NtNtCs2jO2QXn3WZ6_16soroban_debugger2ui9dashboardNtB4_12DashboardApp18scroll_active_down
FN:147,_RNvMs_NtNtCs2jO2QXn3WZ6_16soroban_debugger2ui9dashboardNtB4_12DashboardApp3new
FN:275,_RNvMs_NtNtCs2jO2QXn3WZ6_16soroban_debugger2ui9dashboardNtB4_12DashboardApp7do_step
FN:197,_RNvMs_NtNtCs2jO2QXn3WZ6_16soroban_debugger2ui9dashboardNtB4_12DashboardApp8push_log
FN:1082,_RNvNtNtCs2jO2QXn3WZ6_16soroban_debugger2ui9dashboard10pane_block
FN:869,_RNvNtNtCs2jO2QXn3WZ6_16soroban_debugger2ui9dashboard10render_log
FN:1171,_RNvNtNtCs2jO2QXn3WZ6_16soroban_debugger2ui9dashboard10shorten_id
FN:1126,_RNvNtNtCs2jO2QXn3WZ6_16soroban_debugger2ui9dashboard11gauge_color
FN:567,_RNvNtNtCs2jO2QXn3WZ6_16soroban_debugger2ui9dashboard11render_body
FN:736,_RNvNtNtCs2jO2QXn3WZ6_16soroban_debugger2ui9dashboard13render_budget
FN:515,_RNvNtNtCs2jO2QXn3WZ6_16soroban_debugger2ui9dashboard13render_header
FN:369,_RNvNtNtCs2jO2QXn3WZ6_16soroban_debugger2ui9dashboard13run_dashboard
FN:663,_RNvNtNtCs2jO2QXn3WZ6_16soroban_debugger2ui9dashboard14render_storage
FN:852,_RNvNtNtCs2jO2QXn3WZ6_16soroban_debugger2ui9dashboard15build_sparkline
FN:1115,_RNvNtNtCs2jO2QXn3WZ6_16soroban_debugger2ui9dashboard16format_timestamp
FN:591,_RNvNtNtCs2jO2QXn3WZ6_16soroban_debugger2ui9dashboard17render_call_stack
FN:955,_RNvNtNtCs2jO2QXn3WZ6_16soroban_debugger2ui9dashboard17render_status_bar
FN:991,_RNvNtNtCs2jO2QXn3WZ6_16soroban_debugger2ui9dashboard19render_help_overlay
FN:488,_RNvNtNtCs2jO2QXn3WZ6_16soroban_debugger2ui9dashboard2ui
FN:1068,_RNvNtNtCs2jO2QXn3WZ6_16soroban_debugger2ui9dashboard4bind
FN:1136,_RNvNtNtCs2jO2QXn3WZ6_16soroban_debugger2ui9dashboard7fmt_num
FN:1161,_RNvNtNtCs2jO2QXn3WZ6_16soroban_debugger2ui9dashboard8truncate
FN:1149,_RNvNtNtCs2jO2QXn3WZ6_16soroban_debugger2ui9dashboard9fmt_bytes
FNDA:0,_RINvNtNtCsjDzxbYtLkYp_16soroban_debugger2ui9dashboard7run_appINtNtNtCsfFfTWyGC814_7ratatui7backend9crossterm16CrosstermBackendNtNtNtCs7dz5ZklJ0d7_3std2io5stdio6StdoutEEB6_
FNDA:0,_RNCINvNtNtCsjDzxbYtLkYp_16soroban_debugger2ui9dashboard7run_appINtNtNtCsfFfTWyGC814_7ratatui7backend9crossterm16CrosstermBackendNtNtNtCs7dz5ZklJ0d7_3std2io5stdio6StdoutEE0B8_
FNDA:0,_RNCINvNtNtCsjDzxbYtLkYp_16soroban_debugger2ui9dashboard7run_appINtNtNtCsfFfTWyGC814_7ratatui7backend9crossterm16CrosstermBackendNtNtNtCs7dz5ZklJ0d7_3std2io5stdio6StdoutEEs0_0B8_
FNDA:0,_RNCINvNtNtCsjDzxbYtLkYp_16soroban_debugger2ui9dashboard7run_appINtNtNtCsfFfTWyGC814_7ratatui7backend9crossterm16CrosstermBackendNtNtNtCs7dz5ZklJ0d7_3std2io5stdio6StdoutEEs1_0B8_
FNDA:0,_RNCINvNtNtCsjDzxbYtLkYp_16soroban_debugger2ui9dashboard7run_appINtNtNtCsfFfTWyGC814_7ratatui7backend9crossterm16CrosstermBackendNtNtNtCs7dz5ZklJ0d7_3std2io5stdio6StdoutEEs_0B8_
FNDA:0,_RNCNCNvNtNtCsjDzxbYtLkYp_16soroban_debugger2ui9dashboard17render_call_stack00B9_
FNDA:0,_RNCNCNvNtNtCsjDzxbYtLkYp_16soroban_debugger2ui9dashboard17render_call_stack0s_0B9_
FNDA:0,_RNCNvMs_NtNtCsjDzxbYtLkYp_16soroban_debugger2ui9dashboardNtB6_12DashboardApp13refresh_state0Ba_
FNDA:0,_RNCNvMs_NtNtCsjDzxbYtLkYp_16soroban_debugger2ui9dashboardNtB6_12DashboardApp13refresh_states_0Ba_
FNDA:0,_RNCNvNtNtCsjDzxbYtLkYp_16soroban_debugger2ui9dashboard10render_log0B7_
FNDA:0,_RNCNvNtNtCsjDzxbYtLkYp_16soroban_debugger2ui9dashboard13run_dashboard0B7_
FNDA:0,_RNCNvNtNtCsjDzxbYtLkYp_16soroban_debugger2ui9dashboard13run_dashboards0_0B7_
FNDA:0,_RNCNvNtNtCsjDzxbYtLkYp_16soroban_debugger2ui9dashboard13run_dashboards1_0B7_
FNDA:0,_RNCNvNtNtCsjDzxbYtLkYp_16soroban_debugger2ui9dashboard13run_dashboards2_0B7_
FNDA:0,_RNCNvNtNtCsjDzxbYtLkYp_16soroban_debugger2ui9dashboard13run_dashboards3_0B7_
FNDA:0,_RNCNvNtNtCsjDzxbYtLkYp_16soroban_debugger2ui9dashboard13run_dashboards_0B7_
FNDA:0,_RNCNvNtNtCsjDzxbYtLkYp_16soroban_debugger2ui9dashboard14render_storage0B7_
FNDA:0,_RNCNvNtNtCsjDzxbYtLkYp_16soroban_debugger2ui9dashboard15build_sparkline0B7_
FNDA:0,_RNCNvNtNtCsjDzxbYtLkYp_16soroban_debugger2ui9dashboard17render_call_stack0B7_
FNDA:0,_RNvMNtNtCsjDzxbYtLkYp_16soroban_debugger2ui9dashboardNtB2_10ActivePane4next
FNDA:0,_RNvMNtNtCsjDzxbYtLkYp_16soroban_debugger2ui9dashboardNtB2_10ActivePane4prev
FNDA:0,_RNvMNtNtCsjDzxbYtLkYp_16soroban_debugger2ui9dashboardNtB2_10ActivePane5label
FNDA:0,_RNvMs_NtNtCsjDzxbYtLkYp_16soroban_debugger2ui9dashboardNtB4_12DashboardApp11do_continue
FNDA:0,_RNvMs_NtNtCsjDzxbYtLkYp_16soroban_debugger2ui9dashboardNtB4_12DashboardApp13refresh_state
FNDA:0,_RNvMs_NtNtCsjDzxbYtLkYp_16soroban_debugger2ui9dashboardNtB4_12DashboardApp16scroll_active_up
FNDA:0,_RNvMs_NtNtCsjDzxbYtLkYp_16soroban_debugger2ui9dashboardNtB4_12DashboardApp18scroll_active_down
FNDA:0,_RNvMs_NtNtCsjDzxbYtLkYp_16soroban_debugger2ui9dashboardNtB4_12DashboardApp3new
FNDA:0,_RNvMs_NtNtCsjDzxbYtLkYp_16soroban_debugger2ui9dashboardNtB4_12DashboardApp7do_step
FNDA:0,_RNvMs_NtNtCsjDzxbYtLkYp_16soroban_debugger2ui9dashboardNtB4_12DashboardApp8push_log
FNDA:0,_RNvNtNtCsjDzxbYtLkYp_16soroban_debugger2ui9dashboard10pane_block
FNDA:0,_RNvNtNtCsjDzxbYtLkYp_16soroban_debugger2ui9dashboard10render_log
FNDA:0,_RNvNtNtCsjDzxbYtLkYp_16soroban_debugger2ui9dashboard10shorten_id
FNDA:0,_RNvNtNtCsjDzxbYtLkYp_16soroban_debugger2ui9dashboard11gauge_color
FNDA:0,_RNvNtNtCsjDzxbYtLkYp_16soroban_debugger2ui9dashboard11render_body
FNDA:0,_RNvNtNtCsjDzxbYtLkYp_16soroban_debugger2ui9dashboard13render_budget
FNDA:0,_RNvNtNtCsjDzxbYtLkYp_16soroban_debugger2ui9dashboard13render_header
FNDA:0,_RNvNtNtCsjDzxbYtLkYp_16soroban_debugger2ui9dashboard13run_dashboard
FNDA:0,_RNvNtNtCsjDzxbYtLkYp_16soroban_debugger2ui9dashboard14render_storage
FNDA:0,_RNvNtNtCsjDzxbYtLkYp_16soroban_debugger2ui9dashboard15build_sparkline
FNDA:0,_RNvNtNtCsjDzxbYtLkYp_16soroban_debugger2ui9dashboard16format_timestamp
FNDA:0,_RNvNtNtCsjDzxbYtLkYp_16soroban_debugger2ui9dashboard17render_call_stack
FNDA:0,_RNvNtNtCsjDzxbYtLkYp_16soroban_debugger2ui9dashboard17render_status_bar
FNDA:0,_RNvNtNtCsjDzxbYtLkYp_16soroban_debugger2ui9dashboard19render_help_overlay
FNDA:0,_RNvNtNtCsjDzxbYtLkYp_16soroban_debugger2ui9dashboard2ui
FNDA:0,_RNvNtNtCsjDzxbYtLkYp_16soroban_debugger2ui9dashboard4bind
FNDA:0,_RNvNtNtCsjDzxbYtLkYp_16soroban_debugger2ui9dashboard7fmt_num
FNDA:0,_RNvNtNtCsjDzxbYtLkYp_16soroban_debugger2ui9dashboard8truncate
FNDA:0,_RNvNtNtCsjDzxbYtLkYp_16soroban_debugger2ui9dashboard9fmt_bytes
FNDA:0,_RINvNtNtCs2jO2QXn3WZ6_16soroban_debugger2ui9dashboard7run_apppEB6_
FNDA:0,_RNCINvNtNtCs2jO2QXn3WZ6_16soroban_debugger2ui9dashboard7run_apppE0B8_
FNDA:0,_RNCINvNtNtCs2jO2QXn3WZ6_16soroban_debugger2ui9dashboard7run_apppEs0_0B8_
FNDA:0,_RNCINvNtNtCs2jO2QXn3WZ6_16soroban_debugger2ui9dashboard7run_apppEs1_0B8_
FNDA:0,_RNCINvNtNtCs2jO2QXn3WZ6_16soroban_debugger2ui9dashboard7run_apppEs_0B8_
FNDA:0,_RNCNCNvNtNtCs2jO2QXn3WZ6_16soroban_debugger2ui9dashboard17render_call_stack00B9_
FNDA:0,_RNCNCNvNtNtCs2jO2QXn3WZ6_16soroban_debugger2ui9dashboard17render_call_stack0s_0B9_
FNDA:0,_RNCNvMs_NtNtCs2jO2QXn3WZ6_16soroban_debugger2ui9dashboardNtB6_12DashboardApp13refresh_state0Ba_
FNDA:0,_RNCNvMs_NtNtCs2jO2QXn3WZ6_16soroban_debugger2ui9dashboardNtB6_12DashboardApp13refresh_states_0Ba_
FNDA:0,_RNCNvNtNtCs2jO2QXn3WZ6_16soroban_debugger2ui9dashboard10render_log0B7_
FNDA:0,_RNCNvNtNtCs2jO2QXn3WZ6_16soroban_debugger2ui9dashboard13run_dashboard0B7_
FNDA:0,_RNCNvNtNtCs2jO2QXn3WZ6_16soroban_debugger2ui9dashboard13run_dashboards0_0B7_
FNDA:0,_RNCNvNtNtCs2jO2QXn3WZ6_16soroban_debugger2ui9dashboard13run_dashboards1_0B7_
FNDA:0,_RNCNvNtNtCs2jO2QXn3WZ6_16soroban_debugger2ui9dashboard13run_dashboards2_0B7_
FNDA:0,_RNCNvNtNtCs2jO2QXn3WZ6_16soroban_debugger2ui9dashboard13run_dashboards3_0B7_
FNDA:0,_RNCNvNtNtCs2jO2QXn3WZ6_16soroban_debugger2ui9dashboard13run_dashboards_0B7_
FNDA:0,_RNCNvNtNtCs2jO2QXn3WZ6_16soroban_debugger2ui9dashboard14render_storage0B7_
FNDA:0,_RNCNvNtNtCs2jO2QXn3WZ6_16soroban_debugger2ui9dashboard15build_sparkline0B7_
FNDA:0,_RNCNvNtNtCs2jO2QXn3WZ6_16soroban_debugger2ui9dashboard17render_call_stack0B7_
FNDA:0,_RNvMNtNtCs2jO2QXn3WZ6_16soroban_debugger2ui9dashboardNtB2_10ActivePane4next
FNDA:0,_RNvMNtNtCs2jO2QXn3WZ6_16soroban_debugger2ui9dashboardNtB2_10ActivePane4prev
FNDA:0,_RNvMNtNtCs2jO2QXn3WZ6_16soroban_debugger2ui9dashboardNtB2_10ActivePane5label
FNDA:0,_RNvMs_NtNtCs2jO2QXn3WZ6_16soroban_debugger2ui9dashboardNtB4_12DashboardApp11do_continue
FNDA:0,_RNvMs_NtNtCs2jO2QXn3WZ6_16soroban_debugger2ui9dashboardNtB4_12DashboardApp13refresh_state
FNDA:0,_RNvMs_NtNtCs2jO2QXn3WZ6_16soroban_debugger2ui9dashboardNtB4_12DashboardApp16scroll_active_up
FNDA:0,_RNvMs_NtNtCs2jO2QXn3WZ6_16soroban_debugger2ui9dashboardNtB4_12DashboardApp18scroll_active_down
FNDA:0,_RNvMs_NtNtCs2jO2QXn3WZ6_16soroban_debugger2ui9dashboardNtB4_12DashboardApp3new
FNDA:0,_RNvMs_NtNtCs2jO2QXn3WZ6_16soroban_debugger2ui9dashboardNtB4_12DashboardApp7do_step
FNDA:0,_RNvMs_NtNtCs2jO2QXn3WZ6_16soroban_debugger2ui9dashboardNtB4_12DashboardApp8push_log
FNDA:0,_RNvNtNtCs2jO2QXn3WZ6_16soroban_debugger2ui9dashboard10pane_block
FNDA:0,_RNvNtNtCs2jO2QXn3WZ6_16soroban_debugger2ui9dashboard10render_log
FNDA:0,_RNvNtNtCs2jO2QXn3WZ6_16soroban_debugger2ui9dashboard10shorten_id
FNDA:0,_RNvNtNtCs2jO2QXn3WZ6_16soroban_debugger2ui9dashboard11gauge_color
FNDA:0,_RNvNtNtCs2jO2QXn3WZ6_16soroban_debugger2ui9dashboard11render_body
FNDA:0,_RNvNtNtCs2jO2QXn3WZ6_16soroban_debugger2ui9dashboard13render_budget
FNDA:0,_RNvNtNtCs2jO2QXn3WZ6_16soroban_debugger2ui9dashboard13render_header
FNDA:0,_RNvNtNtCs2jO2QXn3WZ6_16soroban_debugger2ui9dashboard13run_dashboard
FNDA:0,_RNvNtNtCs2jO2QXn3WZ6_16soroban_debugger2ui9dashboard14render_storage
FNDA:0,_RNvNtNtCs2jO2QXn3WZ6_16soroban_debugger2ui9dashboard15build_sparkline
FNDA:0,_RNvNtNtCs2jO2QXn3WZ6_16soroban_debugger2ui9dashboard16format_timestamp
FNDA:0,_RNvNtNtCs2jO2QXn3WZ6_16soroban_debugger2ui9dashboard17render_call_stack
FNDA:0,_RNvNtNtCs2jO2QXn3WZ6_16soroban_debugger2ui9dashboard17render_status_bar
FNDA:0,_RNvNtNtCs2jO2QXn3WZ6_16soroban_debugger2ui9dashboard19render_help_overlay
FNDA:0,_RNvNtNtCs2jO2QXn3WZ6_16soroban_debugger2ui9dashboard2ui
FNDA:0,_RNvNtNtCs2jO2QXn3WZ6_16soroban_debugger2ui9dashboard4bind
FNDA:0,_RNvNtNtCs2jO2QXn3WZ6_16soroban_debugger2ui9dashboard7fmt_num
FNDA:0,_RNvNtNtCs2jO2QXn3WZ6_16soroban_debugger2ui9dashboard8truncate
FNDA:0,_RNvNtNtCs2jO2QXn3WZ6_16soroban_debugger2ui9dashboard9fmt_bytes
FNF:48
FNH:0
DA:64,0
DA:65,0
DA:66,0
DA:67,0
DA:68,0
DA:69,0
DA:71,0
DA:73,0
DA:74,0
DA:75,0
DA:76,0
DA:77,0
DA:78,0
DA:80,0
DA:82,0
DA:83,0
DA:84,0
DA:85,0
DA:86,0
DA:87,0
DA:89,0
DA:147,0
DA:148,0
DA:149,0
DA:150,0
DA:151,0
DA:152,0
DA:153,0
DA:154,0
DA:155,0
DA:156,0
DA:157,0
DA:158,0
DA:159,0
DA:160,0
DA:161,0
DA:162,0
DA:163,0
DA:164,0
DA:165,0
DA:166,0
DA:167,0
DA:168,0
DA:169,0
DA:170,0
DA:171,0
DA:172,0
DA:173,0
DA:174,0
DA:175,0
DA:176,0
DA:177,0
DA:178,0
DA:179,0
DA:180,0
DA:182,0
DA:183,0
DA:184,0
DA:186,0
DA:187,0
DA:188,0
DA:191,0
DA:192,0
DA:193,0
DA:197,0
DA:198,0
DA:199,0
DA:200,0
DA:201,0
DA:202,0
DA:203,0
DA:206,0
DA:207,0
DA:208,0
DA:209,0
DA:210,0
DA:211,0
DA:212,0
DA:214,0
DA:216,0
DA:217,0
DA:218,0
DA:219,0
DA:220,0
DA:221,0
DA:222,0
DA:223,0
DA:224,0
DA:225,0
DA:226,0
DA:229,0
DA:230,0
DA:232,0
DA:233,0
DA:235,0
DA:236,0
DA:237,0
DA:238,0
DA:240,0
DA:241,0
DA:242,0
DA:243,0
DA:245,0
DA:246,0
DA:247,0
DA:248,0
DA:252,0
DA:253,0
DA:254,0
DA:255,0
DA:256,0
DA:257,0
DA:258,0
DA:261,0
DA:262,0
DA:263,0
DA:264,0
DA:265,0
DA:266,0
DA:267,0
DA:268,0
DA:269,0
DA:271,0
DA:272,0
DA:275,0
DA:276,0
DA:277,0
DA:278,0
DA:279,0
DA:280,0
DA:281,0
DA:282,0
DA:283,0
DA:284,0
DA:285,0
DA:286,0
DA:287,0
DA:289,0
DA:290,0
DA:293,0
DA:294,0
DA:295,0
DA:296,0
DA:297,0
DA:298,0
DA:299,0
DA:300,0
DA:301,0
DA:302,0
DA:304,0
DA:305,0
DA:308,0
DA:309,0
DA:311,0
DA:312,0
DA:313,0
DA:314,0
DA:315,0
DA:316,0
DA:319,0
DA:320,0
DA:321,0
DA:322,0
DA:323,0
DA:324,0
DA:325,0
DA:326,0
DA:328,0
DA:329,0
DA:330,0
DA:331,0
DA:332,0
DA:333,0
DA:335,0
DA:337,0
DA:338,0
DA:339,0
DA:340,0
DA:341,0
DA:342,0
DA:343,0
DA:344,0
DA:345,0
DA:346,0
DA:347,0
DA:348,0
DA:349,0
DA:350,0
DA:351,0
DA:352,0
DA:353,0
DA:355,0
DA:369,0
DA:372,0
DA:373,0
DA:374,0
DA:375,0
DA:376,0
DA:377,0
DA:378,0
DA:379,0
DA:380,0
DA:382,0
DA:385,0
DA:386,0
DA:387,0
DA:388,0
DA:392,0
DA:393,0
DA:394,0
DA:395,0
DA:397,0
DA:398,0
DA:399,0
DA:401,0
DA:402,0
DA:404,0
DA:405,0
DA:406,0
DA:407,0
DA:408,0
DA:409,0
DA:410,0
DA:411,0
DA:414,0
DA:415,0
DA:416,0
DA:418,0
DA:419,0
DA:420,0
DA:422,0
DA:423,0
DA:425,0
DA:426,0
DA:429,0
DA:430,0
DA:431,0
DA:433,0
DA:435,0
DA:438,0
DA:439,0
DA:440,0
DA:443,0
DA:444,0
DA:445,0
DA:446,0
DA:447,0
DA:448,0
DA:449,0
DA:450,0
DA:451,0
DA:452,0
DA:455,0
DA:456,0
DA:457,0
DA:458,0
DA:459,0
DA:460,0
DA:463,0
DA:464,0
DA:465,0
DA:466,0
DA:467,0
DA:468,0
DA:469,0
DA:470,0
DA:471,0
DA:472,0
DA:474,0
DA:476,0
DA:477,0
DA:480,0
DA:481,0
DA:482,0
DA:483,0
DA:485,0
DA:488,0
DA:489,0
DA:492,0
DA:495,0
DA:496,0
DA:497,0
DA:498,0
DA:499,0
DA:500,0
DA:501,0
DA:502,0
DA:504,0
DA:505,0
DA:506,0
DA:509,0
DA:510,0
DA:511,0
DA:512,0
DA:515,0
DA:516,0
DA:517,0
DA:519,0
DA:520,0
DA:521,0
DA:523,0
DA:524,0
DA:525,0
DA:526,0
DA:527,0
DA:528,0
DA:530,0
DA:531,0
DA:532,0
DA:534,0
DA:535,0
DA:537,0
DA:538,0
DA:539,0
DA:541,0
DA:542,0
DA:543,0
DA:544,0
DA:546,0
DA:547,0
DA:549,0
DA:553,0
DA:554,0
DA:555,0
DA:556,0
DA:557,0
DA:558,0
DA:559,0
DA:561,0
DA:563,0
DA:564,0
DA:567,0
DA:569,0
DA:570,0
DA:571,0
DA:572,0
DA:574,0
DA:575,0
DA:576,0
DA:577,0
DA:579,0
DA:580,0
DA:581,0
DA:582,0
DA:584,0
DA:585,0
DA:586,0
DA:587,0
DA:588,0
DA:591,0
DA:592,0
DA:593,0
DA:595,0
DA:596,0
DA:598,0
DA:599,0
DA:601,0
DA:603,0
DA:604,0
DA:605,0
DA:606,0
DA:608,0
DA:609,0
DA:610,0
DA:611,0
DA:612,0
DA:613,0
DA:614,0
DA:615,0
DA:616,0
DA:618,0
DA:619,0
DA:620,0
DA:621,0
DA:622,0
DA:624,0
DA:625,0
DA:626,0
DA:627,0
DA:629,0
DA:630,0
DA:631,0
DA:632,0
DA:633,0
DA:634,0
DA:636,0
DA:639,0
DA:640,0
DA:641,0
DA:642,0
DA:644,0
DA:645,0
DA:646,0
DA:648,0
DA:649,0
DA:651,0
DA:652,0
DA:653,0
DA:654,0
DA:655,0
DA:657,0
DA:659,0
DA:660,0
DA:663,0
DA:664,0
DA:665,0
DA:666,0
DA:667,0
DA:669,0
DA:670,0
DA:672,0
DA:673,0
DA:675,0
DA:677,0
DA:678,0
DA:679,0
DA:680,0
DA:681,0
DA:683,0
DA:684,0
DA:685,0
DA:686,0
DA:688,0
DA:689,0
DA:690,0
DA:691,0
DA:692,0
DA:693,0
DA:694,0
DA:695,0
DA:696,0
DA:698,0
DA:699,0
DA:701,0
DA:702,0
DA:704,0
DA:705,0
DA:706,0
DA:707,0
DA:708,0
DA:710,0
DA:713,0
DA:714,0
DA:715,0
DA:716,0
DA:717,0
DA:718,0
DA:719,0
DA:720,0
DA:721,0
DA:722,0
DA:724,0
DA:725,0
DA:726,0
DA:727,0
DA:728,0
DA:729,0
DA:730,0
DA:731,0
DA:733,0
DA:736,0
DA:737,0
DA:738,0
DA:740,0
DA:741,0
DA:743,0
DA:744,0
DA:745,0
DA:746,0
DA:747,0
DA:748,0
DA:749,0
DA:750,0
DA:751,0
DA:752,0
DA:753,0
DA:754,0
DA:755,0
DA:758,0
DA:759,0
DA:760,0
DA:761,0
DA:763,0
DA:765,0
DA:766,0
DA:768,0
DA:769,0
DA:771,0
DA:773,0
DA:774,0
DA:775,0
DA:778,0
DA:780,0
DA:781,0
DA:782,0
DA:783,0
DA:784,0
DA:786,0
DA:787,0
DA:788,0
DA:789,0
DA:790,0
DA:791,0
DA:793,0
DA:796,0
DA:797,0
DA:798,0
DA:799,0
DA:801,0
DA:803,0
DA:804,0
DA:806,0
DA:807,0
DA:809,0
DA:811,0
DA:812,0
DA:813,0
DA:816,0
DA:818,0
DA:819,0
DA:820,0
DA:821,0
DA:822,0
DA:824,0
DA:825,0
DA:826,0
DA:827,0
DA:828,0
DA:829,0
DA:831,0
DA:834,0
DA:835,0
DA:836,0
DA:837,0
DA:838,0
DA:840,0
DA:841,0
DA:843,0
DA:844,0
DA:845,0
DA:846,0
DA:847,0
DA:848,0
DA:849,0
DA:850,0
DA:852,0
DA:853,0
DA:854,0
DA:855,0
DA:856,0
DA:857,0
DA:858,0
DA:859,0
DA:860,0
DA:862,0
DA:863,0
DA:864,0
DA:866,0
DA:869,0
DA:870,0
DA:871,0
DA:872,0
DA:873,0
DA:875,0
DA:876,0
DA:878,0
DA:879,0
DA:880,0
DA:881,0
DA:882,0
DA:883,0
DA:886,0
DA:887,0
DA:890,0
DA:891,0
DA:892,0
DA:894,0
DA:895,0
DA:897,0
DA:899,0
DA:901,0
DA:902,0
DA:903,0
DA:904,0
DA:905,0
DA:906,0
DA:907,0
DA:908,0
DA:909,0
DA:911,0
DA:912,0
DA:913,0
DA:914,0
DA:916,0
DA:917,0
DA:918,0
DA:919,0
DA:920,0
DA:921,0
DA:923,0
DA:924,0
DA:926,0
DA:927,0
DA:930,0
DA:931,0
DA:932,0
DA:933,0
DA:934,0
DA:935,0
DA:936,0
DA:937,0
DA:938,0
DA:939,0
DA:941,0
DA:942,0
DA:944,0
DA:945,0
DA:946,0
DA:947,0
DA:948,0
DA:949,0
DA:950,0
DA:952,0
DA:955,0
DA:956,0
DA:957,0
DA:958,0
DA:959,0
DA:960,0
DA:962,0
DA:964,0
DA:967,0
DA:968,0
DA:969,0
DA:970,0
DA:971,0
DA:972,0
DA:973,0
DA:975,0
DA:976,0
DA:977,0
DA:978,0
DA:980,0
DA:982,0
DA:986,0
DA:987,0
DA:988,0
DA:991,0
DA:993,0
DA:994,0
DA:995,0
DA:996,0
DA:997,0
DA:999,0
DA:1000,0
DA:1001,0
DA:1004,0
DA:1005,0
DA:1007,0
DA:1008,0
DA:1009,0
DA:1011,0
DA:1012,0
DA:1014,0
DA:1015,0
DA:1016,0
DA:1018,0
DA:1019,0
DA:1020,0
DA:1021,0
DA:1022,0
DA:1023,0
DA:1025,0
DA:1026,0
DA:1027,0
DA:1029,0
DA:1030,0
DA:1031,0
DA:1032,0
DA:1033,0
DA:1035,0
DA:1036,0
DA:1037,0
DA:1039,0
DA:1040,0
DA:1041,0
DA:1042,0
DA:1043,0
DA:1045,0
DA:1049,0
DA:1050,0
DA:1051,0
DA:1052,0
DA:1054,0
DA:1055,0
DA:1056,0
DA:1058,0
DA:1059,0
DA:1060,0
DA:1061,0
DA:1063,0
DA:1065,0
DA:1066,0
DA:1068,0
DA:1069,0
DA:1070,0
DA:1071,0
DA:1072,0
DA:1073,0
DA:1074,0
DA:1075,0
DA:1077,0
DA:1079,0
DA:1082,0
DA:1083,0
DA:1084,0
DA:1086,0
DA:1088,0
DA:1089,0
DA:1090,0
DA:1091,0
DA:1092,0
DA:1093,0
DA:1094,0
DA:1096,0
DA:1098,0
DA:1099,0
DA:1101,0
DA:1104,0
DA:1105,0
DA:1106,0
DA:1108,0
DA:1110,0
DA:1111,0
DA:1112,0
DA:1115,0
DA:1116,0
DA:1117,0
DA:1118,0
DA:1119,0
DA:1120,0
DA:1121,0
DA:1122,0
DA:1123,0
DA:1124,0
DA:1126,0
DA:1127,0
DA:1128,0
DA:1129,0
DA:1130,0
DA:1132,0
DA:1134,0
DA:1136,0
DA:1138,0
DA:1139,0
DA:1140,0
DA:1141,0
DA:1142,0
DA:1143,0
DA:1144,0
DA:1146,0
DA:1147,0
DA:1149,0
DA:1152,0
DA:1153,0
DA:1154,0
DA:1155,0
DA:1157,0
DA:1159,0
DA:1161,0
DA:1162,0
DA:1163,0
DA:1164,0
DA:1165,0
DA:1167,0
DA:1169,0
DA:1171,0
DA:1172,0
DA:1173,0
DA:1175,0
DA:1177,0
BRF:0
BRH:0
LF:800
LH:0
end_of_record
SF:/home/admin/Desktop/opensource/soroban-debugger/src/ui/formatter.rs
FN:197,_RNvMNtNtCsjDzxbYtLkYp_16soroban_debugger2ui9formatterNtB2_9Formatter10is_verbose
FN:201,_RNvMNtNtCsjDzxbYtLkYp_16soroban_debugger2ui9formatterNtB2_9Formatter11apply_color
FN:14,_RNvMNtNtCsjDzxbYtLkYp_16soroban_debugger2ui9formatterNtB2_9Formatter12format_value
FN:33,_RNvMNtNtCsjDzxbYtLkYp_16soroban_debugger2ui9formatterNtB2_9Formatter13format_budget
FN:187,_RNvMNtNtCsjDzxbYtLkYp_16soroban_debugger2ui9formatterNtB2_9Formatter13set_verbosity
FN:176,_RNvMNtNtCsjDzxbYtLkYp_16soroban_debugger2ui9formatterNtB2_9Formatter16configure_colors
FN:52,_RNvMNtNtCsjDzxbYtLkYp_16soroban_debugger2ui9formatterNtB2_9Formatter18format_instruction
FN:24,_RNvMNtNtCsjDzxbYtLkYp_16soroban_debugger2ui9formatterNtB2_9Formatter20format_function_call
FN:137,_RNvMNtNtCsjDzxbYtLkYp_16soroban_debugger2ui9formatterNtB2_9Formatter20format_stepping_help
FN:19,_RNvMNtNtCsjDzxbYtLkYp_16soroban_debugger2ui9formatterNtB2_9Formatter20format_storage_entry
FN:119,_RNvMNtNtCsjDzxbYtLkYp_16soroban_debugger2ui9formatterNtB2_9Formatter24format_instruction_stats
FN:181,_RNvMNtNtCsjDzxbYtLkYp_16soroban_debugger2ui9formatterNtB2_9Formatter25configure_colors_from_env
FN:75,_RNvMNtNtCsjDzxbYtLkYp_16soroban_debugger2ui9formatterNtB2_9Formatter26format_instruction_context
FN:95,_RNvMNtNtCsjDzxbYtLkYp_16soroban_debugger2ui9formatterNtB2_9Formatter32format_instruction_pointer_state
FN:192,_RNvMNtNtCsjDzxbYtLkYp_16soroban_debugger2ui9formatterNtB2_9Formatter8is_quiet
FN:156,_RINvMNtNtCsjDzxbYtLkYp_16soroban_debugger2ui9formatterNtB3_9Formatter4infoNtNtCshQKOepsJxml_5alloc6string6StringEB7_
FN:156,_RINvMNtNtCsjDzxbYtLkYp_16soroban_debugger2ui9formatterNtB3_9Formatter4infoRNtNtCshQKOepsJxml_5alloc6string6StringEB7_
FN:156,_RINvMNtNtCsjDzxbYtLkYp_16soroban_debugger2ui9formatterNtB3_9Formatter4infoReEB7_
FN:171,_RINvMNtNtCsjDzxbYtLkYp_16soroban_debugger2ui9formatterNtB3_9Formatter5errorNtNtCshQKOepsJxml_5alloc6string6StringEB7_
FN:171,_RINvMNtNtCsjDzxbYtLkYp_16soroban_debugger2ui9formatterNtB3_9Formatter5errorRNtNtCshQKOepsJxml_5alloc6string6StringEB7_
FN:171,_RINvMNtNtCsjDzxbYtLkYp_16soroban_debugger2ui9formatterNtB3_9Formatter5errorReEB7_
FN:161,_RINvMNtNtCsjDzxbYtLkYp_16soroban_debugger2ui9formatterNtB3_9Formatter7successNtNtCshQKOepsJxml_5alloc6string6StringEB7_
FN:161,_RINvMNtNtCsjDzxbYtLkYp_16soroban_debugger2ui9formatterNtB3_9Formatter7successReEB7_
FN:166,_RINvMNtNtCsjDzxbYtLkYp_16soroban_debugger2ui9formatterNtB3_9Formatter7warningNtNtCshQKOepsJxml_5alloc6string6StringEB7_
FN:166,_RINvMNtNtCsjDzxbYtLkYp_16soroban_debugger2ui9formatterNtB3_9Formatter7warningReEB7_
FN:84,_RNCNvMNtNtCsjDzxbYtLkYp_16soroban_debugger2ui9formatterNtB4_9Formatter26format_instruction_context0B8_
FN:84,_RNCNvMNtNtCs2jO2QXn3WZ6_16soroban_debugger2ui9formatterNtB4_9Formatter26format_instruction_context0B8_
FN:197,_RNvMNtNtCs2jO2QXn3WZ6_16soroban_debugger2ui9formatterNtB2_9Formatter10is_verbose
FN:14,_RNvMNtNtCs2jO2QXn3WZ6_16soroban_debugger2ui9formatterNtB2_9Formatter12format_value
FN:33,_RNvMNtNtCs2jO2QXn3WZ6_16soroban_debugger2ui9formatterNtB2_9Formatter13format_budget
FN:187,_RNvMNtNtCs2jO2QXn3WZ6_16soroban_debugger2ui9formatterNtB2_9Formatter13set_verbosity
FN:176,_RNvMNtNtCs2jO2QXn3WZ6_16soroban_debugger2ui9formatterNtB2_9Formatter16configure_colors
FN:52,_RNvMNtNtCs2jO2QXn3WZ6_16soroban_debugger2ui9formatterNtB2_9Formatter18format_instruction
FN:24,_RNvMNtNtCs2jO2QXn3WZ6_16soroban_debugger2ui9formatterNtB2_9Formatter20format_function_call
FN:137,_RNvMNtNtCs2jO2QXn3WZ6_16soroban_debugger2ui9formatterNtB2_9Formatter20format_stepping_help
FN:19,_RNvMNtNtCs2jO2QXn3WZ6_16soroban_debugger2ui9formatterNtB2_9Formatter20format_storage_entry
FN:119,_RNvMNtNtCs2jO2QXn3WZ6_16soroban_debugger2ui9formatterNtB2_9Formatter24format_instruction_stats
FN:181,_RNvMNtNtCs2jO2QXn3WZ6_16soroban_debugger2ui9formatterNtB2_9Formatter25configure_colors_from_env
FN:75,_RNvMNtNtCs2jO2QXn3WZ6_16soroban_debugger2ui9formatterNtB2_9Formatter26format_instruction_context
FN:95,_RNvMNtNtCs2jO2QXn3WZ6_16soroban_debugger2ui9formatterNtB2_9Formatter32format_instruction_pointer_state
FN:201,_RNvMNtNtCs2jO2QXn3WZ6_16soroban_debugger2ui9formatterNtB2_9Formatter11apply_color
FN:192,_RNvMNtNtCs2jO2QXn3WZ6_16soroban_debugger2ui9formatterNtB2_9Formatter8is_quiet
FN:156,_RINvMNtNtCs2jO2QXn3WZ6_16soroban_debugger2ui9formatterNtB3_9Formatter4infoNtNtCshQKOepsJxml_5alloc6string6StringEB7_
FN:156,_RINvMNtNtCs2jO2QXn3WZ6_16soroban_debugger2ui9formatterNtB3_9Formatter4infoReEB7_
FN:171,_RINvMNtNtCs2jO2QXn3WZ6_16soroban_debugger2ui9formatterNtB3_9Formatter5errorReEB7_
FN:161,_RINvMNtNtCs2jO2QXn3WZ6_16soroban_debugger2ui9formatterNtB3_9Formatter7successNtNtCshQKOepsJxml_5alloc6string6StringEB7_
FN:161,_RINvMNtNtCs2jO2QXn3WZ6_16soroban_debugger2ui9formatterNtB3_9Formatter7successReEB7_
FN:166,_RINvMNtNtCs2jO2QXn3WZ6_16soroban_debugger2ui9formatterNtB3_9Formatter7warningNtNtCshQKOepsJxml_5alloc6string6StringEB7_
FN:166,_RINvMNtNtCs2jO2QXn3WZ6_16soroban_debugger2ui9formatterNtB3_9Formatter7warningReEB7_
FNDA:7,_RNvMNtNtCsjDzxbYtLkYp_16soroban_debugger2ui9formatterNtB2_9Formatter10is_verbose
FNDA:138,_RNvMNtNtCsjDzxbYtLkYp_16soroban_debugger2ui9formatterNtB2_9Formatter11apply_color
FNDA:0,_RNvMNtNtCsjDzxbYtLkYp_16soroban_debugger2ui9formatterNtB2_9Formatter12format_value
FNDA:0,_RNvMNtNtCsjDzxbYtLkYp_16soroban_debugger2ui9formatterNtB2_9Formatter13format_budget
FNDA:75,_RNvMNtNtCsjDzxbYtLkYp_16soroban_debugger2ui9formatterNtB2_9Formatter13set_verbosity
FNDA:87,_RNvMNtNtCsjDzxbYtLkYp_16soroban_debugger2ui9formatterNtB2_9Formatter16configure_colors
FNDA:10,_RNvMNtNtCsjDzxbYtLkYp_16soroban_debugger2ui9formatterNtB2_9Formatter18format_instruction
FNDA:0,_RNvMNtNtCsjDzxbYtLkYp_16soroban_debugger2ui9formatterNtB2_9Formatter20format_function_call
FNDA:2,_RNvMNtNtCsjDzxbYtLkYp_16soroban_debugger2ui9formatterNtB2_9Formatter20format_stepping_help
FNDA:0,_RNvMNtNtCsjDzxbYtLkYp_16soroban_debugger2ui9formatterNtB2_9Formatter20format_storage_entry
FNDA:0,_RNvMNtNtCsjDzxbYtLkYp_16soroban_debugger2ui9formatterNtB2_9Formatter24format_instruction_stats
FNDA:87,_RNvMNtNtCsjDzxbYtLkYp_16soroban_debugger2ui9formatterNtB2_9Formatter25configure_colors_from_env
FNDA:2,_RNvMNtNtCsjDzxbYtLkYp_16soroban_debugger2ui9formatterNtB2_9Formatter26format_instruction_context
FNDA:2,_RNvMNtNtCsjDzxbYtLkYp_16soroban_debugger2ui9formatterNtB2_9Formatter32format_instruction_pointer_state
FNDA:153,_RNvMNtNtCsjDzxbYtLkYp_16soroban_debugger2ui9formatterNtB2_9Formatter8is_quiet
FNDA:83,_RINvMNtNtCsjDzxbYtLkYp_16soroban_debugger2ui9formatterNtB3_9Formatter4infoNtNtCshQKOepsJxml_5alloc6string6StringEB7_
FNDA:0,_RINvMNtNtCsjDzxbYtLkYp_16soroban_debugger2ui9formatterNtB3_9Formatter4infoRNtNtCshQKOepsJxml_5alloc6string6StringEB7_
FNDA:23,_RINvMNtNtCsjDzxbYtLkYp_16soroban_debugger2ui9formatterNtB3_9Formatter4infoReEB7_
FNDA:0,_RINvMNtNtCsjDzxbYtLkYp_16soroban_debugger2ui9formatterNtB3_9Formatter5errorNtNtCshQKOepsJxml_5alloc6string6StringEB7_
FNDA:0,_RINvMNtNtCsjDzxbYtLkYp_16soroban_debugger2ui9formatterNtB3_9Formatter5errorRNtNtCshQKOepsJxml_5alloc6string6StringEB7_
FNDA:0,_RINvMNtNtCsjDzxbYtLkYp_16soroban_debugger2ui9formatterNtB3_9Formatter5errorReEB7_
FNDA:32,_RINvMNtNtCsjDzxbYtLkYp_16soroban_debugger2ui9formatterNtB3_9Formatter7successNtNtCshQKOepsJxml_5alloc6string6StringEB7_
FNDA:0,_RINvMNtNtCsjDzxbYtLkYp_16soroban_debugger2ui9formatterNtB3_9Formatter7successReEB7_
FNDA:0,_RINvMNtNtCsjDzxbYtLkYp_16soroban_debugger2ui9formatterNtB3_9Formatter7warningNtNtCshQKOepsJxml_5alloc6string6StringEB7_
FNDA:0,_RINvMNtNtCsjDzxbYtLkYp_16soroban_debugger2ui9formatterNtB3_9Formatter7warningReEB7_
FNDA:6,_RNCNvMNtNtCsjDzxbYtLkYp_16soroban_debugger2ui9formatterNtB4_9Formatter26format_instruction_context0B8_
FNDA:0,_RNCNvMNtNtCs2jO2QXn3WZ6_16soroban_debugger2ui9formatterNtB4_9Formatter26format_instruction_context0B8_
FNDA:0,_RNvMNtNtCs2jO2QXn3WZ6_16soroban_debugger2ui9formatterNtB2_9Formatter10is_verbose
FNDA:0,_RNvMNtNtCs2jO2QXn3WZ6_16soroban_debugger2ui9formatterNtB2_9Formatter12format_value
FNDA:0,_RNvMNtNtCs2jO2QXn3WZ6_16soroban_debugger2ui9formatterNtB2_9Formatter13format_budget
FNDA:0,_RNvMNtNtCs2jO2QXn3WZ6_16soroban_debugger2ui9formatterNtB2_9Formatter13set_verbosity
FNDA:0,_RNvMNtNtCs2jO2QXn3WZ6_16soroban_debugger2ui9formatterNtB2_9Formatter16configure_colors
FNDA:0,_RNvMNtNtCs2jO2QXn3WZ6_16soroban_debugger2ui9formatterNtB2_9Formatter18format_instruction
FNDA:0,_RNvMNtNtCs2jO2QXn3WZ6_16soroban_debugger2ui9formatterNtB2_9Formatter20format_function_call
FNDA:0,_RNvMNtNtCs2jO2QXn3WZ6_16soroban_debugger2ui9formatterNtB2_9Formatter20format_stepping_help
FNDA:0,_RNvMNtNtCs2jO2QXn3WZ6_16soroban_debugger2ui9formatterNtB2_9Formatter20format_storage_entry
FNDA:0,_RNvMNtNtCs2jO2QXn3WZ6_16soroban_debugger2ui9formatterNtB2_9Formatter24format_instruction_stats
FNDA:0,_RNvMNtNtCs2jO2QXn3WZ6_16soroban_debugger2ui9formatterNtB2_9Formatter25configure_colors_from_env
FNDA:0,_RNvMNtNtCs2jO2QXn3WZ6_16soroban_debugger2ui9formatterNtB2_9Formatter26format_instruction_context
FNDA:0,_RNvMNtNtCs2jO2QXn3WZ6_16soroban_debugger2ui9formatterNtB2_9Formatter32format_instruction_pointer_state
FNDA:16,_RNvMNtNtCs2jO2QXn3WZ6_16soroban_debugger2ui9formatterNtB2_9Formatter11apply_color
FNDA:1,_RNvMNtNtCs2jO2QXn3WZ6_16soroban_debugger2ui9formatterNtB2_9Formatter8is_quiet
FNDA:10,_RINvMNtNtCs2jO2QXn3WZ6_16soroban_debugger2ui9formatterNtB3_9Formatter4infoNtNtCshQKOepsJxml_5alloc6string6StringEB7_
FNDA:3,_RINvMNtNtCs2jO2QXn3WZ6_16soroban_debugger2ui9formatterNtB3_9Formatter4infoReEB7_
FNDA:0,_RINvMNtNtCs2jO2QXn3WZ6_16soroban_debugger2ui9formatterNtB3_9Formatter5errorReEB7_
FNDA:0,_RINvMNtNtCs2jO2QXn3WZ6_16soroban_debugger2ui9formatterNtB3_9Formatter7successNtNtCshQKOepsJxml_5alloc6string6StringEB7_
FNDA:0,_RINvMNtNtCs2jO2QXn3WZ6_16soroban_debugger2ui9formatterNtB3_9Formatter7successReEB7_
FNDA:2,_RINvMNtNtCs2jO2QXn3WZ6_16soroban_debugger2ui9formatterNtB3_9Formatter7warningNtNtCshQKOepsJxml_5alloc6string6StringEB7_
FNDA:1,_RINvMNtNtCs2jO2QXn3WZ6_16soroban_debugger2ui9formatterNtB3_9Formatter7warningReEB7_
FNF:20
FNH:14
DA:14,0
DA:15,0
DA:16,0
DA:19,0
DA:20,0
DA:21,0
DA:24,0
DA:25,0
DA:26,0
DA:28,0
DA:30,0
DA:33,0
DA:34,0
DA:35,0
DA:37,0
DA:39,0
DA:40,0
DA:42,0
DA:45,0
DA:49,0
DA:52,10
DA:53,10
DA:54,10
DA:56,10
DA:57,0
DA:61,0
DA:64,10
DA:68,10
DA:72,10
DA:75,2
DA:76,2
DA:77,2
DA:78,2
DA:79,2
DA:80,0
DA:81,2
DA:83,2
DA:84,6
DA:85,6
DA:88,6
DA:90,6
DA:91,2
DA:92,2
DA:95,2
DA:96,2
DA:97,2
DA:98,2
DA:99,2
DA:100,2
DA:101,2
DA:102,2
DA:103,0
DA:104,0
DA:105,0
DA:106,0
DA:109,2
DA:114,2
DA:116,2
DA:119,0
DA:120,0
DA:121,0
DA:122,0
DA:123,0
DA:124,0
DA:125,0
DA:127,0
DA:130,0
DA:134,0
DA:137,2
DA:138,2
DA:139,2
DA:140,2
DA:141,2
DA:142,2
DA:143,2
DA:144,2
DA:145,2
DA:146,2
DA:147,2
DA:148,2
DA:149,2
DA:150,2
DA:151,2
DA:152,2
DA:153,2
DA:156,119
DA:157,119
DA:158,119
DA:161,32
DA:162,32
DA:163,32
DA:166,3
DA:167,3
DA:168,3
DA:171,0
DA:172,0
DA:173,0
DA:176,87
DA:177,87
DA:178,87
DA:181,87
DA:182,87
DA:183,87
DA:184,87
DA:187,75
DA:188,75
DA:189,75
DA:192,154
DA:193,154
DA:194,154
DA:197,7
DA:198,7
DA:199,7
DA:201,154
DA:202,154
DA:203,0
DA:204,154
DA:206,154
DA:207,119
DA:208,32
DA:209,3
DA:210,0
DA:212,154
BRF:0
BRH:0
LF:124
LH:81
end_of_record
SF:/home/admin/Desktop/opensource/soroban-debugger/src/ui/tui.rs
FN:26,_RNCNvMNtNtCsjDzxbYtLkYp_16soroban_debugger2ui3tuiNtB4_10DebuggerUI3run0B8_
FN:31,_RNCNvMNtNtCsjDzxbYtLkYp_16soroban_debugger2ui3tuiNtB4_10DebuggerUI3runs_0B8_
FN:156,_RNvMNtNtCsjDzxbYtLkYp_16soroban_debugger2ui3tuiNtB2_10DebuggerUI10print_help
FN:55,_RNvMNtNtCsjDzxbYtLkYp_16soroban_debugger2ui3tuiNtB2_10DebuggerUI14handle_command
FN:13,_RNvMNtNtCsjDzxbYtLkYp_16soroban_debugger2ui3tuiNtB2_10DebuggerUI3new
FN:21,_RNvMNtNtCsjDzxbYtLkYp_16soroban_debugger2ui3tuiNtB2_10DebuggerUI3run
FN:130,_RNvMNtNtCsjDzxbYtLkYp_16soroban_debugger2ui3tuiNtB2_10DebuggerUI7inspect
FN:26,_RNCNvMNtNtCs2jO2QXn3WZ6_16soroban_debugger2ui3tuiNtB4_10DebuggerUI3run0B8_
FN:31,_RNCNvMNtNtCs2jO2QXn3WZ6_16soroban_debugger2ui3tuiNtB4_10DebuggerUI3runs_0B8_
FN:156,_RNvMNtNtCs2jO2QXn3WZ6_16soroban_debugger2ui3tuiNtB2_10DebuggerUI10print_help
FN:55,_RNvMNtNtCs2jO2QXn3WZ6_16soroban_debugger2ui3tuiNtB2_10DebuggerUI14handle_command
FN:13,_RNvMNtNtCs2jO2QXn3WZ6_16soroban_debugger2ui3tuiNtB2_10DebuggerUI3new
FN:21,_RNvMNtNtCs2jO2QXn3WZ6_16soroban_debugger2ui3tuiNtB2_10DebuggerUI3run
FN:130,_RNvMNtNtCs2jO2QXn3WZ6_16soroban_debugger2ui3tuiNtB2_10DebuggerUI7inspect
FNDA:0,_RNCNvMNtNtCsjDzxbYtLkYp_16soroban_debugger2ui3tuiNtB4_10DebuggerUI3run0B8_
FNDA:0,_RNCNvMNtNtCsjDzxbYtLkYp_16soroban_debugger2ui3tuiNtB4_10DebuggerUI3runs_0B8_
FNDA:0,_RNvMNtNtCsjDzxbYtLkYp_16soroban_debugger2ui3tuiNtB2_10DebuggerUI10print_help
FNDA:0,_RNvMNtNtCsjDzxbYtLkYp_16soroban_debugger2ui3tuiNtB2_10DebuggerUI14handle_command
FNDA:0,_RNvMNtNtCsjDzxbYtLkYp_16soroban_debugger2ui3tuiNtB2_10DebuggerUI3new
FNDA:0,_RNvMNtNtCsjDzxbYtLkYp_16soroban_debugger2ui3tuiNtB2_10DebuggerUI3run
FNDA:0,_RNvMNtNtCsjDzxbYtLkYp_16soroban_debugger2ui3tuiNtB2_10DebuggerUI7inspect
FNDA:0,_RNCNvMNtNtCs2jO2QXn3WZ6_16soroban_debugger2ui3tuiNtB4_10DebuggerUI3run0B8_
FNDA:0,_RNCNvMNtNtCs2jO2QXn3WZ6_16soroban_debugger2ui3tuiNtB4_10DebuggerUI3runs_0B8_
FNDA:0,_RNvMNtNtCs2jO2QXn3WZ6_16soroban_debugger2ui3tuiNtB2_10DebuggerUI10print_help
FNDA:0,_RNvMNtNtCs2jO2QXn3WZ6_16soroban_debugger2ui3tuiNtB2_10DebuggerUI14handle_command
FNDA:0,_RNvMNtNtCs2jO2QXn3WZ6_16soroban_debugger2ui3tuiNtB2_10DebuggerUI3new
FNDA:0,_RNvMNtNtCs2jO2QXn3WZ6_16soroban_debugger2ui3tuiNtB2_10DebuggerUI3run
FNDA:0,_RNvMNtNtCs2jO2QXn3WZ6_16soroban_debugger2ui3tuiNtB2_10DebuggerUI7inspect
FNF:7
FNH:0
DA:13,0
DA:14,0
DA:15,0
DA:16,0
DA:17,0
DA:18,0
DA:21,0
DA:22,0
DA:25,0
DA:26,0
DA:27,0
DA:28,0
DA:30,0
DA:31,0
DA:32,0
DA:33,0
DA:35,0
DA:36,0
DA:37,0
DA:38,0
DA:40,0
DA:41,0
DA:42,0
DA:43,0
DA:44,0
DA:46,0
DA:47,0
DA:52,0
DA:53,0
DA:55,0
DA:56,0
DA:57,0
DA:58,0
DA:59,0
DA:61,0
DA:62,0
DA:63,0
DA:64,0
DA:65,0
DA:66,0
DA:68,0
DA:69,0
DA:70,0
DA:72,0
DA:73,0
DA:74,0
DA:75,0
DA:76,0
DA:77,0
DA:78,0
DA:79,0
DA:80,0
DA:81,0
DA:83,0
DA:84,0
DA:85,0
DA:86,0
DA:87,0
DA:88,0
DA:89,0
DA:90,0
DA:91,0
DA:92,0
DA:94,0
DA:95,0
DA:96,0
DA:97,0
DA:98,0
DA:99,0
DA:100,0
DA:101,0
DA:102,0
DA:103,0
DA:104,0
DA:105,0
DA:106,0
DA:107,0
DA:110,0
DA:111,0
DA:112,0
DA:113,0
DA:114,0
DA:115,0
DA:116,0
DA:119,0
DA:120,0
DA:121,0
DA:122,0
DA:124,0
DA:127,0
DA:128,0
DA:130,0
DA:131,0
DA:132,0
DA:133,0
DA:134,0
DA:135,0
DA:136,0
DA:137,0
DA:138,0
DA:139,0
DA:140,0
DA:141,0
DA:142,0
DA:143,0
DA:145,0
DA:146,0
DA:147,0
DA:149,0
DA:150,0
DA:151,0
DA:152,0
DA:153,0
DA:154,0
DA:156,0
DA:157,0
DA:159,0
DA:161,0
DA:163,0
DA:165,0
DA:167,0
DA:169,0
DA:171,0
DA:173,0
DA:175,0
DA:177,0
DA:179,0
DA:181,0
DA:183,0
DA:185,0
DA:187,0
DA:189,0
DA:191,0
DA:193,0
DA:195,0
DA:197,0
DA:199,0
DA:201,0
DA:203,0
DA:205,0
BRF:0
BRH:0
LF:144
LH:0
end_of_record
SF:/home/admin/Desktop/opensource/soroban-debugger/src/utils/arguments.rs
FN:239,_RNvMs_NtNtCsjDzxbYtLkYp_16soroban_debugger5utils9argumentsNtB4_14ArgumentParser11convert_i32
FN:276,_RNvMs_NtNtCsjDzxbYtLkYp_16soroban_debugger5utils9argumentsNtB4_14ArgumentParser11convert_i64
FN:216,_RNvMs_NtNtCsjDzxbYtLkYp_16soroban_debugger5utils9argumentsNtB4_14ArgumentParser11convert_u32
FN:262,_RNvMs_NtNtCsjDzxbYtLkYp_16soroban_debugger5utils9argumentsNtB4_14ArgumentParser11convert_u64
FN:378,_RNvMs_NtNtCsjDzxbYtLkYp_16soroban_debugger5utils9argumentsNtB4_14ArgumentParser11convert_vec
FN:125,_RNvMs_NtNtCsjDzxbYtLkYp_16soroban_debugger5utils9argumentsNtB4_14ArgumentParser11parse_value
FN:318,_RNvMs_NtNtCsjDzxbYtLkYp_16soroban_debugger5utils9argumentsNtB4_14ArgumentParser12convert_bool
FN:304,_RNvMs_NtNtCsjDzxbYtLkYp_16soroban_debugger5utils9argumentsNtB4_14ArgumentParser12convert_i128
FN:290,_RNvMs_NtNtCsjDzxbYtLkYp_16soroban_debugger5utils9argumentsNtB4_14ArgumentParser12convert_u128
FN:477,_RNvMs_NtNtCsjDzxbYtLkYp_16soroban_debugger5utils9argumentsNtB4_14ArgumentParser13convert_bytes
FN:420,_RNvMs_NtNtCsjDzxbYtLkYp_16soroban_debugger5utils9argumentsNtB4_14ArgumentParser13convert_tuple
FN:491,_RNvMs_NtNtCsjDzxbYtLkYp_16soroban_debugger5utils9argumentsNtB4_14ArgumentParser14convert_bytesn
FN:362,_RNvMs_NtNtCsjDzxbYtLkYp_16soroban_debugger5utils9argumentsNtB4_14ArgumentParser14convert_option
FN:332,_RNvMs_NtNtCsjDzxbYtLkYp_16soroban_debugger5utils9argumentsNtB4_14ArgumentParser14convert_string
FN:347,_RNvMs_NtNtCsjDzxbYtLkYp_16soroban_debugger5utils9argumentsNtB4_14ArgumentParser14convert_symbol
FN:521,_RNvMs_NtNtCsjDzxbYtLkYp_16soroban_debugger5utils9argumentsNtB4_14ArgumentParser15convert_address
FN:110,_RNvMs_NtNtCsjDzxbYtLkYp_16soroban_debugger5utils9argumentsNtB4_14ArgumentParser17parse_args_string
FN:184,_RNvMs_NtNtCsjDzxbYtLkYp_16soroban_debugger5utils9argumentsNtB4_14ArgumentParser17parse_typed_value
FN:680,_RNvMs_NtNtCsjDzxbYtLkYp_16soroban_debugger5utils9argumentsNtB4_14ArgumentParser18get_json_type_name
FN:460,_RNvMs_NtNtCsjDzxbYtLkYp_16soroban_debugger5utils9argumentsNtB4_14ArgumentParser19decode_bytes_string
FN:162,_RNvMs_NtNtCsjDzxbYtLkYp_16soroban_debugger5utils9argumentsNtB4_14ArgumentParser19is_typed_annotation
FN:541,_RNvMs_NtNtCsjDzxbYtLkYp_16soroban_debugger5utils9argumentsNtB4_14ArgumentParser19json_to_soroban_val
FN:647,_RNvMs_NtNtCsjDzxbYtLkYp_16soroban_debugger5utils9argumentsNtB4_14ArgumentParser20array_to_soroban_vec
FN:702,_RNvMs_NtNtCsjDzxbYtLkYp_16soroban_debugger5utils9argumentsNtB4_14ArgumentParser21object_to_soroban_map
FN:86,_RNvMs_NtNtCsjDzxbYtLkYp_16soroban_debugger5utils9argumentsNtB4_14ArgumentParser25looks_like_strkey_address
FN:82,_RNvMs_NtNtCsjDzxbYtLkYp_16soroban_debugger5utils9argumentsNtB4_14ArgumentParser3new
FN:70,_RNvXNtNtCsjDzxbYtLkYp_16soroban_debugger5utils9argumentsNtB2_18ArgumentParseErrorINtNtCslH02haMvknO_4core7convert4FromNtNtCs4NsXa2hdLGM_10serde_json5error5ErrorE4from
FN:132,_RNCNCNvMs_NtNtCsjDzxbYtLkYp_16soroban_debugger5utils9argumentsNtB8_14ArgumentParser11parse_value00Bc_
FN:243,_RNCNvMs_NtNtCsjDzxbYtLkYp_16soroban_debugger5utils9argumentsNtB6_14ArgumentParser11convert_i320Ba_
FN:256,_RNCNvMs_NtNtCsjDzxbYtLkYp_16soroban_debugger5utils9argumentsNtB6_14ArgumentParser11convert_i32s_0Ba_
FN:280,_RNCNvMs_NtNtCsjDzxbYtLkYp_16soroban_debugger5utils9argumentsNtB6_14ArgumentParser11convert_i640Ba_
FN:284,_RNCNvMs_NtNtCsjDzxbYtLkYp_16soroban_debugger5utils9argumentsNtB6_14ArgumentParser11convert_i64s_0Ba_
FN:220,_RNCNvMs_NtNtCsjDzxbYtLkYp_16soroban_debugger5utils9argumentsNtB6_14ArgumentParser11convert_u320Ba_
FN:233,_RNCNvMs_NtNtCsjDzxbYtLkYp_16soroban_debugger5utils9argumentsNtB6_14ArgumentParser11convert_u32s_0Ba_
FN:266,_RNCNvMs_NtNtCsjDzxbYtLkYp_16soroban_debugger5utils9argumentsNtB6_14ArgumentParser11convert_u640Ba_
FN:270,_RNCNvMs_NtNtCsjDzxbYtLkYp_16soroban_debugger5utils9argumentsNtB6_14ArgumentParser11convert_u64s_0Ba_
FN:386,_RNCNvMs_NtNtCsjDzxbYtLkYp_16soroban_debugger5utils9argumentsNtB6_14ArgumentParser11convert_vec0Ba_
FN:404,_RNCNvMs_NtNtCsjDzxbYtLkYp_16soroban_debugger5utils9argumentsNtB6_14ArgumentParser11convert_vecs0_0Ba_
FN:390,_RNCNvMs_NtNtCsjDzxbYtLkYp_16soroban_debugger5utils9argumentsNtB6_14ArgumentParser11convert_vecs_0Ba_
FN:131,_RNCNvMs_NtNtCsjDzxbYtLkYp_16soroban_debugger5utils9argumentsNtB6_14ArgumentParser11parse_value0Ba_
FN:156,_RNCNvMs_NtNtCsjDzxbYtLkYp_16soroban_debugger5utils9argumentsNtB6_14ArgumentParser11parse_values_0Ba_
FN:322,_RNCNvMs_NtNtCsjDzxbYtLkYp_16soroban_debugger5utils9argumentsNtB6_14ArgumentParser12convert_bool0Ba_
FN:326,_RNCNvMs_NtNtCsjDzxbYtLkYp_16soroban_debugger5utils9argumentsNtB6_14ArgumentParser12convert_bools_0Ba_
FN:308,_RNCNvMs_NtNtCsjDzxbYtLkYp_16soroban_debugger5utils9argumentsNtB6_14ArgumentParser12convert_i1280Ba_
FN:312,_RNCNvMs_NtNtCsjDzxbYtLkYp_16soroban_debugger5utils9argumentsNtB6_14ArgumentParser12convert_i128s_0Ba_
FN:294,_RNCNvMs_NtNtCsjDzxbYtLkYp_16soroban_debugger5utils9argumentsNtB6_14ArgumentParser12convert_u1280Ba_
FN:298,_RNCNvMs_NtNtCsjDzxbYtLkYp_16soroban_debugger5utils9argumentsNtB6_14ArgumentParser12convert_u128s_0Ba_
FN:481,_RNCNvMs_NtNtCsjDzxbYtLkYp_16soroban_debugger5utils9argumentsNtB6_14ArgumentParser13convert_bytes0Ba_
FN:486,_RNCNvMs_NtNtCsjDzxbYtLkYp_16soroban_debugger5utils9argumentsNtB6_14ArgumentParser13convert_bytess_0Ba_
FN:428,_RNCNvMs_NtNtCsjDzxbYtLkYp_16soroban_debugger5utils9argumentsNtB6_14ArgumentParser13convert_tuple0Ba_
FN:448,_RNCNvMs_NtNtCsjDzxbYtLkYp_16soroban_debugger5utils9argumentsNtB6_14ArgumentParser13convert_tuples0_0Ba_
FN:433,_RNCNvMs_NtNtCsjDzxbYtLkYp_16soroban_debugger5utils9argumentsNtB6_14ArgumentParser13convert_tuples_0Ba_
FN:499,_RNCNvMs_NtNtCsjDzxbYtLkYp_16soroban_debugger5utils9argumentsNtB6_14ArgumentParser14convert_bytesn0Ba_
FN:503,_RNCNvMs_NtNtCsjDzxbYtLkYp_16soroban_debugger5utils9argumentsNtB6_14ArgumentParser14convert_bytesns0_0Ba_
FN:516,_RNCNvMs_NtNtCsjDzxbYtLkYp_16soroban_debugger5utils9argumentsNtB6_14ArgumentParser14convert_bytesns1_0Ba_
FN:503,_RNCNvMs_NtNtCsjDzxbYtLkYp_16soroban_debugger5utils9argumentsNtB6_14ArgumentParser14convert_bytesns_0Ba_
FN:365,_RNCNvMs_NtNtCsjDzxbYtLkYp_16soroban_debugger5utils9argumentsNtB6_14ArgumentParser14convert_option0Ba_
FN:336,_RNCNvMs_NtNtCsjDzxbYtLkYp_16soroban_debugger5utils9argumentsNtB6_14ArgumentParser14convert_string0Ba_
FN:341,_RNCNvMs_NtNtCsjDzxbYtLkYp_16soroban_debugger5utils9argumentsNtB6_14ArgumentParser14convert_strings_0Ba_
FN:351,_RNCNvMs_NtNtCsjDzxbYtLkYp_16soroban_debugger5utils9argumentsNtB6_14ArgumentParser14convert_symbol0Ba_
FN:356,_RNCNvMs_NtNtCsjDzxbYtLkYp_16soroban_debugger5utils9argumentsNtB6_14ArgumentParser14convert_symbols_0Ba_
FN:525,_RNCNvMs_NtNtCsjDzxbYtLkYp_16soroban_debugger5utils9argumentsNtB6_14ArgumentParser15convert_address0Ba_
FN:530,_RNCNvMs_NtNtCsjDzxbYtLkYp_16soroban_debugger5utils9argumentsNtB6_14ArgumentParser15convert_addresss0_0Ba_
FN:532,_RNCNvMs_NtNtCsjDzxbYtLkYp_16soroban_debugger5utils9argumentsNtB6_14ArgumentParser15convert_addresss1_0Ba_
FN:529,_RNCNvMs_NtNtCsjDzxbYtLkYp_16soroban_debugger5utils9argumentsNtB6_14ArgumentParser15convert_addresss_0Ba_
FN:185,_RNCNvMs_NtNtCsjDzxbYtLkYp_16soroban_debugger5utils9argumentsNtB6_14ArgumentParser17parse_typed_value0Ba_
FN:189,_RNCNvMs_NtNtCsjDzxbYtLkYp_16soroban_debugger5utils9argumentsNtB6_14ArgumentParser17parse_typed_values_0Ba_
FN:462,_RNCNvMs_NtNtCsjDzxbYtLkYp_16soroban_debugger5utils9argumentsNtB6_14ArgumentParser19decode_bytes_string0Ba_
FN:467,_RNCNvMs_NtNtCsjDzxbYtLkYp_16soroban_debugger5utils9argumentsNtB6_14ArgumentParser19decode_bytes_strings_0Ba_
FN:177,_RNCNvMs_NtNtCsjDzxbYtLkYp_16soroban_debugger5utils9argumentsNtB6_14ArgumentParser19is_typed_annotation0Ba_
FN:545,_RNCNvMs_NtNtCsjDzxbYtLkYp_16soroban_debugger5utils9argumentsNtB6_14ArgumentParser19json_to_soroban_val0Ba_
FN:565,_RNCNvMs_NtNtCsjDzxbYtLkYp_16soroban_debugger5utils9argumentsNtB6_14ArgumentParser19json_to_soroban_vals0_0Ba_
FN:578,_RNCNvMs_NtNtCsjDzxbYtLkYp_16soroban_debugger5utils9argumentsNtB6_14ArgumentParser19json_to_soroban_vals1_0Ba_
FN:599,_RNCNvMs_NtNtCsjDzxbYtLkYp_16soroban_debugger5utils9argumentsNtB6_14ArgumentParser19json_to_soroban_vals2_0Ba_
FN:602,_RNCNvMs_NtNtCsjDzxbYtLkYp_16soroban_debugger5utils9argumentsNtB6_14ArgumentParser19json_to_soroban_vals3_0Ba_
